CChildFrame::CreateObject:0x00401000-0x00401055
0x00401000	55	push    ebp
0x00401001	8BEC	mov     ebp, esp
0x00401003	6AFF	push    0FFFFFFFFh
0x00401005	68E8924000	push    offset CnotepadView__CreateObject_SEH
0x0040100a	64A100000000	mov     eax, large fs:0
0x00401010	50	push    eax
0x00401011	64892500000000	mov     large fs:0, esp
0x00401018	51	push    ecx
0x00401019	56	push    esi
0x0040101a	68BC040000	push    4BCh
0x0040101f	FF15ACAD4000	call    ds:__imp_??2@YAPAXI@Z; operator new(uint)
0x00401025	8BF0	mov     esi, eax
0x00401027	83C404	add     esp, 4
0x0040102a	8975F0	mov     [ebp+var_10], esi
0x0040102d	33C0	xor     eax, eax
0x0040102f	8945FC	mov     [ebp+var_4], eax
0x00401032	3BF0	cmp     esi, eax
0x00401034	7410	jz      short loc_401046
0x00401036	8BCE	mov     ecx, esi
0x00401038	FF15A0AD4000	call    ds:__imp_??0CMDIChildWndEx@@IAE@XZ; CMDIChildWndEx::CMDIChildWndEx(void)
0x0040103e	C706DCAE4000	mov     dword ptr [esi], offset ??_7CChildFrame@@6B@; const CChildFrame::`vftable'
0x00401044	8BC6	mov     eax, esi
0x00401046	8B4DF4	mov     ecx, [ebp+var_C]
0x00401049	5E	pop     esi
0x0040104a	64890D00000000	mov     large fs:0, ecx
0x00401051	8BE5	mov     esp, ebp
0x00401053	5D	pop     ebp
0x00401054	C3	retn
CChildFrame::CreateObject:0x004092e0-0x004092e8
0x004092e0	8B45F0	mov     eax, [ebp+var_10]
0x004092e3	E9087EFFFF	jmp     CObject__operator_delete
CChildFrame::_GetBaseClass:0x00401060-0x00401066
0x00401060	FF25A8AD4000	jmp     ds:__imp_?GetThisClass@CMDIChildWndEx@@SGPAUCRuntimeClass@@XZ; CMDIChildWndEx::GetThisClass(void)
CChildFrame::GetRuntimeClass:0x00401070-0x00401076
0x00401070	B89CAE4000	mov     eax, offset CChildFrame__classCChildFrame
0x00401075	C3	retn
CChildFrame::GetMessageMap:0x00401080-0x00401086
0x00401080	B8D0AE4000	mov     eax, offset off_40AED0
0x00401085	C3	retn
CChildFrame::_scalar_deleting_destructor_:0x00401090-0x004010b9
0x00401090	55	push    ebp
0x00401091	8BEC	mov     ebp, esp
0x00401093	56	push    esi
0x00401094	8BF1	mov     esi, ecx
0x00401096	C706DCAE4000	mov     dword ptr [esi], offset ??_7CChildFrame@@6B@; const CChildFrame::`vftable'
0x0040109c	FF1584AD4000	call    ds:__imp_??1CMDIChildWndEx@@MAE@XZ; CMDIChildWndEx::~CMDIChildWndEx(void)
0x004010a2	F6450801	test    [ebp+arg_0], 1
0x004010a6	740A	jz      short loc_4010B2
0x004010a8	56	push    esi
0x004010a9	FF15CCAD4000	call    ds:__imp_??3@YAXPAX@Z; operator delete(void *)
0x004010af	83C404	add     esp, 4
0x004010b2	8BC6	mov     eax, esi
0x004010b4	5E	pop     esi
0x004010b5	5D	pop     ebp
0x004010b6	C20400	retn    4
CChildFrame::PreCreateWindow:0x004010c0-0x004010d7
0x004010c0	55	push    ebp
0x004010c1	8BEC	mov     ebp, esp
0x004010c3	8B4508	mov     eax, [ebp+arg_0]
0x004010c6	50	push    eax
0x004010c7	FF1580AD4000	call    ds:__imp_?PreCreateWindow@CMDIChildWndEx@@MAEHAAUtagCREATESTRUCTW@@@Z; CMDIChildWndEx::PreCreateWindow(tagCREATESTRUCTW &)
0x004010cd	F7D8	neg     eax
0x004010cf	1BC0	sbb     eax, eax
0x004010d1	F7D8	neg     eax
0x004010d3	5D	pop     ebp
0x004010d4	C20400	retn    4
CMDIChildWndEx::CanShowOnMDITabs:0x004010e0-0x004010ed
0x004010e0	FF15B4A14000	call    ds:__imp_?GetStyle@CWnd@@QBEKXZ; CWnd::GetStyle(void)
0x004010e6	C1E81C	shr     eax, 1Ch
0x004010e9	83E001	and     eax, 1
0x004010ec	C3	retn
CObject::operator_delete:0x004010f0-0x004010f9
0x004010f0	50	push    eax
0x004010f1	FF15CCAD4000	call    ds:__imp_??3@YAXPAX@Z; operator delete(void *)
0x004010f7	59	pop     ecx
0x004010f8	C3	retn
CClassToolBar::OnUpdateCmdUI:0x00401100-0x00401130
0x00401100	55	push    ebp
0x00401101	8BEC	mov     ebp, esp
0x00401103	56	push    esi
0x00401104	8BF1	mov     esi, ecx
0x00401106	8B4654	mov     eax, [esi+54h]
0x00401109	85C0	test    eax, eax
0x0040110b	750A	jnz     short loc_401117
0x0040110d	8B4620	mov     eax, [esi+20h]
0x00401110	50	push    eax; hWnd
0x00401111	FF156CA14000	call    ds:__imp__GetParent@4; GetParent(x)
0x00401117	50	push    eax
0x00401118	FF15E8A14000	call    ds:__imp_?FromHandle@CWnd@@SGPAV1@PAUHWND__@@@Z; CWnd::FromHandle(HWND__ *)
0x0040111e	8B4D0C	mov     ecx, [ebp+arg_4]
0x00401121	51	push    ecx
0x00401122	50	push    eax
0x00401123	8BCE	mov     ecx, esi
0x00401125	FF15E4A14000	call    ds:__imp_?OnUpdateCmdUI@CMFCToolBar@@UAEXPAVCFrameWnd@@H@Z; CMFCToolBar::OnUpdateCmdUI(CFrameWnd *,int)
0x0040112b	5E	pop     esi
0x0040112c	5D	pop     ebp
0x0040112d	C20800	retn    8
CClassViewMenuButton::OnDraw:0x00401130-0x0040118c
0x00401130	55	push    ebp
0x00401131	8BEC	mov     ebp, esp
0x00401133	83EC0C	sub     esp, 0Ch
0x00401136	56	push    esi
0x00401137	8B35F4A14000	mov     esi, ds:__imp_?m_Images@CMFCToolBar@@1VCMFCToolBarImages@@A; CMFCToolBarImages CMFCToolBar::m_Images
0x0040113d	57	push    edi
0x0040113e	8BF9	mov     edi, ecx
0x00401140	33C9	xor     ecx, ecx
0x00401142	51	push    ecx
0x00401143	51	push    ecx
0x00401144	33C0	xor     eax, eax
0x00401146	50	push    eax
0x00401147	8D45F4	lea     eax, [ebp+var_C]
0x0040114a	50	push    eax
0x0040114b	8BCE	mov     ecx, esi
0x0040114d	FF15F8A14000	call    ds:__imp_?PrepareDrawImage@CMFCToolBarImages@@QAEHAAUtagAFXDrawState@@VCSize@@H@Z; CMFCToolBarImages::PrepareDrawImage(tagAFXDrawState &,CSize,int)
0x00401153	8B4D24	mov     ecx, [ebp+arg_1C]
0x00401156	8B5520	mov     edx, [ebp+arg_18]
0x00401159	8B451C	mov     eax, [ebp+arg_14]
0x0040115c	51	push    ecx
0x0040115d	8B4D18	mov     ecx, [ebp+arg_10]
0x00401160	52	push    edx
0x00401161	8B5514	mov     edx, [ebp+arg_C]
0x00401164	50	push    eax
0x00401165	8B450C	mov     eax, [ebp+arg_4]
0x00401168	51	push    ecx
0x00401169	8B4D08	mov     ecx, [ebp+arg_0]
0x0040116c	52	push    edx
0x0040116d	56	push    esi
0x0040116e	50	push    eax
0x0040116f	51	push    ecx
0x00401170	8BCF	mov     ecx, edi
0x00401172	FF15FCA14000	call    ds:__imp_?OnDraw@CMFCToolBarMenuButton@@UAEXPAVCDC@@ABVCRect@@PAVCMFCToolBarImages@@HHHHH@Z; CMFCToolBarMenuButton::OnDraw(CDC *,CRect const &,CMFCToolBarImages *,int,int,int,int,int)
0x00401178	8D55F4	lea     edx, [ebp+var_C]
0x0040117b	52	push    edx
0x0040117c	8BCE	mov     ecx, esi
0x0040117e	FF1500A24000	call    ds:__imp_?EndDrawImage@CMFCToolBarImages@@QAEXAAUtagAFXDrawState@@@Z; CMFCToolBarImages::EndDrawImage(tagAFXDrawState &)
0x00401184	5F	pop     edi
0x00401185	5E	pop     esi
0x00401186	8BE5	mov     esp, ebp
0x00401188	5D	pop     ebp
0x00401189	C22000	retn    20h
CClassViewMenuButton::_scalar_deleting_destructor_:0x00401190-0x004011b3
0x00401190	55	push    ebp
0x00401191	8BEC	mov     ebp, esp
0x00401193	56	push    esi
0x00401194	8BF1	mov     esi, ecx
0x00401196	FF15F0A14000	call    ds:__imp_??1CMFCToolBarMenuButton@@UAE@XZ; CMFCToolBarMenuButton::~CMFCToolBarMenuButton(void)
0x0040119c	F6450801	test    [ebp+arg_0], 1
0x004011a0	740A	jz      short loc_4011AC
0x004011a2	56	push    esi
0x004011a3	FF15CCAD4000	call    ds:__imp_??3@YAXPAX@Z; operator delete(void *)
0x004011a9	83C404	add     esp, 4
0x004011ac	8BC6	mov     eax, esi
0x004011ae	5E	pop     esi
0x004011af	5D	pop     ebp
0x004011b0	C20400	retn    4
CClassViewMenuButton::_CClassViewMenuButton:0x004011c0-0x004011c6
0x004011c0	FF25F0A14000	jmp     ds:__imp_??1CMFCToolBarMenuButton@@UAE@XZ; CMFCToolBarMenuButton::~CMFCToolBarMenuButton(void)
CClassViewMenuButton::CreateObject:0x004011d0-0x0040122c
0x004011d0	55	push    ebp
0x004011d1	8BEC	mov     ebp, esp
0x004011d3	6AFF	push    0FFFFFFFFh
0x004011d5	68E8924000	push    offset CnotepadView__CreateObject_SEH
0x004011da	64A100000000	mov     eax, large fs:0
0x004011e0	50	push    eax
0x004011e1	64892500000000	mov     large fs:0, esp
0x004011e8	51	push    ecx
0x004011e9	56	push    esi
0x004011ea	68E8000000	push    0E8h
0x004011ef	FF15ACAD4000	call    ds:__imp_??2@YAPAXI@Z; operator new(uint)
0x004011f5	8BF0	mov     esi, eax
0x004011f7	83C404	add     esp, 4
0x004011fa	8975F0	mov     [ebp+var_10], esi
0x004011fd	33C0	xor     eax, eax
0x004011ff	8945FC	mov     [ebp+var_4], eax
0x00401202	3BF0	cmp     esi, eax
0x00401204	7417	jz      short loc_40121D
0x00401206	50	push    eax
0x00401207	50	push    eax
0x00401208	6AFF	push    0FFFFFFFFh
0x0040120a	50	push    eax
0x0040120b	6AFF	push    0FFFFFFFFh
0x0040120d	8BCE	mov     ecx, esi
0x0040120f	FF15ECA14000	call    ds:__imp_??0CMFCToolBarMenuButton@@QAE@IPAUHMENU__@@HPB_WH@Z; CMFCToolBarMenuButton::CMFCToolBarMenuButton(uint,HMENU__ *,int,wchar_t const *,int)
0x00401215	C706FCBC4000	mov     dword ptr [esi], offset ??_7CClassViewMenuButton@@6B@; const CClassViewMenuButton::`vftable'
0x0040121b	8BC6	mov     eax, esi
0x0040121d	8B4DF4	mov     ecx, [ebp+var_C]
0x00401220	5E	pop     esi
0x00401221	64890D00000000	mov     large fs:0, ecx
0x00401228	8BE5	mov     esp, ebp
0x0040122a	5D	pop     ebp
0x0040122b	C3	retn
CClassViewMenuButton::CreateObject:0x004092e0-0x004092e8
0x004092e0	8B45F0	mov     eax, [ebp+var_10]
0x004092e3	E9087EFFFF	jmp     CObject__operator_delete
CClassViewMenuButton::_GetBaseClass:0x00401230-0x00401236
0x00401230	FF2504A24000	jmp     ds:__imp_?GetThisClass@CMFCToolBarMenuButton@@SGPAUCRuntimeClass@@XZ; CMFCToolBarMenuButton::GetThisClass(void)
CClassViewMenuButton::GetRuntimeClass:0x00401240-0x00401246
0x00401240	B874224100	mov     eax, offset CClassViewMenuButton__classCClassViewMenuButton
0x00401245	C3	retn
CClassView::_scalar_deleting_destructor_:0x00401250-0x004012e0
0x00401250	55	push    ebp
0x00401251	8BEC	mov     ebp, esp
0x00401253	6AFF	push    0FFFFFFFFh
0x00401255	68D5934000	push    offset CClassView___CClassView_SEH
0x0040125a	64A100000000	mov     eax, large fs:0
0x00401260	50	push    eax
0x00401261	64892500000000	mov     large fs:0, esp
0x00401268	51	push    ecx
0x00401269	56	push    esi
0x0040126a	8BF1	mov     esi, ecx
0x0040126c	8975F0	mov     [ebp+var_10], esi
0x0040126f	C7064CB94000	mov     dword ptr [esi], offset ??_7CClassView@@6B@; const CClassView::`vftable'
0x00401275	8D8E8C100000	lea     ecx, [esi+108Ch]
0x0040127b	C745FC02000000	mov     [ebp+var_4], 2
0x00401282	FF1518A24000	call    ds:__imp_??1CImageList@@UAE@XZ; CImageList::~CImageList(void)
0x00401288	8D8E18100000	lea     ecx, [esi+1018h]
0x0040128e	C645FC01	mov     byte ptr [ebp+var_4], 1
0x00401292	C70114EC4000	mov     dword ptr [ecx], offset ??_7CViewTree@@6B@; const CViewTree::`vftable'
0x00401298	FF1524AC4000	call    ds:__imp_??1CTreeCtrl@@UAE@XZ; CTreeCtrl::~CTreeCtrl(void)
0x0040129e	8D8E50030000	lea     ecx, [esi+350h]
0x004012a4	C645FC00	mov     byte ptr [ebp+var_4], 0
0x004012a8	FF1520A24000	call    ds:__imp_??1CMFCToolBar@@UAE@XZ; CMFCToolBar::~CMFCToolBar(void)
0x004012ae	8BCE	mov     ecx, esi
0x004012b0	C745FCFFFFFFFF	mov     [ebp+var_4], 0FFFFFFFFh
0x004012b7	FF1510A24000	call    ds:__imp_??1CDockablePane@@UAE@XZ; CDockablePane::~CDockablePane(void)
0x004012bd	F6450801	test    [ebp+arg_0], 1
0x004012c1	740A	jz      short loc_4012CD
0x004012c3	56	push    esi
0x004012c4	FF15CCAD4000	call    ds:__imp_??3@YAXPAX@Z; operator delete(void *)
0x004012ca	83C404	add     esp, 4
0x004012cd	8B4DF4	mov     ecx, [ebp+var_C]
0x004012d0	8BC6	mov     eax, esi
0x004012d2	5E	pop     esi
0x004012d3	64890D00000000	mov     large fs:0, ecx
0x004012da	8BE5	mov     esp, ebp
0x004012dc	5D	pop     ebp
0x004012dd	C20400	retn    4
CClassView::_scalar_deleting_destructor_:0x004093b0-0x004093d5
0x004093b0	8B4DF0	mov     ecx, [ebp+var_10]
0x004093b3	FF2510A24000	jmp     ds:__imp_??1CDockablePane@@UAE@XZ; CDockablePane::~CDockablePane(void)
0x004093b9	8B4DF0	mov     ecx, [ebp+var_10]
0x004093bc	81C150030000	add     ecx, 350h
0x004093c2	E9A9CDFFFF	jmp     CPropertiesToolBar___CPropertiesToolBar
0x004093c7	8B4DF0	mov     ecx, [ebp+var_10]
0x004093ca	81C118100000	add     ecx, 1018h
0x004093d0	E92BE4FFFF	jmp     CViewTree___CViewTree
CClassView::_CClassView:0x004012e0-0x0040135c
0x004012e0	55	push    ebp
0x004012e1	8BEC	mov     ebp, esp
0x004012e3	6AFF	push    0FFFFFFFFh
0x004012e5	68D5934000	push    offset CClassView___CClassView_SEH
0x004012ea	64A100000000	mov     eax, large fs:0
0x004012f0	50	push    eax
0x004012f1	64892500000000	mov     large fs:0, esp
0x004012f8	51	push    ecx
0x004012f9	56	push    esi
0x004012fa	8BF1	mov     esi, ecx
0x004012fc	8975F0	mov     [ebp+var_10], esi
0x004012ff	C7064CB94000	mov     dword ptr [esi], offset ??_7CClassView@@6B@; const CClassView::`vftable'
0x00401305	8D8E8C100000	lea     ecx, [esi+108Ch]
0x0040130b	C745FC02000000	mov     [ebp+var_4], 2
0x00401312	FF1518A24000	call    ds:__imp_??1CImageList@@UAE@XZ; CImageList::~CImageList(void)
0x00401318	8D8E18100000	lea     ecx, [esi+1018h]
0x0040131e	C645FC01	mov     byte ptr [ebp+var_4], 1
0x00401322	C70114EC4000	mov     dword ptr [ecx], offset ??_7CViewTree@@6B@; const CViewTree::`vftable'
0x00401328	FF1524AC4000	call    ds:__imp_??1CTreeCtrl@@UAE@XZ; CTreeCtrl::~CTreeCtrl(void)
0x0040132e	8D8E50030000	lea     ecx, [esi+350h]
0x00401334	C645FC00	mov     byte ptr [ebp+var_4], 0
0x00401338	FF1520A24000	call    ds:__imp_??1CMFCToolBar@@UAE@XZ; CMFCToolBar::~CMFCToolBar(void)
0x0040133e	8BCE	mov     ecx, esi
0x00401340	C745FCFFFFFFFF	mov     [ebp+var_4], 0FFFFFFFFh
0x00401347	FF1510A24000	call    ds:__imp_??1CDockablePane@@UAE@XZ; CDockablePane::~CDockablePane(void)
0x0040134d	8B4DF4	mov     ecx, [ebp+var_C]
0x00401350	5E	pop     esi
0x00401351	64890D00000000	mov     large fs:0, ecx
0x00401358	8BE5	mov     esp, ebp
0x0040135a	5D	pop     ebp
0x0040135b	C3	retn
CClassView::GetMessageMap:0x00401360-0x00401366
0x00401360	B850B24000	mov     eax, offset off_40B250
0x00401365	C3	retn
CClassView::OnCreate:0x00401370-0x004015d4
0x00401370	55	push    ebp
0x00401371	8BEC	mov     ebp, esp
0x00401373	83E4F8	and     esp, 0FFFFFFF8h
0x00401376	64A100000000	mov     eax, large fs:0
0x0040137c	6AFF	push    0FFFFFFFFh
0x0040137e	68869C4000	push    offset CClassView__OnCreate_SEH
0x00401383	50	push    eax
0x00401384	8B4508	mov     eax, [ebp+arg_0]
0x00401387	64892500000000	mov     large fs:0, esp
0x0040138e	81EC08010000	sub     esp, 108h
0x00401394	53	push    ebx
0x00401395	56	push    esi
0x00401396	57	push    edi; lpMenuName
0x00401397	50	push    eax
0x00401398	8BF9	mov     edi, ecx
0x0040139a	FF1528A24000	call    ds:__imp_?OnCreate@CDockablePane@@IAEHPAUtagCREATESTRUCTW@@@Z; CDockablePane::OnCreate(tagCREATESTRUCTW *)
0x004013a0	83F8FF	cmp     eax, 0FFFFFFFFh
0x004013a3	751A	jnz     short loc_4013BF
0x004013a5	83C8FF	or      eax, 0FFFFFFFFh
0x004013a8	8B8C2414010000	mov     ecx, [esp+120h+var_C]
0x004013af	64890D00000000	mov     large fs:0, ecx
0x004013b6	5F	pop     edi
0x004013b7	5E	pop     esi
0x004013b8	5B	pop     ebx
0x004013b9	8BE5	mov     esp, ebp
0x004013bb	5D	pop     ebp
0x004013bc	C20400	retn    4
0x004013bf	33DB	xor     ebx, ebx
0x004013c1	8D4C2418	lea     ecx, [esp+120h+rc]
0x004013c5	51	push    ecx; lprc
0x004013c6	895C241C	mov     [esp+124h+rc.left], ebx
0x004013ca	895C2420	mov     [esp+124h+rc.top], ebx
0x004013ce	895C2424	mov     [esp+124h+rc.right], ebx
0x004013d2	895C2428	mov     [esp+124h+rc.bottom], ebx
0x004013d6	FF1568A14000	call    ds:__imp__SetRectEmpty@4; SetRectEmpty(x)
0x004013dc	6A02	push    2
0x004013de	57	push    edi
0x004013df	8D542420	lea     edx, [esp+128h+rc]
0x004013e3	52	push    edx
0x004013e4	6807000056	push    56000007h
0x004013e9	8D8F18100000	lea     ecx, [edi+1018h]
0x004013ef	FF152CA24000	call    ds:__imp_?Create@CTreeCtrl@@QAEHKABUtagRECT@@PAVCWnd@@I@Z; CTreeCtrl::Create(ulong,tagRECT const &,CWnd *,uint)
0x004013f5	85C0	test    eax, eax
0x004013f7	74AC	jz      short loc_4013A5
0x004013f9	8B8750030000	mov     eax, [edi+350h]
0x004013ff	8B9028030000	mov     edx, [eax+328h]
0x00401405	68AB000000	push    0ABh
0x0040140a	6808284050	push    50402808h
0x0040140f	57	push    edi
0x00401410	8D8F50030000	lea     ecx, [edi+350h]
0x00401416	FFD2	call    edx
0x00401418	8B8750030000	mov     eax, [edi+350h]
0x0040141e	8B9038030000	mov     edx, [eax+338h]
0x00401424	53	push    ebx
0x00401425	53	push    ebx
0x00401426	53	push    ebx
0x00401427	6A01	push    1
0x00401429	53	push    ebx
0x0040142a	53	push    ebx
0x0040142b	68AB000000	push    0ABh
0x00401430	8D8F50030000	lea     ecx, [edi+350h]
0x00401436	FFD2	call    edx
0x00401438	E853090000	call    CClassView__OnChangeVisualStyle
0x0040143d	8B9F50030000	mov     ebx, [edi+350h]
0x00401443	8B83C4010000	mov     eax, [ebx+1C4h]
0x00401449	8D8F50030000	lea     ecx, [edi+350h]
0x0040144f	FFD0	call    eax
0x00401451	8B93E8010000	mov     edx, [ebx+1E8h]
0x00401457	83C830	or      eax, 30h
0x0040145a	50	push    eax
0x0040145b	8D8F50030000	lea     ecx, [edi+350h]
0x00401461	FFD2	call    edx
0x00401463	8B9F50030000	mov     ebx, [edi+350h]
0x00401469	8B83C4010000	mov     eax, [ebx+1C4h]
0x0040146f	8D8F50030000	lea     ecx, [edi+350h]
0x00401475	FFD0	call    eax
0x00401477	8B93E8010000	mov     edx, [ebx+1E8h]
0x0040147d	25FBF0BFFF	and     eax, 0FFBFF0FBh
0x00401482	50	push    eax
0x00401483	8D8F50030000	lea     ecx, [edi+350h]
0x00401489	FFD2	call    edx
0x0040148b	8B4720	mov     eax, [edi+20h]
0x0040148e	33DB	xor     ebx, ebx
0x00401490	8987A4030000	mov     [edi+3A4h], eax
0x00401496	899F900E0000	mov     [edi+0E90h], ebx
0x0040149c	C744240C5CBF4000	mov     dword ptr [esp+120h+var_114], offset ??_7CMenu@@6B@; const CMenu::`vftable'
0x004014a4	895C2410	mov     [esp+120h+hMenu], ebx
0x004014a8	68AD000000	push    0ADh
0x004014ad	6A04	push    4
0x004014af	68AD000000	push    0ADh
0x004014b4	899C2428010000	mov     [esp+12Ch+var_4], ebx
0x004014bb	FF1548A24000	call    ds:__imp_?AfxFindResourceHandle@@YGPAUHINSTANCE__@@PB_W0@Z; AfxFindResourceHandle(wchar_t const *,wchar_t const *)
0x004014c1	50	push    eax; hInstance
0x004014c2	FF1564A14000	call    ds:__imp__LoadMenuW@8; LoadMenuW(x,x)
0x004014c8	50	push    eax
0x004014c9	8D4C2410	lea     ecx, [esp+120h+hMenu]
0x004014cd	FF154CA24000	call    ds:__imp_?Attach@CMenu@@QAEHPAUHMENU__@@@Z; CMenu::Attach(HMENU__ *)
0x004014d3	8B4C2410	mov     ecx, [esp+120h+hMenu]
0x004014d7	53	push    ebx; nPos
0x004014d8	51	push    ecx; hMenu
0x004014d9	FF1560A14000	call    ds:__imp__GetSubMenu@8; GetSubMenu(x,x)
0x004014df	50	push    eax
0x004014e0	FF1554A24000	call    ds:__imp_?FromHandle@CMenu@@SGPAV1@PAUHMENU__@@@Z; CMenu::FromHandle(HMENU__ *)
0x004014e6	3BC3	cmp     eax, ebx
0x004014e8	7504	jnz     short loc_4014EE
0x004014ea	33C0	xor     eax, eax
0x004014ec	EB03	jmp     short loc_4014F1
0x004014ee	8B4004	mov     eax, [eax+4]
0x004014f1	53	push    ebx
0x004014f2	53	push    ebx
0x004014f3	6AFF	push    0FFFFFFFFh
0x004014f5	50	push    eax
0x004014f6	6AFF	push    0FFFFFFFFh
0x004014f8	8D4C243C	lea     ecx, [esp+134h+var_F8]
0x004014fc	FF15ECA14000	call    ds:__imp_??0CMFCToolBarMenuButton@@QAE@IPAUHMENU__@@HPB_WH@Z; CMFCToolBarMenuButton::CMFCToolBarMenuButton(uint,HMENU__ *,int,wchar_t const *,int)
0x00401502	C7442428FCBC4000	mov     dword ptr [esp+120h+var_F8], offset ??_7CClassViewMenuButton@@6B@; const CClassViewMenuButton::`vftable'
0x0040150a	53	push    ebx
0x0040150b	8D54242C	lea     edx, [esp+124h+var_F8]
0x0040150f	52	push    edx
0x00401510	6890000000	push    90h
0x00401515	8D8F50030000	lea     ecx, [edi+350h]
0x0040151b	C684242801000001	mov     byte ptr [esp+12Ch+var_4], 1
0x00401523	FF1550A24000	call    ds:__imp_?ReplaceButton@CMFCToolBar@@QAEHIABVCMFCToolBarButton@@H@Z; CMFCToolBar::ReplaceButton(uint,CMFCToolBarButton const &,int)
0x00401529	8D4C2428	lea     ecx, [esp+120h+var_F8]
0x0040152d	C684241C01000000	mov     byte ptr [esp+120h+var_4], 0
0x00401535	FF15F0A14000	call    ds:__imp_??1CMFCToolBarMenuButton@@UAE@XZ; CMFCToolBarMenuButton::~CMFCToolBarMenuButton(void)
0x0040153b	53	push    ebx
0x0040153c	8D8F50030000	lea     ecx, [edi+350h]
0x00401542	FF155CA24000	call    ds:__imp_?GetButton@CMFCToolBar@@QBEPAVCMFCToolBarButton@@H@Z; CMFCToolBar::GetButton(int)
0x00401548	50	push    eax
0x00401549	6874224100	push    offset CClassViewMenuButton__classCClassViewMenuButton
0x0040154e	FF1558A24000	call    ds:__imp_?AfxDynamicDownCast@@YAPAVCObject@@PAUCRuntimeClass@@PAV1@@Z; AfxDynamicDownCast(CRuntimeClass *,CObject *)
0x00401554	8BF0	mov     esi, eax
0x00401556	83C408	add     esp, 8
0x00401559	3BF3	cmp     esi, ebx
0x0040155b	743B	jz      short loc_401598
0x0040155d	8B06	mov     eax, [esi]
0x0040155f	895E08	mov     [esi+8], ebx
0x00401562	C7460C01000000	mov     dword ptr [esi+0Ch], 1
0x00401569	8B8F94100000	mov     ecx, [edi+1094h]
0x0040156f	53	push    ebx
0x00401570	51	push    ecx
0x00401571	8944241C	mov     [esp+128h+var_10C], eax
0x00401575	FF1568A24000	call    ds:__imp_?GetCmdMgr@@YAPAVCCommandManager@@XZ; GetCmdMgr(void)
0x0040157b	8BC8	mov     ecx, eax
0x0040157d	FF1564A24000	call    ds:__imp_?GetCmdImage@CCommandManager@@QBEHIH@Z; CCommandManager::GetCmdImage(uint,int)
0x00401583	8B542414	mov     edx, [esp+120h+var_10C]
0x00401587	50	push    eax
0x00401588	8B82C4000000	mov     eax, [edx+0C4h]
0x0040158e	8BCE	mov     ecx, esi
0x00401590	FFD0	call    eax
0x00401592	89BEC4000000	mov     [esi+0C4h], edi
0x00401598	57	push    edi
0x00401599	E842000000	call    CClassView__FillClassView
0x0040159e	C784241C010000FFFFFFFF	mov     [esp+120h+var_4], 0FFFFFFFFh
0x004015a9	8D4C240C	lea     ecx, [esp+120h+var_114]
0x004015ad	C744240C5CBF4000	mov     dword ptr [esp+120h+var_114], offset ??_7CMenu@@6B@; const CMenu::`vftable'
0x004015b5	FF1544A24000	call    ds:__imp_?DestroyMenu@CMenu@@QAEHXZ; CMenu::DestroyMenu(void)
0x004015bb	8B8C2414010000	mov     ecx, [esp+120h+var_C]
0x004015c2	5F	pop     edi
0x004015c3	5E	pop     esi
0x004015c4	33C0	xor     eax, eax
0x004015c6	64890D00000000	mov     large fs:0, ecx
0x004015cd	5B	pop     ebx
0x004015ce	8BE5	mov     esp, ebp
0x004015d0	5D	pop     ebp
0x004015d1	C20400	retn    4
CClassView::OnCreate:0x00409c70-0x00409c86
0x00409c70	8D8DECFEFFFF	lea     ecx, [ebp+var_114]
0x00409c76	E9958EFFFF	jmp     CMenu___CMenu
0x00409c7b	8D8D08FFFFFF	lea     ecx, [ebp+var_F8]
0x00409c81	E93A75FFFF	jmp     CClassViewMenuButton___CClassViewMenuButton
CClassView::FillClassView:0x004015e0-0x00401900
0x004015e0	55	push    ebp
0x004015e1	8BEC	mov     ebp, esp
0x004015e3	51	push    ecx
0x004015e4	53	push    ebx
0x004015e5	56	push    esi
0x004015e6	8B7508	mov     esi, [ebp+arg_0]
0x004015e9	57	push    edi
0x004015ea	8B3D70A24000	mov     edi, ds:__imp_?InsertItem@CTreeCtrl@@QAEPAU_TREEITEM@@IPB_WHHIIJPAU2@1@Z; CTreeCtrl::InsertItem(uint,wchar_t const *,int,int,uint,uint,long,_TREEITEM *,_TREEITEM *)
0x004015f0	680200FFFF	push    0FFFF0002h
0x004015f5	680000FFFF	push    0FFFF0000h
0x004015fa	6A00	push    0
0x004015fc	6A00	push    0
0x004015fe	6A00	push    0
0x00401600	6A00	push    0
0x00401602	6A00	push    0
0x00401604	6858B24000	push    offset aFakeapp; "FakeApp "
0x00401609	81C618100000	add     esi, 1018h
0x0040160f	6A23	push    23h
0x00401611	8BCE	mov     ecx, esi
0x00401613	FFD7	call    edi ; CTreeCtrl::InsertItem(uint,wchar_t const *,int,int,uint,uint,long,_TREEITEM *,_TREEITEM *); CTreeCtrl::InsertItem(uint,wchar_t const *,int,int,uint,uint,long,_TREEITEM *,_TREEITEM *)
0x00401615	6A00	push    0
0x00401617	6A10	push    10h
0x00401619	6A10	push    10h
0x0040161b	6A00	push    0
0x0040161d	6A00	push    0
0x0040161f	6A00	push    0
0x00401621	8BD8	mov     ebx, eax
0x00401623	6A08	push    8
0x00401625	53	push    ebx
0x00401626	8BCE	mov     ecx, esi
0x00401628	FF1574A24000	call    ds:__imp_?SetItem@CTreeCtrl@@QAEHPAU_TREEITEM@@IPB_WHHIIJ@Z; CTreeCtrl::SetItem(_TREEITEM *,uint,wchar_t const *,int,int,uint,uint,long)
0x0040162e	680200FFFF	push    0FFFF0002h
0x00401633	53	push    ebx
0x00401634	6A00	push    0
0x00401636	6A00	push    0
0x00401638	6A00	push    0
0x0040163a	6A01	push    1
0x0040163c	6A01	push    1
0x0040163e	686CB24000	push    offset aCfakeaboutdlg_0; "CFakeAboutDlg"
0x00401643	6A23	push    23h
0x00401645	8BCE	mov     ecx, esi
0x00401647	FFD7	call    edi ; CTreeCtrl::InsertItem(uint,wchar_t const *,int,int,uint,uint,long,_TREEITEM *,_TREEITEM *); CTreeCtrl::InsertItem(uint,wchar_t const *,int,int,uint,uint,long,_TREEITEM *,_TREEITEM *)
0x00401649	680200FFFF	push    0FFFF0002h
0x0040164e	50	push    eax
0x0040164f	6A00	push    0
0x00401651	6A00	push    0
0x00401653	6A00	push    0
0x00401655	6A03	push    3
0x00401657	6A03	push    3
0x00401659	6888B24000	push    offset aCfakeaboutdlg; "CFakeAboutDlg()"
0x0040165e	6A23	push    23h
0x00401660	8BCE	mov     ecx, esi
0x00401662	FFD7	call    edi ; CTreeCtrl::InsertItem(uint,wchar_t const *,int,int,uint,uint,long,_TREEITEM *,_TREEITEM *); CTreeCtrl::InsertItem(uint,wchar_t const *,int,int,uint,uint,long,_TREEITEM *,_TREEITEM *)
0x00401664	8B4508	mov     eax, [ebp+arg_0]
0x00401667	8B8838100000	mov     ecx, [eax+1038h]
0x0040166d	53	push    ebx; lParam
0x0040166e	6A02	push    2; wParam
0x00401670	6802110000	push    1102h; Msg
0x00401675	51	push    ecx; hWnd
0x00401676	FF155CA14000	call    ds:__imp__SendMessageW@16; SendMessageW(x,x,x,x)
0x0040167c	680200FFFF	push    0FFFF0002h
0x00401681	53	push    ebx
0x00401682	6A00	push    0
0x00401684	6A00	push    0
0x00401686	6A00	push    0
0x00401688	6A01	push    1
0x0040168a	6A01	push    1
0x0040168c	68A8B24000	push    offset aCfakeapp; "CFakeApp"
0x00401691	6A23	push    23h
0x00401693	8BCE	mov     ecx, esi
0x00401695	FFD7	call    edi ; CTreeCtrl::InsertItem(uint,wchar_t const *,int,int,uint,uint,long,_TREEITEM *,_TREEITEM *); CTreeCtrl::InsertItem(uint,wchar_t const *,int,int,uint,uint,long,_TREEITEM *,_TREEITEM *)
0x00401697	680200FFFF	push    0FFFF0002h
0x0040169c	50	push    eax
0x0040169d	6A00	push    0
0x0040169f	6A00	push    0
0x004016a1	6A00	push    0
0x004016a3	6A03	push    3
0x004016a5	6A03	push    3
0x004016a7	68BCB24000	push    offset aCfakeapp_0; "CFakeApp()"
0x004016ac	6A23	push    23h
0x004016ae	8BCE	mov     ecx, esi
0x004016b0	8945FC	mov     [ebp+lParam], eax
0x004016b3	FFD7	call    edi ; CTreeCtrl::InsertItem(uint,wchar_t const *,int,int,uint,uint,long,_TREEITEM *,_TREEITEM *); CTreeCtrl::InsertItem(uint,wchar_t const *,int,int,uint,uint,long,_TREEITEM *,_TREEITEM *)
0x004016b5	680200FFFF	push    0FFFF0002h
0x004016ba	8B55FC	mov     edx, [ebp+lParam]
0x004016bd	52	push    edx
0x004016be	6A00	push    0
0x004016c0	6A00	push    0
0x004016c2	6A00	push    0
0x004016c4	6A03	push    3
0x004016c6	6A03	push    3
0x004016c8	68D4B24000	push    offset aInitinstance; "InitInstance()"
0x004016cd	6A23	push    23h
0x004016cf	8BCE	mov     ecx, esi
0x004016d1	FFD7	call    edi ; CTreeCtrl::InsertItem(uint,wchar_t const *,int,int,uint,uint,long,_TREEITEM *,_TREEITEM *); CTreeCtrl::InsertItem(uint,wchar_t const *,int,int,uint,uint,long,_TREEITEM *,_TREEITEM *)
0x004016d3	8B45FC	mov     eax, [ebp+lParam]
0x004016d6	680200FFFF	push    0FFFF0002h
0x004016db	50	push    eax
0x004016dc	6A00	push    0
0x004016de	6A00	push    0
0x004016e0	6A00	push    0
0x004016e2	6A03	push    3
0x004016e4	6A03	push    3
0x004016e6	68F4B24000	push    offset aOnappabout; "OnAppAbout()"
0x004016eb	6A23	push    23h
0x004016ed	8BCE	mov     ecx, esi
0x004016ef	FFD7	call    edi ; CTreeCtrl::InsertItem(uint,wchar_t const *,int,int,uint,uint,long,_TREEITEM *,_TREEITEM *); CTreeCtrl::InsertItem(uint,wchar_t const *,int,int,uint,uint,long,_TREEITEM *,_TREEITEM *)
0x004016f1	680200FFFF	push    0FFFF0002h
0x004016f6	53	push    ebx
0x004016f7	6A00	push    0
0x004016f9	6A00	push    0
0x004016fb	6A00	push    0
0x004016fd	6A01	push    1
0x004016ff	6A01	push    1
0x00401701	6810B34000	push    offset aCfakeappdoc; "CFakeAppDoc"
0x00401706	6A23	push    23h
0x00401708	8BCE	mov     ecx, esi
0x0040170a	FFD7	call    edi ; CTreeCtrl::InsertItem(uint,wchar_t const *,int,int,uint,uint,long,_TREEITEM *,_TREEITEM *); CTreeCtrl::InsertItem(uint,wchar_t const *,int,int,uint,uint,long,_TREEITEM *,_TREEITEM *)
0x0040170c	680200FFFF	push    0FFFF0002h
0x00401711	50	push    eax
0x00401712	6A00	push    0
0x00401714	6A00	push    0
0x00401716	6A00	push    0
0x00401718	6A04	push    4
0x0040171a	6A04	push    4
0x0040171c	6828B34000	push    offset aCfakeappdoc_1; "CFakeAppDoc()"
0x00401721	6A23	push    23h
0x00401723	8BCE	mov     ecx, esi
0x00401725	8945FC	mov     [ebp+lParam], eax
0x00401728	FFD7	call    edi ; CTreeCtrl::InsertItem(uint,wchar_t const *,int,int,uint,uint,long,_TREEITEM *,_TREEITEM *); CTreeCtrl::InsertItem(uint,wchar_t const *,int,int,uint,uint,long,_TREEITEM *,_TREEITEM *)
0x0040172a	8B4DFC	mov     ecx, [ebp+lParam]
0x0040172d	680200FFFF	push    0FFFF0002h
0x00401732	51	push    ecx
0x00401733	6A00	push    0
0x00401735	6A00	push    0
0x00401737	6A00	push    0
0x00401739	6A03	push    3
0x0040173b	6A03	push    3
0x0040173d	6844B34000	push    offset aCfakeappdoc_0; "~CFakeAppDoc()"
0x00401742	6A23	push    23h
0x00401744	8BCE	mov     ecx, esi
0x00401746	FFD7	call    edi ; CTreeCtrl::InsertItem(uint,wchar_t const *,int,int,uint,uint,long,_TREEITEM *,_TREEITEM *); CTreeCtrl::InsertItem(uint,wchar_t const *,int,int,uint,uint,long,_TREEITEM *,_TREEITEM *)
0x00401748	8B55FC	mov     edx, [ebp+lParam]
0x0040174b	680200FFFF	push    0FFFF0002h
0x00401750	52	push    edx
0x00401751	6A00	push    0
0x00401753	6A00	push    0
0x00401755	6A00	push    0
0x00401757	6A03	push    3
0x00401759	6A03	push    3
0x0040175b	6864B34000	push    offset aOnnewdocument; "OnNewDocument()"
0x00401760	6A23	push    23h
0x00401762	8BCE	mov     ecx, esi
0x00401764	FFD7	call    edi ; CTreeCtrl::InsertItem(uint,wchar_t const *,int,int,uint,uint,long,_TREEITEM *,_TREEITEM *); CTreeCtrl::InsertItem(uint,wchar_t const *,int,int,uint,uint,long,_TREEITEM *,_TREEITEM *)
0x00401766	680200FFFF	push    0FFFF0002h
0x0040176b	53	push    ebx
0x0040176c	6A00	push    0
0x0040176e	6A00	push    0
0x00401770	6A00	push    0
0x00401772	6A01	push    1
0x00401774	6A01	push    1
0x00401776	6884B34000	push    offset aCfakeappview_1; "CFakeAppView"
0x0040177b	6A23	push    23h
0x0040177d	8BCE	mov     ecx, esi
0x0040177f	FFD7	call    edi ; CTreeCtrl::InsertItem(uint,wchar_t const *,int,int,uint,uint,long,_TREEITEM *,_TREEITEM *); CTreeCtrl::InsertItem(uint,wchar_t const *,int,int,uint,uint,long,_TREEITEM *,_TREEITEM *)
0x00401781	680200FFFF	push    0FFFF0002h
0x00401786	50	push    eax
0x00401787	6A00	push    0
0x00401789	6A00	push    0
0x0040178b	6A00	push    0
0x0040178d	6A04	push    4
0x0040178f	6A04	push    4
0x00401791	68A0B34000	push    offset aCfakeappview; "CFakeAppView()"
0x00401796	6A23	push    23h
0x00401798	8BCE	mov     ecx, esi
0x0040179a	8945FC	mov     [ebp+lParam], eax
0x0040179d	FFD7	call    edi ; CTreeCtrl::InsertItem(uint,wchar_t const *,int,int,uint,uint,long,_TREEITEM *,_TREEITEM *); CTreeCtrl::InsertItem(uint,wchar_t const *,int,int,uint,uint,long,_TREEITEM *,_TREEITEM *)
0x0040179f	8B45FC	mov     eax, [ebp+lParam]
0x004017a2	680200FFFF	push    0FFFF0002h
0x004017a7	50	push    eax
0x004017a8	6A00	push    0
0x004017aa	6A00	push    0
0x004017ac	6A00	push    0
0x004017ae	6A03	push    3
0x004017b0	6A03	push    3
0x004017b2	68C0B34000	push    offset aCfakeappview_0; "~CFakeAppView()"
0x004017b7	6A23	push    23h
0x004017b9	8BCE	mov     ecx, esi
0x004017bb	FFD7	call    edi ; CTreeCtrl::InsertItem(uint,wchar_t const *,int,int,uint,uint,long,_TREEITEM *,_TREEITEM *); CTreeCtrl::InsertItem(uint,wchar_t const *,int,int,uint,uint,long,_TREEITEM *,_TREEITEM *)
0x004017bd	8B4DFC	mov     ecx, [ebp+lParam]
0x004017c0	680200FFFF	push    0FFFF0002h
0x004017c5	51	push    ecx
0x004017c6	6A00	push    0
0x004017c8	6A00	push    0
0x004017ca	6A00	push    0
0x004017cc	6A03	push    3
0x004017ce	6A03	push    3
0x004017d0	68E0B34000	push    offset aGetdocument; "GetDocument()"
0x004017d5	6A23	push    23h
0x004017d7	8BCE	mov     ecx, esi
0x004017d9	FFD7	call    edi ; CTreeCtrl::InsertItem(uint,wchar_t const *,int,int,uint,uint,long,_TREEITEM *,_TREEITEM *); CTreeCtrl::InsertItem(uint,wchar_t const *,int,int,uint,uint,long,_TREEITEM *,_TREEITEM *)
0x004017db	8B55FC	mov     edx, [ebp+lParam]
0x004017de	8B4508	mov     eax, [ebp+arg_0]
0x004017e1	8B8838100000	mov     ecx, [eax+1038h]
0x004017e7	52	push    edx; lParam
0x004017e8	6A02	push    2; wParam
0x004017ea	6802110000	push    1102h; Msg
0x004017ef	51	push    ecx; hWnd
0x004017f0	FF155CA14000	call    ds:__imp__SendMessageW@16; SendMessageW(x,x,x,x)
0x004017f6	680200FFFF	push    0FFFF0002h
0x004017fb	53	push    ebx
0x004017fc	6A00	push    0
0x004017fe	6A00	push    0
0x00401800	6A00	push    0
0x00401802	6A01	push    1
0x00401804	6A01	push    1
0x00401806	68FCB34000	push    offset aCfakeappframe_0; "CFakeAppFrame"
0x0040180b	6A23	push    23h
0x0040180d	8BCE	mov     ecx, esi
0x0040180f	FFD7	call    edi ; CTreeCtrl::InsertItem(uint,wchar_t const *,int,int,uint,uint,long,_TREEITEM *,_TREEITEM *); CTreeCtrl::InsertItem(uint,wchar_t const *,int,int,uint,uint,long,_TREEITEM *,_TREEITEM *)
0x00401811	680200FFFF	push    0FFFF0002h
0x00401816	50	push    eax
0x00401817	6A00	push    0
0x00401819	6A00	push    0
0x0040181b	6A00	push    0
0x0040181d	6A03	push    3
0x0040181f	6A03	push    3
0x00401821	6818B44000	push    offset aCfakeappframe_1; "CFakeAppFrame()"
0x00401826	6A23	push    23h
0x00401828	8BCE	mov     ecx, esi
0x0040182a	8945FC	mov     [ebp+lParam], eax
0x0040182d	FFD7	call    edi ; CTreeCtrl::InsertItem(uint,wchar_t const *,int,int,uint,uint,long,_TREEITEM *,_TREEITEM *); CTreeCtrl::InsertItem(uint,wchar_t const *,int,int,uint,uint,long,_TREEITEM *,_TREEITEM *)
0x0040182f	8B55FC	mov     edx, [ebp+lParam]
0x00401832	680200FFFF	push    0FFFF0002h
0x00401837	52	push    edx
0x00401838	6A00	push    0
0x0040183a	6A00	push    0
0x0040183c	6A00	push    0
0x0040183e	6A03	push    3
0x00401840	6A03	push    3
0x00401842	6838B44000	push    offset aCfakeappframe; "~CFakeAppFrame()"
0x00401847	6A23	push    23h
0x00401849	8BCE	mov     ecx, esi
0x0040184b	FFD7	call    edi ; CTreeCtrl::InsertItem(uint,wchar_t const *,int,int,uint,uint,long,_TREEITEM *,_TREEITEM *); CTreeCtrl::InsertItem(uint,wchar_t const *,int,int,uint,uint,long,_TREEITEM *,_TREEITEM *)
0x0040184d	8B45FC	mov     eax, [ebp+lParam]
0x00401850	680200FFFF	push    0FFFF0002h
0x00401855	50	push    eax
0x00401856	6A00	push    0
0x00401858	6A00	push    0
0x0040185a	6A00	push    0
0x0040185c	6A06	push    6
0x0040185e	6A06	push    6
0x00401860	685CB44000	push    offset aMWndmenubar; "m_wndMenuBar"
0x00401865	6A23	push    23h
0x00401867	8BCE	mov     ecx, esi
0x00401869	FFD7	call    edi ; CTreeCtrl::InsertItem(uint,wchar_t const *,int,int,uint,uint,long,_TREEITEM *,_TREEITEM *); CTreeCtrl::InsertItem(uint,wchar_t const *,int,int,uint,uint,long,_TREEITEM *,_TREEITEM *)
0x0040186b	8B4DFC	mov     ecx, [ebp+lParam]
0x0040186e	680200FFFF	push    0FFFF0002h
0x00401873	51	push    ecx
0x00401874	6A00	push    0
0x00401876	6A00	push    0
0x00401878	6A00	push    0
0x0040187a	6A06	push    6
0x0040187c	6A06	push    6
0x0040187e	6878B44000	push    offset aMWndtoolbar; "m_wndToolBar"
0x00401883	6A23	push    23h
0x00401885	8BCE	mov     ecx, esi
0x00401887	FFD7	call    edi ; CTreeCtrl::InsertItem(uint,wchar_t const *,int,int,uint,uint,long,_TREEITEM *,_TREEITEM *); CTreeCtrl::InsertItem(uint,wchar_t const *,int,int,uint,uint,long,_TREEITEM *,_TREEITEM *)
0x00401889	8B55FC	mov     edx, [ebp+lParam]
0x0040188c	680200FFFF	push    0FFFF0002h
0x00401891	52	push    edx
0x00401892	6A00	push    0
0x00401894	6A00	push    0
0x00401896	6A00	push    0
0x00401898	6A06	push    6
0x0040189a	6A06	push    6
0x0040189c	6894B44000	push    offset aMWndstatusbar; "m_wndStatusBar"
0x004018a1	6A23	push    23h
0x004018a3	8BCE	mov     ecx, esi
0x004018a5	FFD7	call    edi ; CTreeCtrl::InsertItem(uint,wchar_t const *,int,int,uint,uint,long,_TREEITEM *,_TREEITEM *); CTreeCtrl::InsertItem(uint,wchar_t const *,int,int,uint,uint,long,_TREEITEM *,_TREEITEM *)
0x004018a7	680200FFFF	push    0FFFF0002h
0x004018ac	53	push    ebx
0x004018ad	6A00	push    0
0x004018af	6A00	push    0
0x004018b1	6A00	push    0
0x004018b3	6A02	push    2
0x004018b5	6A02	push    2
0x004018b7	68B4B44000	push    offset aGlobals; "Globals"
0x004018bc	6A23	push    23h
0x004018be	8BCE	mov     ecx, esi
0x004018c0	FFD7	call    edi ; CTreeCtrl::InsertItem(uint,wchar_t const *,int,int,uint,uint,long,_TREEITEM *,_TREEITEM *); CTreeCtrl::InsertItem(uint,wchar_t const *,int,int,uint,uint,long,_TREEITEM *,_TREEITEM *)
0x004018c2	680200FFFF	push    0FFFF0002h
0x004018c7	8BD8	mov     ebx, eax
0x004018c9	53	push    ebx
0x004018ca	6A00	push    0
0x004018cc	6A00	push    0
0x004018ce	6A00	push    0
0x004018d0	6A05	push    5
0x004018d2	6A05	push    5
0x004018d4	68C4B44000	push    offset aThefakeapp; "theFakeApp"
0x004018d9	6A23	push    23h
0x004018db	8BCE	mov     ecx, esi
0x004018dd	FFD7	call    edi ; CTreeCtrl::InsertItem(uint,wchar_t const *,int,int,uint,uint,long,_TREEITEM *,_TREEITEM *); CTreeCtrl::InsertItem(uint,wchar_t const *,int,int,uint,uint,long,_TREEITEM *,_TREEITEM *)
0x004018df	8B4508	mov     eax, [ebp+arg_0]
0x004018e2	8B8838100000	mov     ecx, [eax+1038h]
0x004018e8	53	push    ebx; lParam
0x004018e9	6A02	push    2; wParam
0x004018eb	6802110000	push    1102h; Msg
0x004018f0	51	push    ecx; hWnd
0x004018f1	FF155CA14000	call    ds:__imp__SendMessageW@16; SendMessageW(x,x,x,x)
0x004018f7	5F	pop     edi
0x004018f8	5E	pop     esi
0x004018f9	5B	pop     ebx
0x004018fa	8BE5	mov     esp, ebp
0x004018fc	5D	pop     ebp
0x004018fd	C20400	retn    4
CClassView::OnContextMenu:0x00401900-0x00401ad9
0x00401900	55	push    ebp
0x00401901	8BEC	mov     ebp, esp
0x00401903	83E4F8	and     esp, 0FFFFFFF8h
0x00401906	6AFF	push    0FFFFFFFFh
0x00401908	68A0934000	push    offset CClassView__OnContextMenu_SEH
0x0040190d	64A100000000	mov     eax, large fs:0
0x00401913	50	push    eax
0x00401914	64892500000000	mov     large fs:0, esp
0x0040191b	83EC20	sub     esp, 20h
0x0040191e	8B4508	mov     eax, [ebp+arg_0]
0x00401921	53	push    ebx
0x00401922	56	push    esi
0x00401923	8DB118100000	lea     esi, [ecx+1018h]
0x00401929	57	push    edi; lpMenuName
0x0040192a	894C2410	mov     [esp+38h+var_28], ecx
0x0040192e	3BC6	cmp     eax, esi
0x00401930	7423	jz      short loc_401955
0x00401932	8B5510	mov     edx, [ebp+arg_8]
0x00401935	52	push    edx
0x00401936	8B550C	mov     edx, [ebp+arg_4]
0x00401939	52	push    edx
0x0040193a	50	push    eax
0x0040193b	FF1578A24000	call    ds:__imp_?OnContextMenu@CDockablePane@@IAEXPAVCWnd@@VCPoint@@@Z; CDockablePane::OnContextMenu(CWnd *,CPoint)
0x00401941	8B4C242C	mov     ecx, [esp+38h+var_C]
0x00401945	64890D00000000	mov     large fs:0, ecx
0x0040194c	5F	pop     edi
0x0040194d	5E	pop     esi
0x0040194e	5B	pop     ebx
0x0040194f	8BE5	mov     esp, ebp
0x00401951	5D	pop     ebp
0x00401952	C20C00	retn    0Ch
0x00401955	8B450C	mov     eax, [ebp+arg_4]
0x00401958	8B4D10	mov     ecx, [ebp+arg_8]
0x0040195b	33DB	xor     ebx, ebx
0x0040195d	83F8FF	cmp     eax, 0FFFFFFFFh
0x00401960	7505	jnz     short loc_401967
0x00401962	83F9FF	cmp     ecx, 0FFFFFFFFh
0x00401965	7448	jz      short loc_4019AF
0x00401967	89442420	mov     [esp+38h+Point.x], eax
0x0040196b	8D442420	lea     eax, [esp+38h+Point]
0x0040196f	894C2424	mov     [esp+38h+Point.y], ecx
0x00401973	8B4E20	mov     ecx, [esi+20h]
0x00401976	50	push    eax; lpPoint
0x00401977	51	push    ecx; hWnd
0x00401978	FF1558A14000	call    ds:__imp__ScreenToClient@8; ScreenToClient(x,x)
0x0040197e	8B442424	mov     eax, [esp+38h+Point.y]
0x00401982	8B4C2420	mov     ecx, [esp+38h+Point.x]
0x00401986	8D54240C	lea     edx, [esp+38h+var_2C]
0x0040198a	52	push    edx
0x0040198b	50	push    eax
0x0040198c	51	push    ecx
0x0040198d	8BCE	mov     ecx, esi
0x0040198f	895C2418	mov     [esp+44h+var_2C], ebx
0x00401993	FF157CA24000	call    ds:__imp_?HitTest@CTreeCtrl@@QBEPAU_TREEITEM@@VCPoint@@PAI@Z; CTreeCtrl::HitTest(CPoint,uint *)
0x00401999	3BC3	cmp     eax, ebx
0x0040199b	7412	jz      short loc_4019AF
0x0040199d	8B5620	mov     edx, [esi+20h]
0x004019a0	50	push    eax; lParam
0x004019a1	6A09	push    9; wParam
0x004019a3	680B110000	push    110Bh; Msg
0x004019a8	52	push    edx; hWnd
0x004019a9	FF155CA14000	call    ds:__imp__SendMessageW@16; SendMessageW(x,x,x,x)
0x004019af	8BCE	mov     ecx, esi
0x004019b1	FF1580A24000	call    ds:__imp_?SetFocus@CWnd@@QAEPAV1@XZ; CWnd::SetFocus(void)
0x004019b7	C74424185CBF4000	mov     dword ptr [esp+38h+var_20], offset ??_7CMenu@@6B@; const CMenu::`vftable'
0x004019bf	895C241C	mov     [esp+38h+hMenu], ebx
0x004019c3	68AD000000	push    0ADh
0x004019c8	6A04	push    4
0x004019ca	68AD000000	push    0ADh
0x004019cf	895C2440	mov     [esp+44h+var_4], ebx
0x004019d3	FF1548A24000	call    ds:__imp_?AfxFindResourceHandle@@YGPAUHINSTANCE__@@PB_W0@Z; AfxFindResourceHandle(wchar_t const *,wchar_t const *)
0x004019d9	50	push    eax; hInstance
0x004019da	FF1564A14000	call    ds:__imp__LoadMenuW@8; LoadMenuW(x,x)
0x004019e0	50	push    eax
0x004019e1	8D4C241C	lea     ecx, [esp+38h+hMenu]
0x004019e5	FF154CA24000	call    ds:__imp_?Attach@CMenu@@QAEHPAUHMENU__@@@Z; CMenu::Attach(HMENU__ *)
0x004019eb	8B44241C	mov     eax, [esp+38h+hMenu]
0x004019ef	53	push    ebx; nPos
0x004019f0	50	push    eax; hMenu
0x004019f1	FF1560A14000	call    ds:__imp__GetSubMenu@8; GetSubMenu(x,x)
0x004019f7	50	push    eax
0x004019f8	FF1554A24000	call    ds:__imp_?FromHandle@CMenu@@SGPAV1@PAUHMENU__@@@Z; CMenu::FromHandle(HMENU__ *)
0x004019fe	8BF8	mov     edi, eax
0x00401a00	FF1588A24000	call    ds:__imp_?AfxGetThread@@YGPAVCWinThread@@XZ; AfxGetThread(void)
0x00401a06	3BC3	cmp     eax, ebx
0x00401a08	740D	jz      short loc_401A17
0x00401a0a	8B10	mov     edx, [eax]
0x00401a0c	8BC8	mov     ecx, eax
0x00401a0e	8B427C	mov     eax, [edx+7Ch]
0x00401a11	FFD0	call    eax
0x00401a13	8BF0	mov     esi, eax
0x00401a15	EB02	jmp     short loc_401A19
0x00401a17	33F6	xor     esi, esi
0x00401a19	FF158CA24000	call    ds:__imp_?GetThisClass@CMDIFrameWndEx@@SGPAUCRuntimeClass@@XZ; CMDIFrameWndEx::GetThisClass(void)
0x00401a1f	50	push    eax
0x00401a20	8BCE	mov     ecx, esi
0x00401a22	FF1584A24000	call    ds:__imp_?IsKindOf@CObject@@QBEHPBUCRuntimeClass@@@Z; CObject::IsKindOf(CRuntimeClass const *)
0x00401a28	85C0	test    eax, eax
0x00401a2a	747F	jz      short loc_401AAB
0x00401a2c	68C4100000	push    10C4h
0x00401a31	FF15ACAD4000	call    ds:__imp_??2@YAPAXI@Z; operator new(uint)
0x00401a37	83C404	add     esp, 4
0x00401a3a	89442414	mov     [esp+38h+var_24], eax
0x00401a3e	C644243401	mov     byte ptr [esp+38h+var_4], 1
0x00401a43	3BC3	cmp     eax, ebx
0x00401a45	740C	jz      short loc_401A53
0x00401a47	8BC8	mov     ecx, eax
0x00401a49	FF1590A24000	call    ds:__imp_??0CMFCPopupMenu@@QAE@XZ; CMFCPopupMenu::CMFCPopupMenu(void)
0x00401a4f	8BF0	mov     esi, eax
0x00401a51	EB02	jmp     short loc_401A55
0x00401a53	33F6	xor     esi, esi
0x00401a55	6A01	push    1
0x00401a57	885C2438	mov     byte ptr [esp+3Ch+var_4], bl
0x00401a5b	8B4704	mov     eax, [edi+4]
0x00401a5e	8B4D10	mov     ecx, [ebp+arg_8]
0x00401a61	8B16	mov     edx, [esi]
0x00401a63	8B7C2414	mov     edi, [esp+3Ch+var_28]
0x00401a67	8B9210020000	mov     edx, [edx+210h]
0x00401a6d	53	push    ebx
0x00401a6e	50	push    eax
0x00401a6f	8B450C	mov     eax, [ebp+arg_4]
0x00401a72	51	push    ecx
0x00401a73	50	push    eax
0x00401a74	57	push    edi
0x00401a75	8BCE	mov     ecx, esi
0x00401a77	FFD2	call    edx
0x00401a79	85C0	test    eax, eax
0x00401a7b	742E	jz      short loc_401AAB
0x00401a7d	FF1588A24000	call    ds:__imp_?AfxGetThread@@YGPAVCWinThread@@XZ; AfxGetThread(void)
0x00401a83	3BC3	cmp     eax, ebx
0x00401a85	740B	jz      short loc_401A92
0x00401a87	8B10	mov     edx, [eax]
0x00401a89	8BC8	mov     ecx, eax
0x00401a8b	8B427C	mov     eax, [edx+7Ch]
0x00401a8e	FFD0	call    eax
0x00401a90	EB02	jmp     short loc_401A94
0x00401a92	33C0	xor     eax, eax
0x00401a94	8B10	mov     edx, [eax]
0x00401a96	8BC8	mov     ecx, eax
0x00401a98	8B82E4010000	mov     eax, [edx+1E4h]
0x00401a9e	56	push    esi
0x00401a9f	FFD0	call    eax
0x00401aa1	53	push    ebx
0x00401aa2	57	push    edi
0x00401aa3	8BCF	mov     ecx, edi
0x00401aa5	FF1594A24000	call    ds:__imp_?UpdateDialogControls@CWnd@@QAEXPAVCCmdTarget@@H@Z; CWnd::UpdateDialogControls(CCmdTarget *,int)
0x00401aab	C7442434FFFFFFFF	mov     [esp+38h+var_4], 0FFFFFFFFh
0x00401ab3	8D4C2418	lea     ecx, [esp+38h+var_20]
0x00401ab7	C74424185CBF4000	mov     dword ptr [esp+38h+var_20], offset ??_7CMenu@@6B@; const CMenu::`vftable'
0x00401abf	FF1544A24000	call    ds:__imp_?DestroyMenu@CMenu@@QAEHXZ; CMenu::DestroyMenu(void)
0x00401ac5	8B4C242C	mov     ecx, [esp+38h+var_C]
0x00401ac9	5F	pop     edi
0x00401aca	5E	pop     esi
0x00401acb	64890D00000000	mov     large fs:0, ecx
0x00401ad2	5B	pop     ebx
0x00401ad3	8BE5	mov     esp, ebp
0x00401ad5	5D	pop     ebp
0x00401ad6	C20C00	retn    0Ch
CClassView::OnContextMenu:0x00409390-0x004093a0
0x00409390	8D4DE0	lea     ecx, [ebp+var_20]
0x00409393	E97897FFFF	jmp     CMenu___CMenu
0x00409398	8B45DC	mov     eax, [ebp+var_24]
0x0040939b	E9507DFFFF	jmp     CObject__operator_delete
CClassView::AdjustLayout:0x00401ae0-0x00401ba6
0x00401ae0	55	push    ebp
0x00401ae1	8BEC	mov     ebp, esp
0x00401ae3	83E4F8	and     esp, 0FFFFFFF8h
0x00401ae6	83EC1C	sub     esp, 1Ch
0x00401ae9	53	push    ebx
0x00401aea	56	push    esi
0x00401aeb	57	push    edi
0x00401aec	8BD9	mov     ebx, ecx
0x00401aee	33FF	xor     edi, edi
0x00401af0	3BDF	cmp     ebx, edi
0x00401af2	0F84A7000000	jz      loc_401B9F
0x00401af8	8B4320	mov     eax, [ebx+20h]
0x00401afb	3BC7	cmp     eax, edi
0x00401afd	0F849C000000	jz      loc_401B9F
0x00401b03	8D4C2418	lea     ecx, [esp+28h+Rect]
0x00401b07	51	push    ecx; lpRect
0x00401b08	50	push    eax; hWnd
0x00401b09	897C2420	mov     [esp+30h+Rect.left], edi
0x00401b0d	897C2424	mov     [esp+30h+Rect.top], edi
0x00401b11	897C2428	mov     [esp+30h+Rect.right], edi
0x00401b15	897C242C	mov     [esp+30h+Rect.bottom], edi
0x00401b19	FF1554A14000	call    ds:__imp__GetClientRect@8; GetClientRect(x,x)
0x00401b1f	8B9350030000	mov     edx, [ebx+350h]
0x00401b25	8B9264020000	mov     edx, [edx+264h]
0x00401b2b	6A01	push    1
0x00401b2d	57	push    edi
0x00401b2e	8D442418	lea     eax, [esp+30h+var_18]
0x00401b32	50	push    eax
0x00401b33	8D8B50030000	lea     ecx, [ebx+350h]
0x00401b39	FFD2	call    edx
0x00401b3b	8B7804	mov     edi, [eax+4]
0x00401b3e	8B442418	mov     eax, [esp+28h+Rect.left]
0x00401b42	8B4C2420	mov     ecx, [esp+28h+Rect.right]
0x00401b46	8B9350030000	mov     edx, [ebx+350h]
0x00401b4c	8B923C020000	mov     edx, [edx+23Ch]
0x00401b52	6A00	push    0
0x00401b54	6A14	push    14h
0x00401b56	57	push    edi
0x00401b57	2BC8	sub     ecx, eax
0x00401b59	51	push    ecx
0x00401b5a	8B4C242C	mov     ecx, [esp+38h+Rect.top]
0x00401b5e	51	push    ecx
0x00401b5f	50	push    eax
0x00401b60	6A00	push    0
0x00401b62	8D8B50030000	lea     ecx, [ebx+350h]
0x00401b68	FFD2	call    edx
0x00401b6a	8B44241C	mov     eax, [esp+28h+Rect.top]
0x00401b6e	8B4C2424	mov     ecx, [esp+28h+Rect.bottom]
0x00401b72	8B542420	mov     edx, [esp+28h+Rect.right]
0x00401b76	2BC8	sub     ecx, eax
0x00401b78	2BCF	sub     ecx, edi
0x00401b7a	6A14	push    14h
0x00401b7c	83E902	sub     ecx, 2
0x00401b7f	51	push    ecx
0x00401b80	8B4C2420	mov     ecx, [esp+30h+Rect.left]
0x00401b84	2BD1	sub     edx, ecx
0x00401b86	83EA02	sub     edx, 2
0x00401b89	52	push    edx
0x00401b8a	8D443801	lea     eax, [eax+edi+1]
0x00401b8e	50	push    eax
0x00401b8f	41	inc     ecx
0x00401b90	51	push    ecx
0x00401b91	6A00	push    0
0x00401b93	8D8B18100000	lea     ecx, [ebx+1018h]
0x00401b99	FF15A0A24000	call    ds:__imp_?SetWindowPos@CWnd@@QAEHPBV1@HHHHI@Z; CWnd::SetWindowPos(CWnd const *,int,int,int,int,uint)
0x00401b9f	5F	pop     edi
0x00401ba0	5E	pop     esi
0x00401ba1	5B	pop     ebx
0x00401ba2	8BE5	mov     esp, ebp
0x00401ba4	5D	pop     ebp
0x00401ba5	C3	retn
CClassView::PreTranslateMessage:0x00401bb0-0x00401bba
0x00401bb0	55	push    ebp
0x00401bb1	8BEC	mov     ebp, esp
0x00401bb3	5D	pop     ebp
0x00401bb4	FF25A4A24000	jmp     ds:__imp_?PreTranslateMessage@CDockablePane@@UAEHPAUtagMSG@@@Z; CDockablePane::PreTranslateMessage(tagMSG *)
CClassView::OnSort:0x00401bc0-0x00401c45
0x00401bc0	55	push    ebp
0x00401bc1	8BEC	mov     ebp, esp
0x00401bc3	53	push    ebx
0x00401bc4	8B5D08	mov     ebx, [ebp+arg_0]
0x00401bc7	56	push    esi
0x00401bc8	8BF1	mov     esi, ecx
0x00401bca	399E94100000	cmp     [esi+1094h], ebx
0x00401bd0	746D	jz      short loc_401C3F
0x00401bd2	57	push    edi
0x00401bd3	6A00	push    0
0x00401bd5	8D8E50030000	lea     ecx, [esi+350h]
0x00401bdb	899E94100000	mov     [esi+1094h], ebx
0x00401be1	FF155CA24000	call    ds:__imp_?GetButton@CMFCToolBar@@QBEPAVCMFCToolBarButton@@H@Z; CMFCToolBar::GetButton(int)
0x00401be7	50	push    eax
0x00401be8	6874224100	push    offset CClassViewMenuButton__classCClassViewMenuButton
0x00401bed	FF1558A24000	call    ds:__imp_?AfxDynamicDownCast@@YAPAVCObject@@PAUCRuntimeClass@@PAV1@@Z; AfxDynamicDownCast(CRuntimeClass *,CObject *)
0x00401bf3	8BF8	mov     edi, eax
0x00401bf5	83C408	add     esp, 8
0x00401bf8	85FF	test    edi, edi
0x00401bfa	7442	jz      short loc_401C3E
0x00401bfc	8B07	mov     eax, [edi]
0x00401bfe	6A00	push    0
0x00401c00	53	push    ebx
0x00401c01	894508	mov     [ebp+arg_0], eax
0x00401c04	FF1568A24000	call    ds:__imp_?GetCmdMgr@@YAPAVCCommandManager@@XZ; GetCmdMgr(void)
0x00401c0a	8BC8	mov     ecx, eax
0x00401c0c	FF1564A24000	call    ds:__imp_?GetCmdImage@CCommandManager@@QBEHIH@Z; CCommandManager::GetCmdImage(uint,int)
0x00401c12	8B5508	mov     edx, [ebp+arg_0]
0x00401c15	50	push    eax
0x00401c16	8B82C4000000	mov     eax, [edx+0C4h]
0x00401c1c	8BCF	mov     ecx, edi
0x00401c1e	FFD0	call    eax
0x00401c20	8B8E70030000	mov     ecx, [esi+370h]
0x00401c26	6A01	push    1; bErase
0x00401c28	6A00	push    0; lpRect
0x00401c2a	51	push    ecx; hWnd
0x00401c2b	FF1550A14000	call    ds:__imp__InvalidateRect@12; InvalidateRect(x,x,x)
0x00401c31	8B9670030000	mov     edx, [esi+370h]
0x00401c37	52	push    edx; hWnd
0x00401c38	FF154CA14000	call    ds:__imp__UpdateWindow@4; UpdateWindow(x)
0x00401c3e	5F	pop     edi
0x00401c3f	5E	pop     esi
0x00401c40	5B	pop     ebx
0x00401c41	5D	pop     ebp
0x00401c42	C20400	retn    4
CClassView::OnUpdateSort:0x00401c50-0x00401c76
0x00401c50	55	push    ebp
0x00401c51	8BEC	mov     ebp, esp
0x00401c53	8B4508	mov     eax, [ebp+arg_0]
0x00401c56	8B10	mov     edx, [eax]
0x00401c58	53	push    ebx
0x00401c59	56	push    esi
0x00401c5a	8B7004	mov     esi, [eax+4]
0x00401c5d	33DB	xor     ebx, ebx
0x00401c5f	3BB194100000	cmp     esi, [ecx+1094h]
0x00401c65	8BC8	mov     ecx, eax
0x00401c67	8B4204	mov     eax, [edx+4]
0x00401c6a	0F94C3	setz    bl
0x00401c6d	53	push    ebx
0x00401c6e	FFD0	call    eax
0x00401c70	5E	pop     esi
0x00401c71	5B	pop     ebx
0x00401c72	5D	pop     ebp
0x00401c73	C20400	retn    4
CClassView::OnClassAddMemberFunction:0x00401c80-0x00401c90
0x00401c80	6A00	push    0
0x00401c82	6A00	push    0
0x00401c84	68DCB44000	push    offset unk_40B4DC
0x00401c89	FF15A8A24000	call    ds:__imp_?AfxMessageBox@@YGHPB_WII@Z; AfxMessageBox(wchar_t const *,uint,uint)
0x00401c8f	C3	retn
CClassView::OnNewFolder:0x00401c90-0x00401ca0
0x00401c90	6A00	push    0
0x00401c92	6A00	push    0
0x00401c94	68F0B44000	push    offset unk_40B4F0
0x00401c99	FF15A8A24000	call    ds:__imp_?AfxMessageBox@@YGHPB_WII@Z; AfxMessageBox(wchar_t const *,uint,uint)
0x00401c9f	C3	retn
CClassView::OnPaint:0x00401ca0-0x00401d51
0x00401ca0	55	push    ebp
0x00401ca1	8BEC	mov     ebp, esp
0x00401ca3	83E4F8	and     esp, 0FFFFFFF8h
0x00401ca6	6AFF	push    0FFFFFFFFh
0x00401ca8	6849934000	push    offset CFileView__OnPaint_SEH
0x00401cad	64A100000000	mov     eax, large fs:0
0x00401cb3	50	push    eax
0x00401cb4	64892500000000	mov     large fs:0, esp
0x00401cbb	83EC70	sub     esp, 70h
0x00401cbe	56	push    esi
0x00401cbf	8BF1	mov     esi, ecx
0x00401cc1	56	push    esi
0x00401cc2	8D4C241C	lea     ecx, [esp+84h+var_68]
0x00401cc6	FF15ACA24000	call    ds:__imp_??0CPaintDC@@QAE@PAVCWnd@@@Z; CPaintDC::CPaintDC(CWnd *)
0x00401ccc	33C0	xor     eax, eax
0x00401cce	8944247C	mov     [esp+80h+var_4], eax
0x00401cd2	8B8E38100000	mov     ecx, [esi+1038h]
0x00401cd8	89442408	mov     [esp+80h+Rect.left], eax
0x00401cdc	8944240C	mov     [esp+80h+Rect.top], eax
0x00401ce0	89442410	mov     [esp+80h+Rect.right], eax
0x00401ce4	89442414	mov     [esp+80h+Rect.bottom], eax
0x00401ce8	8D442408	lea     eax, [esp+80h+Rect]
0x00401cec	50	push    eax; lpRect
0x00401ced	51	push    ecx; hWnd
0x00401cee	FF1548A14000	call    ds:__imp__GetWindowRect@8; GetWindowRect(x,x)
0x00401cf4	8D542408	lea     edx, [esp+80h+Rect]
0x00401cf8	52	push    edx
0x00401cf9	8BCE	mov     ecx, esi
0x00401cfb	FF15B4A24000	call    ds:__imp_?ScreenToClient@CWnd@@QBEXPAUtagRECT@@@Z; CWnd::ScreenToClient(tagRECT *)
0x00401d01	6A01	push    1; dy
0x00401d03	6A01	push    1; dx
0x00401d05	8D442410	lea     eax, [esp+88h+Rect]
0x00401d09	50	push    eax; lprc
0x00401d0a	FF1544A14000	call    ds:__imp__InflateRect@12; InflateRect(x,x,x)
0x00401d10	8B3540A14000	mov     esi, ds:__imp__GetSysColor@4; GetSysColor(x)
0x00401d16	6A10	push    10h; nIndex
0x00401d18	FFD6	call    esi ; GetSysColor(x); GetSysColor(x)
0x00401d1a	50	push    eax
0x00401d1b	6A10	push    10h; nIndex
0x00401d1d	FFD6	call    esi ; GetSysColor(x); GetSysColor(x)
0x00401d1f	50	push    eax
0x00401d20	8D4C2410	lea     ecx, [esp+88h+Rect]
0x00401d24	51	push    ecx
0x00401d25	8D4C2424	lea     ecx, [esp+8Ch+var_68]
0x00401d29	FF15B8A24000	call    ds:__imp_?Draw3dRect@CDC@@QAEXPBUtagRECT@@KK@Z; CDC::Draw3dRect(tagRECT const *,ulong,ulong)
0x00401d2f	8D4C2418	lea     ecx, [esp+80h+var_68]
0x00401d33	C744247CFFFFFFFF	mov     [esp+80h+var_4], 0FFFFFFFFh
0x00401d3b	FF15B0A24000	call    ds:__imp_??1CPaintDC@@UAE@XZ; CPaintDC::~CPaintDC(void)
0x00401d41	8B4C2474	mov     ecx, [esp+80h+var_C]
0x00401d45	64890D00000000	mov     large fs:0, ecx
0x00401d4c	5E	pop     esi
0x00401d4d	8BE5	mov     esp, ebp
0x00401d4f	5D	pop     ebp
0x00401d50	C3	retn
CClassView::OnPaint:0x00409340-0x00409349
0x00409340	8D4D98	lea     ecx, [ebp+var_68]
0x00409343	FF25B0A24000	jmp     ds:__imp_??1CPaintDC@@UAE@XZ; CPaintDC::~CPaintDC(void)
CClassView::OnSetFocus:0x00401d60-0x00401d81
0x00401d60	55	push    ebp
0x00401d61	8BEC	mov     ebp, esp
0x00401d63	8B4508	mov     eax, [ebp+arg_0]
0x00401d66	56	push    esi
0x00401d67	50	push    eax
0x00401d68	8BF1	mov     esi, ecx
0x00401d6a	FF15BCA24000	call    ds:__imp_?OnSetFocus@CDockablePane@@IAEXPAVCWnd@@@Z; CDockablePane::OnSetFocus(CWnd *)
0x00401d70	8D8E18100000	lea     ecx, [esi+1018h]
0x00401d76	FF1580A24000	call    ds:__imp_?SetFocus@CWnd@@QAEPAV1@XZ; CWnd::SetFocus(void)
0x00401d7c	5E	pop     esi
0x00401d7d	5D	pop     ebp
0x00401d7e	C20400	retn    4
CClassView::OnChangeVisualStyle:0x00401d90-0x00401ee0
0x00401d90	55	push    ebp
0x00401d91	8BEC	mov     ebp, esp
0x00401d93	6AFF	push    0FFFFFFFFh
0x00401d95	68989C4000	push    offset CFileView__OnChangeVisualStyle_SEH
0x00401d9a	64A100000000	mov     eax, large fs:0
0x00401da0	50	push    eax
0x00401da1	64892500000000	mov     large fs:0, esp
0x00401da8	83EC20	sub     esp, 20h
0x00401dab	56	push    esi; lpBitmapName
0x00401dac	8DB78C100000	lea     esi, [edi+108Ch]
0x00401db2	8BCE	mov     ecx, esi
0x00401db4	FF15C0A24000	call    ds:__imp_?DeleteImageList@CImageList@@QAEHXZ; CImageList::DeleteImageList(void)
0x00401dba	33C0	xor     eax, eax
0x00401dbc	3905202B4100	cmp     dword_412B20, eax
0x00401dc2	C745F000000000	mov     [ebp+h], 0
0x00401dc9	0F95C0	setnz   al
0x00401dcc	C745EC44BF4000	mov     [ebp+var_14], offset ??_7CBitmap@@6B@; const CBitmap::`vftable'
0x00401dd3	05B1000000	add     eax, 0B1h
0x00401dd8	0FB7C0	movzx   eax, ax
0x00401ddb	50	push    eax
0x00401ddc	6A02	push    2
0x00401dde	50	push    eax
0x00401ddf	C745FC00000000	mov     [ebp+var_4], 0
0x00401de6	FF1548A24000	call    ds:__imp_?AfxFindResourceHandle@@YGPAUHINSTANCE__@@PB_W0@Z; AfxFindResourceHandle(wchar_t const *,wchar_t const *)
0x00401dec	50	push    eax; hInstance
0x00401ded	FF153CA14000	call    ds:__imp__LoadBitmapW@8; LoadBitmapW(x,x)
0x00401df3	50	push    eax
0x00401df4	8D4DEC	lea     ecx, [ebp+var_14]
0x00401df7	FF15DCA24000	call    ds:__imp_?Attach@CGdiObject@@QAEHPAX@Z; CGdiObject::Attach(void *)
0x00401dfd	85C0	test    eax, eax
0x00401dff	0F84B6000000	jz      loc_401EBB
0x00401e05	8B4DF0	mov     ecx, [ebp+h]
0x00401e08	8D45D4	lea     eax, [ebp+pv]
0x00401e0b	50	push    eax; pv
0x00401e0c	6A18	push    18h; c
0x00401e0e	51	push    ecx; h
0x00401e0f	FF1514A04000	call    ds:__imp__GetObjectW@12; GetObjectW(x,x,x)
0x00401e15	A1202B4100	mov     eax, dword_412B20
0x00401e1a	8B55DC	mov     edx, [ebp+var_24]
0x00401e1d	F7D8	neg     eax
0x00401e1f	1BC0	sbb     eax, eax
0x00401e21	83E014	and     eax, 14h
0x00401e24	6A00	push    0
0x00401e26	83C004	add     eax, 4
0x00401e29	6A00	push    0
0x00401e2b	83C801	or      eax, 1
0x00401e2e	50	push    eax
0x00401e2f	52	push    edx
0x00401e30	6A10	push    10h
0x00401e32	8BCE	mov     ecx, esi
0x00401e34	FF15E0A24000	call    ds:__imp_?Create@CImageList@@QAEHHHIHH@Z; CImageList::Create(int,int,uint,int,int)
0x00401e3a	8B4DF0	mov     ecx, [ebp+h]
0x00401e3d	8B8790100000	mov     eax, [edi+1090h]
0x00401e43	68FF000000	push    0FFh
0x00401e48	51	push    ecx
0x00401e49	50	push    eax
0x00401e4a	FF15E4A24000	call    ds:__imp_?AfxGetModuleState@@YGPAVAFX_MODULE_STATE@@XZ; AfxGetModuleState(void)
0x00401e50	8B9094000000	mov     edx, [eax+94h]
0x00401e56	8B0A	mov     ecx, [edx]
0x00401e58	E8630A0000	call    CComCtlWrapper___ImageList_AddMasked
0x00401e5d	85F6	test    esi, esi
0x00401e5f	7403	jz      short loc_401E64
0x00401e61	8B7604	mov     esi, [esi+4]
0x00401e64	8B8738100000	mov     eax, [edi+1038h]
0x00401e6a	56	push    esi; lParam
0x00401e6b	6A00	push    0; wParam
0x00401e6d	6809110000	push    1109h; Msg
0x00401e72	50	push    eax; hWnd
0x00401e73	FF155CA14000	call    ds:__imp__SendMessageW@16; SendMessageW(x,x,x,x)
0x00401e79	50	push    eax
0x00401e7a	FF15ECA24000	call    ds:__imp_?FromHandle@CImageList@@SGPAV1@PAU_IMAGELIST@@@Z; CImageList::FromHandle(_IMAGELIST *)
0x00401e80	8D8F50030000	lea     ecx, [edi+350h]
0x00401e86	FF15F0A24000	call    ds:__imp_?CleanUpLockedImages@CMFCToolBar@@QAEXXZ; CMFCToolBar::CleanUpLockedImages(void)
0x00401e8c	8B9750030000	mov     edx, [edi+350h]
0x00401e92	8B9234030000	mov     edx, [edx+334h]
0x00401e98	33C0	xor     eax, eax
0x00401e9a	3905202B4100	cmp     dword_412B20, eax
0x00401ea0	6A00	push    0
0x00401ea2	6A00	push    0
0x00401ea4	0F95C0	setnz   al
0x00401ea7	6A01	push    1
0x00401ea9	6A00	push    0
0x00401eab	6A00	push    0
0x00401ead	8D8F50030000	lea     ecx, [edi+350h]
0x00401eb3	05AB000000	add     eax, 0ABh
0x00401eb8	50	push    eax
0x00401eb9	FFD2	call    edx
0x00401ebb	C745FCFFFFFFFF	mov     [ebp+var_4], 0FFFFFFFFh
0x00401ec2	8D4DEC	lea     ecx, [ebp+var_14]
0x00401ec5	C745EC44BF4000	mov     [ebp+var_14], offset ??_7CBitmap@@6B@; const CBitmap::`vftable'
0x00401ecc	E81F0B0000	call    CGdiObject___CGdiObject
0x00401ed1	8B4DF4	mov     ecx, [ebp+var_C]
0x00401ed4	64890D00000000	mov     large fs:0, ecx
0x00401edb	5E	pop     esi
0x00401edc	8BE5	mov     esp, ebp
0x00401ede	5D	pop     ebp
0x00401edf	C3	retn
CClassView::OnChangeVisualStyle:0x00409c90-0x00409c98
0x00409c90	8D4DEC	lea     ecx, [ebp+var_14]
0x00409c93	E9188DFFFF	jmp     CBitmap___CBitmap
CMFCToolBarMenuButton::IsTearOffMenu:0x00401ee0-0x00401eec
0x00401ee0	33C0	xor     eax, eax
0x00401ee2	3981BC000000	cmp     [ecx+0BCh], eax
0x00401ee8	0F95C0	setnz   al
0x00401eeb	C3	retn
CMFCToolBarMenuButton::CreatePopupMenu:0x00401ef0-0x00401f4b
0x00401ef0	55	push    ebp
0x00401ef1	8BEC	mov     ebp, esp
0x00401ef3	6AFF	push    0FFFFFFFFh
0x00401ef5	68E8924000	push    offset CnotepadView__CreateObject_SEH
0x00401efa	64A100000000	mov     eax, large fs:0
0x00401f00	50	push    eax
0x00401f01	64892500000000	mov     large fs:0, esp
0x00401f08	51	push    ecx
0x00401f09	68C4100000	push    10C4h
0x00401f0e	FF15ACAD4000	call    ds:__imp_??2@YAPAXI@Z; operator new(uint)
0x00401f14	83C404	add     esp, 4
0x00401f17	8945F0	mov     [ebp+var_10], eax
0x00401f1a	C745FC00000000	mov     [ebp+var_4], 0
0x00401f21	85C0	test    eax, eax
0x00401f23	7416	jz      short loc_401F3B
0x00401f25	8BC8	mov     ecx, eax
0x00401f27	FF1590A24000	call    ds:__imp_??0CMFCPopupMenu@@QAE@XZ; CMFCPopupMenu::CMFCPopupMenu(void)
0x00401f2d	8B4DF4	mov     ecx, [ebp+var_C]
0x00401f30	64890D00000000	mov     large fs:0, ecx
0x00401f37	8BE5	mov     esp, ebp
0x00401f39	5D	pop     ebp
0x00401f3a	C3	retn
0x00401f3b	8B4DF4	mov     ecx, [ebp+var_C]
0x00401f3e	33C0	xor     eax, eax
0x00401f40	64890D00000000	mov     large fs:0, ecx
0x00401f47	8BE5	mov     esp, ebp
0x00401f49	5D	pop     ebp
0x00401f4a	C3	retn
CMFCToolBarMenuButton::CreatePopupMenu:0x004092e0-0x004092e8
0x004092e0	8B45F0	mov     eax, [ebp+var_10]
0x004092e3	E9087EFFFF	jmp     CObject__operator_delete
CMFCToolBarButton::IsExtraSize:0x00401f50-0x00401f54
0x00401f50	8B4148	mov     eax, [ecx+48h]
0x00401f53	C3	retn
CMFCToolBarButton::OnUpdateToolTip:0x00401f60-0x00401f65
0x00401f60	33C0	xor     eax, eax
0x00401f62	C21000	retn    10h
CMFCToolBarButton::HasFocus:0x00401f70-0x00401fa6
0x00401f70	8B01	mov     eax, [ecx]
0x00401f72	8B5040	mov     edx, [eax+40h]
0x00401f75	56	push    esi
0x00401f76	57	push    edi
0x00401f77	FFD2	call    edx
0x00401f79	8BF0	mov     esi, eax
0x00401f7b	85F6	test    esi, esi
0x00401f7d	7422	jz      short loc_401FA1
0x00401f7f	8B3D30A14000	mov     edi, ds:__imp__GetFocus@0; GetFocus()
0x00401f85	FFD7	call    edi ; GetFocus(); GetFocus()
0x00401f87	3BF0	cmp     esi, eax
0x00401f89	740E	jz      short loc_401F99
0x00401f8b	FFD7	call    edi ; GetFocus(); GetFocus()
0x00401f8d	50	push    eax; hWnd
0x00401f8e	56	push    esi; hWndParent
0x00401f8f	FF1534A14000	call    ds:__imp__IsChild@8; IsChild(x,x)
0x00401f95	85C0	test    eax, eax
0x00401f97	7408	jz      short loc_401FA1
0x00401f99	5F	pop     edi
0x00401f9a	B801000000	mov     eax, 1
0x00401f9f	5E	pop     esi
0x00401fa0	C3	retn
0x00401fa1	5F	pop     edi
0x00401fa2	33C0	xor     eax, eax
0x00401fa4	5E	pop     esi
0x00401fa5	C3	retn
CMFCToolBarButton::IsOwnerOf:0x00401fb0-0x00401ff7
0x00401fb0	55	push    ebp
0x00401fb1	8BEC	mov     ebp, esp
0x00401fb3	56	push    esi
0x00401fb4	8BF1	mov     esi, ecx
0x00401fb6	8B06	mov     eax, [esi]
0x00401fb8	8B5040	mov     edx, [eax+40h]
0x00401fbb	FFD2	call    edx
0x00401fbd	85C0	test    eax, eax
0x00401fbf	742F	jz      short loc_401FF0
0x00401fc1	8B06	mov     eax, [esi]
0x00401fc3	8B5040	mov     edx, [eax+40h]
0x00401fc6	8BCE	mov     ecx, esi
0x00401fc8	FFD2	call    edx
0x00401fca	8B4D08	mov     ecx, [ebp+hWnd]
0x00401fcd	3BC1	cmp     eax, ecx
0x00401fcf	7415	jz      short loc_401FE6
0x00401fd1	8B06	mov     eax, [esi]
0x00401fd3	8B5040	mov     edx, [eax+40h]
0x00401fd6	51	push    ecx; hWnd
0x00401fd7	8BCE	mov     ecx, esi
0x00401fd9	FFD2	call    edx
0x00401fdb	50	push    eax; hWndParent
0x00401fdc	FF1534A14000	call    ds:__imp__IsChild@8; IsChild(x,x)
0x00401fe2	85C0	test    eax, eax
0x00401fe4	740A	jz      short loc_401FF0
0x00401fe6	B801000000	mov     eax, 1
0x00401feb	5E	pop     esi
0x00401fec	5D	pop     ebp
0x00401fed	C20400	retn    4
0x00401ff0	33C0	xor     eax, eax
0x00401ff2	5E	pop     esi
0x00401ff3	5D	pop     ebp
0x00401ff4	C20400	retn    4
CMFCToolBarButton::IsWindowVisible:0x00402000-0x0040203c
0x00402000	56	push    esi
0x00402001	8BF1	mov     esi, ecx
0x00402003	8B06	mov     eax, [esi]
0x00402005	8B5040	mov     edx, [eax+40h]
0x00402008	FFD2	call    edx
0x0040200a	85C0	test    eax, eax
0x0040200c	742A	jz      short loc_402038
0x0040200e	8B06	mov     eax, [esi]
0x00402010	8B5040	mov     edx, [eax+40h]
0x00402013	8BCE	mov     ecx, esi
0x00402015	FFD2	call    edx
0x00402017	50	push    eax
0x00402018	FF15E8A14000	call    ds:__imp_?FromHandle@CWnd@@SGPAV1@PAUHWND__@@@Z; CWnd::FromHandle(HWND__ *)
0x0040201e	85C0	test    eax, eax
0x00402020	7416	jz      short loc_402038
0x00402022	8BC8	mov     ecx, eax
0x00402024	FF15B4A14000	call    ds:__imp_?GetStyle@CWnd@@QBEKXZ; CWnd::GetStyle(void)
0x0040202a	A900000010	test    eax, 10000000h
0x0040202f	7407	jz      short loc_402038
0x00402031	B801000000	mov     eax, 1
0x00402036	5E	pop     esi
0x00402037	C3	retn
0x00402038	33C0	xor     eax, eax
0x0040203a	5E	pop     esi
0x0040203b	C3	retn
CMFCToolBarButton::EnableWindow:0x00402040-0x0040206a
0x00402040	55	push    ebp
0x00402041	8BEC	mov     ebp, esp
0x00402043	56	push    esi
0x00402044	8BF1	mov     esi, ecx
0x00402046	8B06	mov     eax, [esi]
0x00402048	8B5040	mov     edx, [eax+40h]
0x0040204b	FFD2	call    edx
0x0040204d	85C0	test    eax, eax
0x0040204f	7414	jz      short loc_402065
0x00402051	8B4508	mov     eax, [ebp+bEnable]
0x00402054	8B16	mov     edx, [esi]
0x00402056	50	push    eax; bEnable
0x00402057	8B4240	mov     eax, [edx+40h]
0x0040205a	8BCE	mov     ecx, esi
0x0040205c	FFD0	call    eax
0x0040205e	50	push    eax; hWnd
0x0040205f	FF1538A14000	call    ds:__imp__EnableWindow@8; EnableWindow(x,x)
0x00402065	5E	pop     esi
0x00402066	5D	pop     ebp
0x00402067	C20400	retn    4
CMFCToolBarButton::SetStyle:0x00402070-0x0040207d
0x00402070	55	push    ebp
0x00402071	8BEC	mov     ebp, esp
0x00402073	8B4508	mov     eax, [ebp+arg_0]
0x00402076	894124	mov     [ecx+24h], eax
0x00402079	5D	pop     ebp
0x0040207a	C20400	retn    4
CMFCToolBarButton::GetInvalidateRect:0x00402080-0x004020a1
0x00402080	55	push    ebp
0x00402081	8BEC	mov     ebp, esp
0x00402083	8B4508	mov     eax, [ebp+arg_0]
0x00402086	8B5154	mov     edx, [ecx+54h]
0x00402089	8910	mov     [eax], edx
0x0040208b	8B5158	mov     edx, [ecx+58h]
0x0040208e	895004	mov     [eax+4], edx
0x00402091	8B515C	mov     edx, [ecx+5Ch]
0x00402094	8B4960	mov     ecx, [ecx+60h]
0x00402097	895008	mov     [eax+8], edx
0x0040209a	89480C	mov     [eax+0Ch], ecx
0x0040209d	5D	pop     ebp
0x0040209e	C20400	retn    4
CMFCToolBarButton::OnBeforeDrop:0x004020b0-0x004020b8
0x004020b0	B801000000	mov     eax, 1
0x004020b5	C20400	retn    4
CMFCToolBarMenuButton::IsDroppedDown:0x004020c0-0x004020cc
0x004020c0	33C0	xor     eax, eax
0x004020c2	39818C000000	cmp     [ecx+8Ch], eax
0x004020c8	0F95C0	setnz   al
0x004020cb	C3	retn
CMFCToolBarMenuButton::OnContextHelp:0x004020d0-0x004020e4
0x004020d0	55	push    ebp
0x004020d1	8BEC	mov     ebp, esp
0x004020d3	8B01	mov     eax, [ecx]
0x004020d5	8B5508	mov     edx, [ebp+arg_0]
0x004020d8	8B4028	mov     eax, [eax+28h]
0x004020db	6A00	push    0
0x004020dd	52	push    edx
0x004020de	FFD0	call    eax
0x004020e0	5D	pop     ebp
0x004020e1	C20400	retn    4
CMFCToolBarButton::IsEditable:0x004020f0-0x00402172
0x004020f0	8B5120	mov     edx, [ecx+20h]
0x004020f3	81FA10E10000	cmp     edx, 0E110h
0x004020f9	7208	jb      short loc_402103
0x004020fb	81FA1FE10000	cmp     edx, 0E11Fh
0x00402101	766C	jbe     short loc_40216F
0x00402103	81FA00F00000	cmp     edx, 0F000h
0x00402109	7208	jb      short loc_402113
0x0040210b	81FAF0F10000	cmp     edx, 0F1F0h
0x00402111	725C	jb      short loc_40216F
0x00402113	81FA00FF0000	cmp     edx, 0FF00h
0x00402119	7D54	jge     short loc_40216F
0x0040211b	81FA10E20000	cmp     edx, 0E210h
0x00402121	7208	jb      short loc_40212B
0x00402123	81FA1FE20000	cmp     edx, 0E21Fh
0x00402129	7644	jbe     short loc_40216F
0x0040212b	A164A64000	mov     eax, ds:__imp_?afxUserToolsManager@@3PAVCUserToolsManager@@A; CUserToolsManager * afxUserToolsManager
0x00402130	8B00	mov     eax, [eax]
0x00402132	85C0	test    eax, eax
0x00402134	7405	jz      short loc_40213B
0x00402136	3B5020	cmp     edx, [eax+20h]
0x00402139	7434	jz      short loc_40216F
0x0040213b	8B0D60A64000	mov     ecx, ds:__imp_?m_lstProtectedCommands@CMFCToolBarButton@@1V?$CList@II@@A; CList<uint,uint> CMFCToolBarButton::m_lstProtectedCommands
0x00402141	8B4104	mov     eax, [ecx+4]
0x00402144	85C0	test    eax, eax
0x00402146	7421	jz      short loc_402169
0x00402148	8D4808	lea     ecx, [eax+8]
0x0040214b	85C9	test    ecx, ecx
0x0040214d	7410	jz      short loc_40215F
0x0040214f	3911	cmp     [ecx], edx
0x00402151	7412	jz      short loc_402165
0x00402153	8B00	mov     eax, [eax]
0x00402155	85C0	test    eax, eax
0x00402157	75EF	jnz     short loc_402148
0x00402159	B801000000	mov     eax, 1
0x0040215e	C3	retn
0x0040215f	FF25E8A24000	jmp     ds:__imp_?AfxThrowInvalidArgException@@YGXXZ; AfxThrowInvalidArgException(void)
0x00402165	85C0	test    eax, eax
0x00402167	7506	jnz     short loc_40216F
0x00402169	B801000000	mov     eax, 1
0x0040216e	C3	retn
0x0040216f	33C0	xor     eax, eax
0x00402171	C3	retn
CPane::IsResizable:0x00402180-0x00402183
0x00402180	33C0	xor     eax, eax
0x00402182	C3	retn
CDockablePane::GetAHSlideMode:0x00402190-0x00402197
0x00402190	8B8114030000	mov     eax, [ecx+314h]
0x00402196	C3	retn
CDockablePane::CanAdjustLayout:0x004021a0-0x004021bb
0x004021a0	83B90803000000	cmp     dword ptr [ecx+308h], 0
0x004021a7	740C	jz      short loc_4021B5
0x004021a9	83B91003000000	cmp     dword ptr [ecx+310h], 0
0x004021b0	7403	jz      short loc_4021B5
0x004021b2	33C0	xor     eax, eax
0x004021b4	C3	retn
0x004021b5	B801000000	mov     eax, 1
0x004021ba	C3	retn
CDockablePane::IsHideInAutoHideMode:0x004021c0-0x004021c8
0x004021c0	A114A64000	mov     eax, ds:__imp_?m_bHideInAutoHideMode@CDockablePane@@2HA; int CDockablePane::m_bHideInAutoHideMode
0x004021c5	8B00	mov     eax, [eax]
0x004021c7	C3	retn
CDockablePane::DockToRecentPos:0x004021d0-0x004021e1
0x004021d0	8B01	mov     eax, [ecx]
0x004021d2	8B9018030000	mov     edx, [eax+318h]
0x004021d8	6A03	push    3
0x004021da	6A00	push    0
0x004021dc	6A00	push    0
0x004021de	FFD2	call    edx
0x004021e0	C3	retn
CDockablePane::OnAfterDockFromMiniFrame:0x004021f0-0x00402200
0x004021f0	8B01	mov     eax, [ecx]
0x004021f2	8B9004030000	mov     edx, [eax+304h]
0x004021f8	6A00	push    0
0x004021fa	6A00	push    0
0x004021fc	51	push    ecx
0x004021fd	FFD2	call    edx
0x004021ff	C3	retn
CDockablePane::IsAutohideAllEnabled:0x00402200-0x00402207
0x00402200	8B81CC020000	mov     eax, [ecx+2CCh]
0x00402206	C3	retn
CDockablePane::GetTabArea:0x00402210-0x0040222b
0x00402210	55	push    ebp
0x00402211	8BEC	mov     ebp, esp
0x00402213	8B4508	mov     eax, [ebp+lprc]
0x00402216	56	push    esi
0x00402217	8B3568A14000	mov     esi, ds:__imp__SetRectEmpty@4; SetRectEmpty(x)
0x0040221d	50	push    eax; lprc
0x0040221e	FFD6	call    esi ; SetRectEmpty(x); SetRectEmpty(x)
0x00402220	8B4D0C	mov     ecx, [ebp+arg_4]
0x00402223	51	push    ecx; lprc
0x00402224	FFD6	call    esi ; SetRectEmpty(x); SetRectEmpty(x)
0x00402226	5E	pop     esi
0x00402227	5D	pop     ebp
0x00402228	C20800	retn    8
CPane::CalcSize:0x00402230-0x00402247
0x00402230	55	push    ebp
0x00402231	8BEC	mov     ebp, esp
0x00402233	8B4508	mov     eax, [ebp+arg_0]
0x00402236	C70000000000	mov     dword ptr [eax], 0
0x0040223c	C7400400000000	mov     dword ptr [eax+4], 0
0x00402243	5D	pop     ebp
0x00402244	C20800	retn    8
CPane::GetMinSize:0x00402250-0x0040226b
0x00402250	55	push    ebp
0x00402251	8BEC	mov     ebp, esp
0x00402253	8B9150010000	mov     edx, [ecx+150h]
0x00402259	8B4508	mov     eax, [ebp+arg_0]
0x0040225c	8910	mov     [eax], edx
0x0040225e	8B8954010000	mov     ecx, [ecx+154h]
0x00402264	894804	mov     [eax+4], ecx
0x00402267	5D	pop     ebp
0x00402268	C20400	retn    4
CBasePane::StretchPane:0x00402270-0x00402287
0x00402270	55	push    ebp
0x00402271	8BEC	mov     ebp, esp
0x00402273	8B4508	mov     eax, [ebp+arg_0]
0x00402276	C70000000000	mov     dword ptr [eax], 0
0x0040227c	C7400400000000	mov     dword ptr [eax+4], 0
0x00402283	5D	pop     ebp
0x00402284	C20C00	retn    0Ch
CBasePane::EnableDocking:0x00402290-0x004022a0
0x00402290	55	push    ebp
0x00402291	8BEC	mov     ebp, esp
0x00402293	8B4508	mov     eax, [ebp+arg_0]
0x00402296	89818C000000	mov     [ecx+8Ch], eax
0x0040229c	5D	pop     ebp
0x0040229d	C20400	retn    4
CDockablePane::IsAutoHideMode:0x004022a0-0x004022a7
0x004022a0	8B81E4020000	mov     eax, [ecx+2E4h]
0x004022a6	C3	retn
CBasePane::CanBeClosed:0x004022b0-0x004022ba
0x004022b0	8B8194000000	mov     eax, [ecx+94h]
0x004022b6	83E008	and     eax, 8
0x004022b9	C3	retn
CDockablePane::CanAcceptPane:0x004022c0-0x00402314
0x004022c0	55	push    ebp
0x004022c1	8BEC	mov     ebp, esp
0x004022c3	56	push    esi
0x004022c4	57	push    edi
0x004022c5	8B7D08	mov     edi, [ebp+arg_0]
0x004022c8	8BF1	mov     esi, ecx
0x004022ca	85FF	test    edi, edi
0x004022cc	743E	jz      short loc_40230C
0x004022ce	FF156CA54000	call    ds:__imp_?GetThisClass@CDockablePane@@SGPAUCRuntimeClass@@XZ; CDockablePane::GetThisClass(void)
0x004022d4	50	push    eax
0x004022d5	8BCF	mov     ecx, edi
0x004022d7	FF1584A24000	call    ds:__imp_?IsKindOf@CObject@@QBEHPBUCRuntimeClass@@@Z; CObject::IsKindOf(CRuntimeClass const *)
0x004022dd	85C0	test    eax, eax
0x004022df	742B	jz      short loc_40230C
0x004022e1	8B06	mov     eax, [esi]
0x004022e3	8B906C010000	mov     edx, [eax+16Ch]
0x004022e9	8BCE	mov     ecx, esi
0x004022eb	FFD2	call    edx
0x004022ed	85C0	test    eax, eax
0x004022ef	7510	jnz     short loc_402301
0x004022f1	8B06	mov     eax, [esi]
0x004022f3	8B90AC010000	mov     edx, [eax+1ACh]
0x004022f9	8BCE	mov     ecx, esi
0x004022fb	FFD2	call    edx
0x004022fd	85C0	test    eax, eax
0x004022ff	740B	jz      short loc_40230C
0x00402301	5F	pop     edi
0x00402302	B801000000	mov     eax, 1
0x00402307	5E	pop     esi
0x00402308	5D	pop     ebp
0x00402309	C20400	retn    4
0x0040230c	5F	pop     edi
0x0040230d	33C0	xor     eax, eax
0x0040230f	5E	pop     esi
0x00402310	5D	pop     ebp
0x00402311	C20400	retn    4
CBasePane::IsFloating:0x00402320-0x00402330
0x00402320	8B01	mov     eax, [ecx]
0x00402322	8B906C010000	mov     edx, [eax+16Ch]
0x00402328	FFD2	call    edx
0x0040232a	F7D8	neg     eax
0x0040232c	1BC0	sbb     eax, eax
0x0040232e	40	inc     eax
0x0040232f	C3	retn
CMFCToolBar::IsPureMenuButton:0x00402330-0x00402339
0x00402330	8B81380B0000	mov     eax, [ecx+0B38h]
0x00402336	C20400	retn    4
CMFCToolBarButton::OnCustomizeMenu:0x00402340-0x00402345
0x00402340	33C0	xor     eax, eax
0x00402342	C20400	retn    4
CMFCToolBar::GetCommandTarget:0x00402350-0x0040239d
0x00402350	56	push    esi
0x00402351	8BF1	mov     esi, ecx
0x00402353	8B4654	mov     eax, [esi+54h]
0x00402356	57	push    edi
0x00402357	85C0	test    eax, eax
0x00402359	750A	jnz     short loc_402365
0x0040235b	8B4620	mov     eax, [esi+20h]
0x0040235e	50	push    eax; hWnd
0x0040235f	FF156CA14000	call    ds:__imp__GetParent@4; GetParent(x)
0x00402365	50	push    eax
0x00402366	FF15E8A14000	call    ds:__imp_?FromHandle@CWnd@@SGPAV1@PAUHWND__@@@Z; CWnd::FromHandle(HWND__ *)
0x0040236c	8BF8	mov     edi, eax
0x0040236e	85FF	test    edi, edi
0x00402370	7419	jz      short loc_40238B
0x00402372	83BE400B000000	cmp     dword ptr [esi+0B40h], 0
0x00402379	741D	jz      short loc_402398
0x0040237b	8B17	mov     edx, [edi]
0x0040237d	8B8254010000	mov     eax, [edx+154h]
0x00402383	8BCF	mov     ecx, edi
0x00402385	FFD0	call    eax
0x00402387	85C0	test    eax, eax
0x00402389	750D	jnz     short loc_402398
0x0040238b	56	push    esi
0x0040238c	FF1504A54000	call    ds:__imp_?AFXGetParentFrame@@YAPAVCFrameWnd@@PBVCWnd@@@Z; AFXGetParentFrame(CWnd const *)
0x00402392	83C404	add     esp, 4
0x00402395	5F	pop     edi
0x00402396	5E	pop     esi
0x00402397	C3	retn
0x00402398	8BC7	mov     eax, edi
0x0040239a	5F	pop     edi
0x0040239b	5E	pop     esi
0x0040239c	C3	retn
CMFCToolBar::OnBeforeRemoveButton:0x004023a0-0x004023a8
0x004023a0	B801000000	mov     eax, 1
0x004023a5	C20800	retn    8
CMFCToolBar::IsResourceChanged:0x004023b0-0x004023b7
0x004023b0	8B811C0B0000	mov     eax, [ecx+0B1Ch]
0x004023b6	C3	retn
CMFCToolBar::GetColumnWidth:0x004023c0-0x004023fb
0x004023c0	55	push    ebp
0x004023c1	8BEC	mov     ebp, esp
0x004023c3	83E4F8	and     esp, 0FFFFFFF8h
0x004023c6	83EC0C	sub     esp, 0Ch
0x004023c9	83B9380B000000	cmp     dword ptr [ecx+0B38h], 0
0x004023d0	56	push    esi
0x004023d1	7418	jz      short loc_4023EB
0x004023d3	A1ACA44000	mov     eax, ds:__imp_?m_sizeMenuButton@CMFCToolBar@@1VCSize@@A; CSize CMFCToolBar::m_sizeMenuButton
0x004023d8	8B00	mov     eax, [eax]
0x004023da	85C0	test    eax, eax
0x004023dc	7F18	jg      short loc_4023F6
0x004023de	8B0DA4A44000	mov     ecx, ds:__imp_?m_sizeButton@CMFCToolBar@@1VCSize@@A; CSize CMFCToolBar::m_sizeButton
0x004023e4	8B01	mov     eax, [ecx]
0x004023e6	5E	pop     esi
0x004023e7	8BE5	mov     esp, ebp
0x004023e9	5D	pop     ebp
0x004023ea	C3	retn
0x004023eb	8D742408	lea     esi, [esp+10h+var_8]
0x004023ef	E8BC000000	call    CMFCToolBar__GetButtonSize
0x004023f4	8B00	mov     eax, [eax]
0x004023f6	5E	pop     esi
0x004023f7	8BE5	mov     esp, ebp
0x004023f9	5D	pop     ebp
0x004023fa	C3	retn
CMFCVisualManager::GetInstance:0x00402400-0x004024a2
0x00402400	55	push    ebp
0x00402401	8BEC	mov     ebp, esp
0x00402403	6AFF	push    0FFFFFFFFh
0x00402405	68E8924000	push    offset CnotepadView__CreateObject_SEH
0x0040240a	64A100000000	mov     eax, large fs:0
0x00402410	50	push    eax
0x00402411	64892500000000	mov     large fs:0, esp
0x00402418	51	push    ecx
0x00402419	A194A44000	mov     eax, ds:__imp_?m_pVisManager@CMFCVisualManager@@1PAV1@A; CMFCVisualManager * CMFCVisualManager::m_pVisManager
0x0040241e	8B00	mov     eax, [eax]
0x00402420	85C0	test    eax, eax
0x00402422	7570	jnz     short loc_402494
0x00402424	8B0D98A44000	mov     ecx, ds:__imp_?m_pRTIDefault@CMFCVisualManager@@1PAUCRuntimeClass@@A; CRuntimeClass * CMFCVisualManager::m_pRTIDefault
0x0040242a	8B09	mov     ecx, [ecx]
0x0040242c	85C9	test    ecx, ecx
0x0040242e	753A	jnz     short loc_40246A
0x00402430	68D4000000	push    0D4h
0x00402435	FF15ACAD4000	call    ds:__imp_??2@YAPAXI@Z; operator new(uint)
0x0040243b	83C404	add     esp, 4
0x0040243e	8945F0	mov     [ebp+var_10], eax
0x00402441	C745FC00000000	mov     [ebp+var_4], 0
0x00402448	85C0	test    eax, eax
0x0040244a	7413	jz      short loc_40245F
0x0040244c	6A00	push    0
0x0040244e	8BC8	mov     ecx, eax
0x00402450	FF15A0A44000	call    ds:__imp_??0CMFCVisualManager@@QAE@H@Z; CMFCVisualManager::CMFCVisualManager(int)
0x00402456	C745FCFFFFFFFF	mov     [ebp+var_4], 0FFFFFFFFh
0x0040245d	EB11	jmp     short loc_402470
0x0040245f	33C0	xor     eax, eax
0x00402461	C745FCFFFFFFFF	mov     [ebp+var_4], 0FFFFFFFFh
0x00402468	EB06	jmp     short loc_402470
0x0040246a	FF159CA44000	call    ds:__imp_?CreateObject@CRuntimeClass@@QAEPAVCObject@@XZ; CRuntimeClass::CreateObject(void)
0x00402470	8B0D94A44000	mov     ecx, ds:__imp_?m_pVisManager@CMFCVisualManager@@1PAV1@A; CMFCVisualManager * CMFCVisualManager::m_pVisManager
0x00402476	8BD0	mov     edx, eax
0x00402478	8901	mov     [ecx], eax
0x0040247a	C782D000000001000000	mov     dword ptr [edx+0D0h], 1
0x00402484	8B09	mov     ecx, [ecx]
0x00402486	8B01	mov     eax, [ecx]
0x00402488	8B5038	mov     edx, [eax+38h]
0x0040248b	FFD2	call    edx
0x0040248d	A194A44000	mov     eax, ds:__imp_?m_pVisManager@CMFCVisualManager@@1PAV1@A; CMFCVisualManager * CMFCVisualManager::m_pVisManager
0x00402492	8B00	mov     eax, [eax]
0x00402494	8B4DF4	mov     ecx, [ebp+var_C]
0x00402497	64890D00000000	mov     large fs:0, ecx
0x0040249e	8BE5	mov     esp, ebp
0x004024a0	5D	pop     ebp
0x004024a1	C3	retn
CMFCVisualManager::GetInstance:0x004092e0-0x004092e8
0x004092e0	8B45F0	mov     eax, [ebp+var_10]
0x004092e3	E9087EFFFF	jmp     CObject__operator_delete
CMFCToolBar::GetButtonSize:0x004024b0-0x00402526
0x004024b0	55	push    ebp
0x004024b1	8BEC	mov     ebp, esp
0x004024b3	83EC08	sub     esp, 8
0x004024b6	83B9040B000000	cmp     dword ptr [ecx+0B04h], 0
0x004024bd	7417	jz      short loc_4024D6
0x004024bf	83B9080B000000	cmp     dword ptr [ecx+0B08h], 0
0x004024c6	8D81AC0B0000	lea     eax, [ecx+0BACh]
0x004024cc	751B	jnz     short loc_4024E9
0x004024ce	8D819C0B0000	lea     eax, [ecx+0B9Ch]
0x004024d4	EB13	jmp     short loc_4024E9
0x004024d6	83B9080B000000	cmp     dword ptr [ecx+0B08h], 0
0x004024dd	A1A8A44000	mov     eax, ds:__imp_?m_sizeCurButton@CMFCToolBar@@1VCSize@@A; CSize CMFCToolBar::m_sizeCurButton
0x004024e2	7505	jnz     short loc_4024E9
0x004024e4	A1A4A44000	mov     eax, ds:__imp_?m_sizeButton@CMFCToolBar@@1VCSize@@A; CSize CMFCToolBar::m_sizeButton
0x004024e9	8B10	mov     edx, [eax]
0x004024eb	8B4004	mov     eax, [eax+4]
0x004024ee	8916	mov     [esi], edx
0x004024f0	8B11	mov     edx, [ecx]
0x004024f2	894604	mov     [esi+4], eax
0x004024f5	8B8264030000	mov     eax, [edx+364h]
0x004024fb	FFD0	call    eax
0x004024fd	85C0	test    eax, eax
0x004024ff	741F	jz      short loc_402520
0x00402501	E8FAFEFFFF	call    CMFCVisualManager__GetInstance
0x00402506	8B10	mov     edx, [eax]
0x00402508	8B9244010000	mov     edx, [edx+144h]
0x0040250e	8D4DF8	lea     ecx, [ebp+var_8]
0x00402511	51	push    ecx
0x00402512	8BC8	mov     ecx, eax
0x00402514	FFD2	call    edx
0x00402516	8B08	mov     ecx, [eax]
0x00402518	8B4004	mov     eax, [eax+4]
0x0040251b	010E	add     [esi], ecx
0x0040251d	014604	add     [esi+4], eax
0x00402520	8BC6	mov     eax, esi
0x00402522	8BE5	mov     esp, ebp
0x00402524	5D	pop     ebp
0x00402525	C3	retn
CMFCToolBar::GetRowHeight:0x00402530-0x004025f8
0x00402530	55	push    ebp
0x00402531	8BEC	mov     ebp, esp
0x00402533	83E4F8	and     esp, 0FFFFFFF8h
0x00402536	83EC10	sub     esp, 10h
0x00402539	56	push    esi
0x0040253a	57	push    edi
0x0040253b	8BF9	mov     edi, ecx
0x0040253d	83BF180B000000	cmp     dword ptr [edi+0B18h], 0
0x00402544	740C	jz      short loc_402552
0x00402546	8B87740B0000	mov     eax, [edi+0B74h]
0x0040254c	5F	pop     edi
0x0040254d	5E	pop     esi
0x0040254e	8BE5	mov     esp, ebp
0x00402550	5D	pop     ebp
0x00402551	C3	retn
0x00402552	83BF380B000000	cmp     dword ptr [edi+0B38h], 0
0x00402559	7417	jz      short loc_402572
0x0040255b	A1ACA44000	mov     eax, ds:__imp_?m_sizeMenuButton@CMFCToolBar@@1VCSize@@A; CSize CMFCToolBar::m_sizeMenuButton
0x00402560	8B4004	mov     eax, [eax+4]
0x00402563	85C0	test    eax, eax
0x00402565	7F17	jg      short loc_40257E
0x00402567	8B0DA4A44000	mov     ecx, ds:__imp_?m_sizeButton@CMFCToolBar@@1VCSize@@A; CSize CMFCToolBar::m_sizeButton
0x0040256d	8B4104	mov     eax, [ecx+4]
0x00402570	EB0C	jmp     short loc_40257E
0x00402572	8D742408	lea     esi, [esp+18h+var_10]
0x00402576	E835FFFFFF	call    CMFCToolBar__GetButtonSize
0x0040257b	8B4004	mov     eax, [eax+4]
0x0040257e	8BB790000000	mov     esi, [edi+90h]
0x00402584	81E600A00000	and     esi, 0A000h
0x0040258a	8B0DB0A44000	mov     ecx, ds:__imp_?afxGlobalData@@3UAFX_GLOBAL_DATA@@A; AFX_GLOBAL_DATA afxGlobalData
0x00402590	7408	jz      short loc_40259A
0x00402592	8B91CC010000	mov     edx, [ecx+1CCh]
0x00402598	EB06	jmp     short loc_4025A0
0x0040259a	8B91D0010000	mov     edx, [ecx+1D0h]
0x004025a0	3BD0	cmp     edx, eax
0x004025a2	7E1C	jle     short loc_4025C0
0x004025a4	85F6	test    esi, esi
0x004025a6	740C	jz      short loc_4025B4
0x004025a8	8B81CC010000	mov     eax, [ecx+1CCh]
0x004025ae	5F	pop     edi
0x004025af	5E	pop     esi
0x004025b0	8BE5	mov     esp, ebp
0x004025b2	5D	pop     ebp
0x004025b3	C3	retn
0x004025b4	8B81D0010000	mov     eax, [ecx+1D0h]
0x004025ba	5F	pop     edi
0x004025bb	5E	pop     esi
0x004025bc	8BE5	mov     esp, ebp
0x004025be	5D	pop     ebp
0x004025bf	C3	retn
0x004025c0	83BF380B000000	cmp     dword ptr [edi+0B38h], 0
0x004025c7	741B	jz      short loc_4025E4
0x004025c9	8B15ACA44000	mov     edx, ds:__imp_?m_sizeMenuButton@CMFCToolBar@@1VCSize@@A; CSize CMFCToolBar::m_sizeMenuButton
0x004025cf	8B4204	mov     eax, [edx+4]
0x004025d2	85C0	test    eax, eax
0x004025d4	7F1C	jg      short loc_4025F2
0x004025d6	A1A4A44000	mov     eax, ds:__imp_?m_sizeButton@CMFCToolBar@@1VCSize@@A; CSize CMFCToolBar::m_sizeButton
0x004025db	8B4004	mov     eax, [eax+4]
0x004025de	5F	pop     edi
0x004025df	5E	pop     esi
0x004025e0	8BE5	mov     esp, ebp
0x004025e2	5D	pop     ebp
0x004025e3	C3	retn
0x004025e4	8D742410	lea     esi, [esp+18h+var_8]
0x004025e8	8BCF	mov     ecx, edi
0x004025ea	E8C1FEFFFF	call    CMFCToolBar__GetButtonSize
0x004025ef	8B4004	mov     eax, [eax+4]
0x004025f2	5F	pop     edi
0x004025f3	5E	pop     esi
0x004025f4	8BE5	mov     esp, ebp
0x004025f6	5D	pop     ebp
0x004025f7	C3	retn
CPane::OnDrawDragRect:0x00402600-0x00402603
0x00402600	C20800	retn    8
CPane::DockPaneStandard:0x00402610-0x00402622
0x00402610	55	push    ebp
0x00402611	8BEC	mov     ebp, esp
0x00402613	8BC1	mov     eax, ecx
0x00402615	8B4D08	mov     ecx, [ebp+arg_0]
0x00402618	C70100000000	mov     dword ptr [ecx], 0
0x0040261e	5D	pop     ebp
0x0040261f	C20400	retn    4
CPane::GetExclusiveRowMode:0x00402630-0x00402637
0x00402630	8B8168010000	mov     eax, [ecx+168h]
0x00402636	C3	retn
CPane::SetExclusiveRowMode:0x00402640-0x00402650
0x00402640	55	push    ebp
0x00402641	8BEC	mov     ebp, esp
0x00402643	8B4508	mov     eax, [ebp+arg_0]
0x00402646	898168010000	mov     [ecx+168h], eax
0x0040264c	5D	pop     ebp
0x0040264d	C20400	retn    4
CPane::DoesAllowSiblingBars:0x00402650-0x0040265c
0x00402650	33C0	xor     eax, eax
0x00402652	398168010000	cmp     [ecx+168h], eax
0x00402658	0F94C0	setz    al
0x0040265b	C3	retn
CPane::GetResizeStep:0x00402660-0x00402664
0x00402660	83C8FF	or      eax, 0FFFFFFFFh
0x00402663	C3	retn
CPane::GetMinLength:0x00402670-0x00402680
0x00402670	8B01	mov     eax, [ecx]
0x00402672	8B9068010000	mov     edx, [eax+168h]
0x00402678	FFD2	call    edx
0x0040267a	B80A000000	mov     eax, 0Ah
0x0040267f	C3	retn
CMFCBaseToolBar::GetMinSize:0x00402680-0x004026b6
0x00402680	55	push    ebp
0x00402681	8BEC	mov     ebp, esp
0x00402683	8B01	mov     eax, [ecx]
0x00402685	8B9068010000	mov     edx, [eax+168h]
0x0040268b	FFD2	call    edx
0x0040268d	85C0	test    eax, eax
0x0040268f	8B4508	mov     eax, [ebp+arg_0]
0x00402692	7411	jz      short loc_4026A5
0x00402694	C70028000000	mov     dword ptr [eax], 28h
0x0040269a	C7400410000000	mov     dword ptr [eax+4], 10h
0x004026a1	5D	pop     ebp
0x004026a2	C20400	retn    4
0x004026a5	C7400428000000	mov     dword ptr [eax+4], 28h
0x004026ac	C70010000000	mov     dword ptr [eax], 10h
0x004026b2	5D	pop     ebp
0x004026b3	C20400	retn    4
CPane::IsDragMode:0x004026c0-0x004026c7
0x004026c0	8B8164010000	mov     eax, [ecx+164h]
0x004026c6	C3	retn
CPane::DockToFrameWindow:0x004026d0-0x004026d5
0x004026d0	33C0	xor     eax, eax
0x004026d2	C21800	retn    18h
CnotepadView::OnDraw:0x004026e0-0x004026e3
0x004026e0	C20400	retn    4
CBasePane::SetControlBarStyle:0x004026f0-0x00402700
0x004026f0	55	push    ebp
0x004026f1	8BEC	mov     ebp, esp
0x004026f3	8B4508	mov     eax, [ebp+arg_0]
0x004026f6	898194000000	mov     [ecx+94h], eax
0x004026fc	5D	pop     ebp
0x004026fd	C20400	retn    4
CBasePane::SetPaneAlignment:0x00402700-0x0040271b
0x00402700	55	push    ebp
0x00402701	8BEC	mov     ebp, esp
0x00402703	8B8190000000	mov     eax, [ecx+90h]
0x00402709	25FF0FFFFF	and     eax, 0FFFF0FFFh
0x0040270e	0B4508	or      eax, [ebp+arg_0]
0x00402711	898190000000	mov     [ecx+90h], eax
0x00402717	5D	pop     ebp
0x00402718	C20400	retn    4
CBasePane::CanAutoHide:0x00402720-0x0040272a
0x00402720	8B8194000000	mov     eax, [ecx+94h]
0x00402726	83E002	and     eax, 2
0x00402729	C3	retn
CBasePane::CanBeResized:0x00402730-0x0040273a
0x00402730	8B8194000000	mov     eax, [ecx+94h]
0x00402736	83E004	and     eax, 4
0x00402739	C3	retn
CMFCToolBar::CanBeClosed:0x00402740-0x0040274c
0x00402740	33C0	xor     eax, eax
0x00402742	3981100B0000	cmp     [ecx+0B10h], eax
0x00402748	0F94C0	setz    al
0x0040274b	C3	retn
CBasePane::GetControlBarStyle:0x00402750-0x00402757
0x00402750	8B8194000000	mov     eax, [ecx+94h]
0x00402756	C3	retn
CBasePane::GetPaneIcon:0x00402760-0x00402779
0x00402760	55	push    ebp
0x00402761	8BEC	mov     ebp, esp
0x00402763	8B4508	mov     eax, [ebp+wParam]
0x00402766	8B4920	mov     ecx, [ecx+20h]
0x00402769	6A00	push    0; lParam
0x0040276b	50	push    eax; wParam
0x0040276c	6A7F	push    7Fh; Msg
0x0040276e	51	push    ecx; hWnd
0x0040276f	FF155CA14000	call    ds:__imp__SendMessageW@16; SendMessageW(x,x,x,x)
0x00402775	5D	pop     ebp
0x00402776	C20400	retn    4
CMFCBaseToolBar::GetDockingMode:0x00402780-0x00402786
0x00402780	B801000000	mov     eax, 1
0x00402785	C3	retn
CBasePane::SetRestoredFromRegistry:0x00402790-0x0040279d
0x00402790	55	push    ebp
0x00402791	8BEC	mov     ebp, esp
0x00402793	8B4508	mov     eax, [ebp+arg_0]
0x00402796	89417C	mov     [ecx+7Ch], eax
0x00402799	5D	pop     ebp
0x0040279a	C20400	retn    4
CBasePane::IsRestoredFromRegistry:0x004027a0-0x004027a4
0x004027a0	8B417C	mov     eax, [ecx+7Ch]
0x004027a3	C3	retn
CBasePane::GetRecentVisibleState:0x004027b0-0x004027b4
0x004027b0	8B4178	mov     eax, [ecx+78h]
0x004027b3	C3	retn
CBasePane::GetParentDockSite:0x004027c0-0x004027c7
0x004027c0	8B81AC000000	mov     eax, [ecx+0ACh]
0x004027c6	C3	retn
CBasePane::GetEnabledAlignment:0x004027d0-0x004027d7
0x004027d0	8B818C000000	mov     eax, [ecx+8Ch]
0x004027d6	C3	retn
CPane::CanBeDocked:0x004027e0-0x00402812
0x004027e0	55	push    ebp
0x004027e1	8BEC	mov     ebp, esp
0x004027e3	56	push    esi
0x004027e4	8BF1	mov     esi, ecx
0x004027e6	8B4D08	mov     ecx, [ebp+arg_0]
0x004027e9	8B01	mov     eax, [ecx]
0x004027eb	8B9098010000	mov     edx, [eax+198h]
0x004027f1	57	push    edi
0x004027f2	FFD2	call    edx
0x004027f4	8BF8	mov     edi, eax
0x004027f6	8B06	mov     eax, [esi]
0x004027f8	8B909C010000	mov     edx, [eax+19Ch]
0x004027fe	8BCE	mov     ecx, esi
0x00402800	FFD2	call    edx
0x00402802	23F8	and     edi, eax
0x00402804	F7DF	neg     edi
0x00402806	1BFF	sbb     edi, edi
0x00402808	F7DF	neg     edi
0x0040280a	8BC7	mov     eax, edi
0x0040280c	5F	pop     edi
0x0040280d	5E	pop     esi
0x0040280e	5D	pop     ebp
0x0040280f	C20400	retn    4
CBasePane::DoesAllowDynInsertBefore:0x00402820-0x0040282a
0x00402820	8B01	mov     eax, [ecx]
0x00402822	8B90D0010000	mov     edx, [eax+1D0h]
0x00402828	FFE2	jmp     edx
CMFCToolBar::IsFloating:0x00402830-0x00402837
0x00402830	8B81240B0000	mov     eax, [ecx+0B24h]
0x00402836	C3	retn
CBasePane::IsHorizontal:0x00402840-0x00402850
0x00402840	8B01	mov     eax, [ecx]
0x00402842	8B9098010000	mov     edx, [eax+198h]
0x00402848	FFD2	call    edx
0x0040284a	2500A00000	and     eax, 0A000h
0x0040284f	C3	retn
CWnd::EndModalState:0x00402850-0x0040285d
0x00402850	8B4120	mov     eax, [ecx+20h]
0x00402853	6A01	push    1; bEnable
0x00402855	50	push    eax; hWnd
0x00402856	FF1538A14000	call    ds:__imp__EnableWindow@8; EnableWindow(x,x)
0x0040285c	C3	retn
CWnd::BeginModalState:0x00402860-0x0040286d
0x00402860	8B4120	mov     eax, [ecx+20h]
0x00402863	6A00	push    0; bEnable
0x00402865	50	push    eax; hWnd
0x00402866	FF1538A14000	call    ds:__imp__EnableWindow@8; EnableWindow(x,x)
0x0040286c	C3	retn
CComCtlWrapper::GetProcAddress_ImageList_AddMasked:0x00402870-0x004028bc
0x00402870	837E4400	cmp     dword ptr [esi+44h], 0
0x00402874	753E	jnz     short loc_4028B4
0x00402876	837E0400	cmp     dword ptr [esi+4], 0
0x0040287a	7526	jnz     short loc_4028A2
0x0040287c	8B460C	mov     eax, [esi+0Ch]
0x0040287f	50	push    eax; lpModuleName
0x00402880	FF1584A04000	call    ds:__imp__GetModuleHandleW@4; GetModuleHandleW(x)
0x00402886	894604	mov     [esi+4], eax
0x00402889	85C0	test    eax, eax
0x0040288b	7515	jnz     short loc_4028A2
0x0040288d	8B460C	mov     eax, [esi+0Ch]
0x00402890	50	push    eax; lpLibFileName
0x00402891	FF1588A04000	call    ds:__imp__LoadLibraryW@4; LoadLibraryW(x)
0x00402897	85C0	test    eax, eax
0x00402899	894604	mov     [esi+4], eax
0x0040289c	0F95C0	setnz   al
0x0040289f	884608	mov     [esi+8], al
0x004028a2	8B4604	mov     eax, [esi+4]
0x004028a5	68FCBD4000	push    offset ProcName; "ImageList_AddMasked"
0x004028aa	50	push    eax; hModule
0x004028ab	FF1580A04000	call    ds:__imp__GetProcAddress@8; GetProcAddress(x,x)
0x004028b1	894644	mov     [esi+44h], eax
0x004028b4	8B4E44	mov     ecx, [esi+44h]
0x004028b7	890F	mov     [edi], ecx
0x004028b9	8BC7	mov     eax, edi
0x004028bb	C3	retn
CComCtlWrapper::_ImageList_AddMasked:0x004028c0-0x004029aa
0x004028c0	55	push    ebp
0x004028c1	8BEC	mov     ebp, esp
0x004028c3	6AFF	push    0FFFFFFFFh
0x004028c5	68F0084100	push    offset stru_4108F0
0x004028ca	6898904000	push    offset __except_handler3
0x004028cf	64A100000000	mov     eax, large fs:0
0x004028d5	50	push    eax
0x004028d6	64892500000000	mov     large fs:0, esp
0x004028dd	83EC14	sub     esp, 14h
0x004028e0	53	push    ebx
0x004028e1	56	push    esi
0x004028e2	57	push    edi
0x004028e3	8BF1	mov     esi, ecx
0x004028e5	33DB	xor     ebx, ebx
0x004028e7	895DE0	mov     [ebp+Cookie], ebx
0x004028ea	8D45E0	lea     eax, [ebp+Cookie]
0x004028ed	50	push    eax; lpCookie
0x004028ee	FF15E4A24000	call    ds:__imp_?AfxGetModuleState@@YGPAVAFX_MODULE_STATE@@XZ; AfxGetModuleState(void)
0x004028f4	8B889C000000	mov     ecx, [eax+9Ch]
0x004028fa	51	push    ecx; hActCtx
0x004028fb	FF157CA04000	call    ds:__imp__ActivateActCtx@8; ActivateActCtx(x,x)
0x00402901	C745E4FFFFFFFF	mov     [ebp+var_1C], 0FFFFFFFFh
0x00402908	3BC3	cmp     eax, ebx
0x0040290a	7516	jnz     short loc_402922
0x0040290c	83C8FF	or      eax, 0FFFFFFFFh
0x0040290f	8B4DF0	mov     ecx, [ebp+ms_exc.registration.Next]
0x00402912	64890D00000000	mov     large fs:0, ecx
0x00402919	5F	pop     edi
0x0040291a	5E	pop     esi
0x0040291b	5B	pop     ebx
0x0040291c	8BE5	mov     esp, ebp
0x0040291e	5D	pop     ebp
0x0040291f	C20C00	retn    0Ch
0x00402922	895DFC	mov     [ebp+ms_exc.registration.TryLevel], ebx
0x00402925	8D7DDC	lea     edi, [ebp+var_24]
0x00402928	E843FFFFFF	call    CComCtlWrapper__GetProcAddress_ImageList_AddMasked
0x0040292d	8B4644	mov     eax, [esi+44h]
0x00402930	33C9	xor     ecx, ecx
0x00402932	3BC3	cmp     eax, ebx
0x00402934	0F95C1	setnz   cl
0x00402937	3BCB	cmp     ecx, ebx
0x00402939	7506	jnz     short loc_402941
0x0040293b	FF15E8A24000	call    ds:__imp_?AfxThrowInvalidArgException@@YGXXZ; AfxThrowInvalidArgException(void)
0x00402941	8B5510	mov     edx, [ebp+arg_8]
0x00402944	52	push    edx
0x00402945	8B4D0C	mov     ecx, [ebp+arg_4]
0x00402948	51	push    ecx
0x00402949	8B5508	mov     edx, [ebp+arg_0]
0x0040294c	52	push    edx
0x0040294d	FFD0	call    eax
0x0040294f	8BF8	mov     edi, eax
0x00402951	897DE4	mov     [ebp+var_1C], edi
0x00402954	C745FCFFFFFFFF	mov     [ebp+ms_exc.registration.TryLevel], 0FFFFFFFFh
0x0040295b	E818000000	call    loc_402978
0x00402960	8BC7	mov     eax, edi
0x00402962	8B4DF0	mov     ecx, [ebp+ms_exc.registration.Next]
0x00402965	64890D00000000	mov     large fs:0, ecx
0x0040296c	5F	pop     edi
0x0040296d	5E	pop     esi
0x0040296e	5B	pop     ebx
0x0040296f	8BE5	mov     esp, ebp
0x00402971	5D	pop     ebp
0x00402972	C20C00	retn    0Ch
0x00402975	8B7DE4	mov     edi, [ebp+var_1C]
0x00402978	33C0	xor     eax, eax
0x0040297a	83FFFF	cmp     edi, 0FFFFFFFFh
0x0040297d	0F94C0	setz    al
0x00402980	8BF0	mov     esi, eax
0x00402982	85F6	test    esi, esi
0x00402984	740A	jz      short loc_402990
0x00402986	FF1528A04000	call    ds:__imp__GetLastError@0; GetLastError()
0x0040298c	8BD8	mov     ebx, eax
0x0040298e	EB02	jmp     short loc_402992
0x00402990	33DB	xor     ebx, ebx
0x00402992	8B4DE0	mov     ecx, [ebp+Cookie]
0x00402995	51	push    ecx; ulCookie
0x00402996	6A00	push    0; dwFlags
0x00402998	FF151CA04000	call    ds:__imp__DeactivateActCtx@8; DeactivateActCtx(x,x)
0x0040299e	85F6	test    esi, esi
0x004029a0	7407	jz      short loc_4029A9
0x004029a2	53	push    ebx; dwErrCode
0x004029a3	FF1544A04000	call    ds:__imp__SetLastError@4; SetLastError(x)
0x004029a9	C3	retn
CBitmap::_CBitmap:0x004029b0-0x004029bb
0x004029b0	C70144BF4000	mov     dword ptr [ecx], offset ??_7CBitmap@@6B@; const CBitmap::`vftable'
0x004029b6	E935000000	jmp     CGdiObject___CGdiObject
CGdiObject::_scalar_deleting_destructor_:0x004029c0-0x004029e2
0x004029c0	55	push    ebp
0x004029c1	8BEC	mov     ebp, esp
0x004029c3	56	push    esi
0x004029c4	8BF1	mov     esi, ecx
0x004029c6	E825000000	call    CGdiObject___CGdiObject
0x004029cb	F6450801	test    [ebp+arg_0], 1
0x004029cf	740A	jz      short loc_4029DB
0x004029d1	56	push    esi
0x004029d2	FF15CCAD4000	call    ds:__imp_??3@YAXPAX@Z; operator delete(void *)
0x004029d8	83C404	add     esp, 4
0x004029db	8BC6	mov     eax, esi
0x004029dd	5E	pop     esi
0x004029de	5D	pop     ebp
0x004029df	C20400	retn    4
CGdiObject::_CGdiObject:0x004029f0-0x00402ad4
0x004029f0	55	push    ebp
0x004029f1	8BEC	mov     ebp, esp
0x004029f3	6AFF	push    0FFFFFFFFh
0x004029f5	6829924000	push    offset CGdiObject___CGdiObject_SEH
0x004029fa	64A100000000	mov     eax, large fs:0
0x00402a00	50	push    eax
0x00402a01	64892500000000	mov     large fs:0, esp
0x00402a08	81EC0C040000	sub     esp, 40Ch
0x00402a0e	53	push    ebx
0x00402a0f	56	push    esi
0x00402a10	57	push    edi
0x00402a11	8965F0	mov     [ebp+var_10], esp
0x00402a14	C7012CBF4000	mov     dword ptr [ecx], offset ??_7CGdiObject@@6B@; const CGdiObject::`vftable'
0x00402a1a	C745FC00000000	mov     [ebp+var_4], 0
0x00402a21	FF15D4A24000	call    ds:__imp_?DeleteObject@CGdiObject@@QAEHXZ; CGdiObject::DeleteObject(void)
0x00402a27	8B4DF4	mov     ecx, [ebp+var_C]
0x00402a2a	5F	pop     edi
0x00402a2b	5E	pop     esi
0x00402a2c	64890D00000000	mov     large fs:0, ecx
0x00402a33	5B	pop     ebx
0x00402a34	8BE5	mov     esp, ebp
0x00402a36	5D	pop     ebp
0x00402a37	C3	retn
0x00402a38	8D4DEC	lea     ecx, [ebp+var_14]
0x00402a3b	FF15D0A24000	call    ds:__imp_??0?$CStringT@_WV?$StrTraitMFC_DLL@_WV?$ChTraitsCRT@_W@ATL@@@@@ATL@@QAE@XZ; ATL::CStringT<wchar_t,StrTraitMFC_DLL<wchar_t,ATL::ChTraitsCRT<wchar_t>>>::CStringT<wchar_t,StrTraitMFC_DLL<wchar_t,ATL::ChTraitsCRT<wchar_t>>>(void)
0x00402a41	C645FC02	mov     byte ptr [ebp+var_4], 2
0x00402a45	8B75E8	mov     esi, [ebp+var_18]
0x00402a48	8B06	mov     eax, [esi]
0x00402a4a	8B5014	mov     edx, [eax+14h]
0x00402a4d	6A00	push    0
0x00402a4f	6800020000	push    200h
0x00402a54	8D8DE8FBFFFF	lea     ecx, [ebp+var_418]
0x00402a5a	51	push    ecx
0x00402a5b	8BCE	mov     ecx, esi
0x00402a5d	FFD2	call    edx
0x00402a5f	85C0	test    eax, eax
0x00402a61	7427	jz      short loc_402A8A
0x00402a63	8D85E8FBFFFF	lea     eax, [ebp+var_418]
0x00402a69	50	push    eax
0x00402a6a	6A52	push    52h
0x00402a6c	6810BE4000	push    offset aCProgramFilesX; "c:\\Program Files (x86)\\Microsoft Visu"...
0x00402a71	68B4BE4000	push    offset aExceptionThrow; "Exception thrown in destructor"
0x00402a76	8D4DEC	lea     ecx, [ebp+var_14]
0x00402a79	68F4BE4000	push    offset aSSDS; "%s (%s:%d)\n%s"
0x00402a7e	51	push    ecx
0x00402a7f	FF15C8A24000	call    ds:__imp_?Format@?$CStringT@_WV?$StrTraitMFC_DLL@_WV?$ChTraitsCRT@_W@ATL@@@@@ATL@@QAAXPB_WZZ; ATL::CStringT<wchar_t,StrTraitMFC_DLL<wchar_t,ATL::ChTraitsCRT<wchar_t>>>::Format(wchar_t const *,...)
0x00402a85	83C418	add     esp, 18h
0x00402a88	EB1E	jmp     short loc_402AA8
0x00402a8a	6A52	push    52h
0x00402a8c	6810BE4000	push    offset aCProgramFilesX; "c:\\Program Files (x86)\\Microsoft Visu"...
0x00402a91	68B4BE4000	push    offset aExceptionThrow; "Exception thrown in destructor"
0x00402a96	8D55EC	lea     edx, [ebp+var_14]
0x00402a99	6810BF4000	push    offset aSSD; "%s (%s:%d)"
0x00402a9e	52	push    edx
0x00402a9f	FF15C8A24000	call    ds:__imp_?Format@?$CStringT@_WV?$StrTraitMFC_DLL@_WV?$ChTraitsCRT@_W@ATL@@@@@ATL@@QAAXPB_WZZ; ATL::CStringT<wchar_t,StrTraitMFC_DLL<wchar_t,ATL::ChTraitsCRT<wchar_t>>>::Format(wchar_t const *,...)
0x00402aa5	83C414	add     esp, 14h
0x00402aa8	8B45EC	mov     eax, [ebp+var_14]
0x00402aab	6A00	push    0
0x00402aad	6A00	push    0
0x00402aaf	50	push    eax
0x00402ab0	FF15A8A24000	call    ds:__imp_?AfxMessageBox@@YGHPB_WII@Z; AfxMessageBox(wchar_t const *,uint,uint)
0x00402ab6	8D4DEC	lea     ecx, [ebp+var_14]
0x00402ab9	C645FC01	mov     byte ptr [ebp+var_4], 1
0x00402abd	FF15CCA24000	call    ds:__imp_??1?$CStringT@_WV?$StrTraitMFC_DLL@_WV?$ChTraitsCRT@_W@ATL@@@@@ATL@@QAE@XZ; ATL::CStringT<wchar_t,StrTraitMFC_DLL<wchar_t,ATL::ChTraitsCRT<wchar_t>>>::~CStringT<wchar_t,StrTraitMFC_DLL<wchar_t,ATL::ChTraitsCRT<wchar_t>>>(void)
0x00402ac3	8B16	mov     edx, [esi]
0x00402ac5	8B4204	mov     eax, [edx+4]
0x00402ac8	6A01	push    1
0x00402aca	8BCE	mov     ecx, esi
0x00402acc	FFD0	call    eax
0x00402ace	B8272A4000	mov     eax, offset loc_402A27
0x00402ad3	C3	retn
CGdiObject::_CGdiObject:0x00409220-0x00409229
0x00409220	8D4DEC	lea     ecx, [ebp+var_14]
0x00409223	FF25CCA24000	jmp     ds:__imp_??1?$CStringT@_WV?$StrTraitMFC_DLL@_WV?$ChTraitsCRT@_W@ATL@@@@@ATL@@QAE@XZ; ATL::CStringT<wchar_t,StrTraitMFC_DLL<wchar_t,ATL::ChTraitsCRT<wchar_t>>>::~CStringT<wchar_t,StrTraitMFC_DLL<wchar_t,ATL::ChTraitsCRT<wchar_t>>>(void)
CBitmap::_scalar_deleting_destructor_:0x00402ae0-0x00402b08
0x00402ae0	55	push    ebp
0x00402ae1	8BEC	mov     ebp, esp
0x00402ae3	56	push    esi
0x00402ae4	8BF1	mov     esi, ecx
0x00402ae6	C70644BF4000	mov     dword ptr [esi], offset ??_7CBitmap@@6B@; const CBitmap::`vftable'
0x00402aec	E8FFFEFFFF	call    CGdiObject___CGdiObject
0x00402af1	F6450801	test    [ebp+arg_0], 1
0x00402af5	740A	jz      short loc_402B01
0x00402af7	56	push    esi
0x00402af8	FF15CCAD4000	call    ds:__imp_??3@YAXPAX@Z; operator delete(void *)
0x00402afe	83C404	add     esp, 4
0x00402b01	8BC6	mov     eax, esi
0x00402b03	5E	pop     esi
0x00402b04	5D	pop     ebp
0x00402b05	C20400	retn    4
CMenu::_CMenu:0x00402b10-0x00402b1c
0x00402b10	C7015CBF4000	mov     dword ptr [ecx], offset ??_7CMenu@@6B@; const CMenu::`vftable'
0x00402b16	FF2544A24000	jmp     ds:__imp_?DestroyMenu@CMenu@@QAEHXZ; CMenu::DestroyMenu(void)
CMenu::_scalar_deleting_destructor_:0x00402b20-0x00402b49
0x00402b20	55	push    ebp
0x00402b21	8BEC	mov     ebp, esp
0x00402b23	56	push    esi
0x00402b24	8BF1	mov     esi, ecx
0x00402b26	C7065CBF4000	mov     dword ptr [esi], offset ??_7CMenu@@6B@; const CMenu::`vftable'
0x00402b2c	FF1544A24000	call    ds:__imp_?DestroyMenu@CMenu@@QAEHXZ; CMenu::DestroyMenu(void)
0x00402b32	F6450801	test    [ebp+arg_0], 1
0x00402b36	740A	jz      short loc_402B42
0x00402b38	56	push    esi
0x00402b39	FF15CCAD4000	call    ds:__imp_??3@YAXPAX@Z; operator delete(void *)
0x00402b3f	83C404	add     esp, 4
0x00402b42	8BC6	mov     eax, esi
0x00402b44	5E	pop     esi
0x00402b45	5D	pop     ebp
0x00402b46	C20400	retn    4
CBasePane::GetPaneStyle:0x00402b50-0x00402b57
0x00402b50	8B8190000000	mov     eax, [ecx+90h]
0x00402b56	C3	retn
CBasePane::SetPaneStyle:0x00402b60-0x00402b70
0x00402b60	55	push    ebp
0x00402b61	8BEC	mov     ebp, esp
0x00402b63	8B4508	mov     eax, [ebp+arg_0]
0x00402b66	898190000000	mov     [ecx+90h], eax
0x00402b6c	5D	pop     ebp
0x00402b6d	C20400	retn    4
CFileView::_scalar_deleting_destructor_:0x00402b70-0x00402c00
0x00402b70	55	push    ebp
0x00402b71	8BEC	mov     ebp, esp
0x00402b73	6AFF	push    0FFFFFFFFh
0x00402b75	6886934000	push    offset CFileView___CFileView_SEH
0x00402b7a	64A100000000	mov     eax, large fs:0
0x00402b80	50	push    eax
0x00402b81	64892500000000	mov     large fs:0, esp
0x00402b88	51	push    ecx
0x00402b89	56	push    esi
0x00402b8a	8BF1	mov     esi, ecx
0x00402b8c	8975F0	mov     [ebp+var_10], esi
0x00402b8f	C70644C74000	mov     dword ptr [esi], offset ??_7CFileView@@6B@; const CFileView::`vftable'
0x00402b95	8D8ECC030000	lea     ecx, [esi+3CCh]
0x00402b9b	C745FC02000000	mov     [ebp+var_4], 2
0x00402ba2	FF1520A24000	call    ds:__imp_??1CMFCToolBar@@UAE@XZ; CMFCToolBar::~CMFCToolBar(void)
0x00402ba8	8D8EC4030000	lea     ecx, [esi+3C4h]
0x00402bae	C645FC01	mov     byte ptr [ebp+var_4], 1
0x00402bb2	FF1518A24000	call    ds:__imp_??1CImageList@@UAE@XZ; CImageList::~CImageList(void)
0x00402bb8	8D8E50030000	lea     ecx, [esi+350h]
0x00402bbe	C645FC00	mov     byte ptr [ebp+var_4], 0
0x00402bc2	C70114EC4000	mov     dword ptr [ecx], offset ??_7CViewTree@@6B@; const CViewTree::`vftable'
0x00402bc8	FF1524AC4000	call    ds:__imp_??1CTreeCtrl@@UAE@XZ; CTreeCtrl::~CTreeCtrl(void)
0x00402bce	8BCE	mov     ecx, esi
0x00402bd0	C745FCFFFFFFFF	mov     [ebp+var_4], 0FFFFFFFFh
0x00402bd7	FF1510A24000	call    ds:__imp_??1CDockablePane@@UAE@XZ; CDockablePane::~CDockablePane(void)
0x00402bdd	F6450801	test    [ebp+arg_0], 1
0x00402be1	740A	jz      short loc_402BED
0x00402be3	56	push    esi
0x00402be4	FF15CCAD4000	call    ds:__imp_??3@YAXPAX@Z; operator delete(void *)
0x00402bea	83C404	add     esp, 4
0x00402bed	8B4DF4	mov     ecx, [ebp+var_C]
0x00402bf0	8BC6	mov     eax, esi
0x00402bf2	5E	pop     esi
0x00402bf3	64890D00000000	mov     large fs:0, ecx
0x00402bfa	8BE5	mov     esp, ebp
0x00402bfc	5D	pop     ebp
0x00402bfd	C20400	retn    4
CFileView::_scalar_deleting_destructor_:0x00409360-0x00409386
0x00409360	8B4DF0	mov     ecx, [ebp+var_10]
0x00409363	FF2510A24000	jmp     ds:__imp_??1CDockablePane@@UAE@XZ; CDockablePane::~CDockablePane(void)
0x00409369	8B4DF0	mov     ecx, [ebp+var_10]
0x0040936c	81C150030000	add     ecx, 350h
0x00409372	E989E4FFFF	jmp     CViewTree___CViewTree
0x00409377	8B4DF0	mov     ecx, [ebp+var_10]
0x0040937a	81C1C4030000	add     ecx, 3C4h
0x00409380	FF2518A24000	jmp     ds:__imp_??1CImageList@@UAE@XZ; CImageList::~CImageList(void)
CFileView::_CFileView:0x00402c00-0x00402c7c
0x00402c00	55	push    ebp
0x00402c01	8BEC	mov     ebp, esp
0x00402c03	6AFF	push    0FFFFFFFFh
0x00402c05	6886934000	push    offset CFileView___CFileView_SEH
0x00402c0a	64A100000000	mov     eax, large fs:0
0x00402c10	50	push    eax
0x00402c11	64892500000000	mov     large fs:0, esp
0x00402c18	51	push    ecx
0x00402c19	56	push    esi
0x00402c1a	8BF1	mov     esi, ecx
0x00402c1c	8975F0	mov     [ebp+var_10], esi
0x00402c1f	C70644C74000	mov     dword ptr [esi], offset ??_7CFileView@@6B@; const CFileView::`vftable'
0x00402c25	8D8ECC030000	lea     ecx, [esi+3CCh]
0x00402c2b	C745FC02000000	mov     [ebp+var_4], 2
0x00402c32	FF1520A24000	call    ds:__imp_??1CMFCToolBar@@UAE@XZ; CMFCToolBar::~CMFCToolBar(void)
0x00402c38	8D8EC4030000	lea     ecx, [esi+3C4h]
0x00402c3e	C645FC01	mov     byte ptr [ebp+var_4], 1
0x00402c42	FF1518A24000	call    ds:__imp_??1CImageList@@UAE@XZ; CImageList::~CImageList(void)
0x00402c48	8D8E50030000	lea     ecx, [esi+350h]
0x00402c4e	C645FC00	mov     byte ptr [ebp+var_4], 0
0x00402c52	C70114EC4000	mov     dword ptr [ecx], offset ??_7CViewTree@@6B@; const CViewTree::`vftable'
0x00402c58	FF1524AC4000	call    ds:__imp_??1CTreeCtrl@@UAE@XZ; CTreeCtrl::~CTreeCtrl(void)
0x00402c5e	8BCE	mov     ecx, esi
0x00402c60	C745FCFFFFFFFF	mov     [ebp+var_4], 0FFFFFFFFh
0x00402c67	FF1510A24000	call    ds:__imp_??1CDockablePane@@UAE@XZ; CDockablePane::~CDockablePane(void)
0x00402c6d	8B4DF4	mov     ecx, [ebp+var_C]
0x00402c70	5E	pop     esi
0x00402c71	64890D00000000	mov     large fs:0, ecx
0x00402c78	8BE5	mov     esp, ebp
0x00402c7a	5D	pop     ebp
0x00402c7b	C3	retn
CFileView::GetMessageMap:0x00402c80-0x00402c86
0x00402c80	B8B0C04000	mov     eax, offset off_40C0B0
0x00402c85	C3	retn
CFileView::OnCreate:0x00402c90-0x00402df6
0x00402c90	55	push    ebp
0x00402c91	8BEC	mov     ebp, esp
0x00402c93	83E4F8	and     esp, 0FFFFFFF8h
0x00402c96	8B4508	mov     eax, [ebp+arg_0]
0x00402c99	83EC14	sub     esp, 14h
0x00402c9c	53	push    ebx
0x00402c9d	56	push    esi
0x00402c9e	57	push    edi
0x00402c9f	50	push    eax
0x00402ca0	8BF9	mov     edi, ecx
0x00402ca2	FF1528A24000	call    ds:__imp_?OnCreate@CDockablePane@@IAEHPAUtagCREATESTRUCTW@@@Z; CDockablePane::OnCreate(tagCREATESTRUCTW *)
0x00402ca8	83F8FF	cmp     eax, 0FFFFFFFFh
0x00402cab	750C	jnz     short loc_402CB9
0x00402cad	83C8FF	or      eax, 0FFFFFFFFh
0x00402cb0	5F	pop     edi
0x00402cb1	5E	pop     esi
0x00402cb2	5B	pop     ebx
0x00402cb3	8BE5	mov     esp, ebp
0x00402cb5	5D	pop     ebp
0x00402cb6	C20400	retn    4
0x00402cb9	33DB	xor     ebx, ebx
0x00402cbb	8D4C2410	lea     ecx, [esp+20h+rc]
0x00402cbf	51	push    ecx; lprc
0x00402cc0	895C2414	mov     [esp+24h+rc.left], ebx
0x00402cc4	895C2418	mov     [esp+24h+rc.top], ebx
0x00402cc8	895C241C	mov     [esp+24h+rc.right], ebx
0x00402ccc	895C2420	mov     [esp+24h+rc.bottom], ebx
0x00402cd0	FF1568A14000	call    ds:__imp__SetRectEmpty@4; SetRectEmpty(x)
0x00402cd6	6A04	push    4
0x00402cd8	57	push    edi
0x00402cd9	8D542418	lea     edx, [esp+28h+rc]
0x00402cdd	52	push    edx
0x00402cde	6807000050	push    50000007h
0x00402ce3	8D8F50030000	lea     ecx, [edi+350h]
0x00402ce9	FF152CA24000	call    ds:__imp_?Create@CTreeCtrl@@QAEHKABUtagRECT@@PAVCWnd@@I@Z; CTreeCtrl::Create(ulong,tagRECT const &,CWnd *,uint)
0x00402cef	85C0	test    eax, eax
0x00402cf1	74BA	jz      short loc_402CAD
0x00402cf3	68FF00FF00	push    0FF00FFh
0x00402cf8	53	push    ebx
0x00402cf9	6A10	push    10h
0x00402cfb	8DB7C4030000	lea     esi, [edi+3C4h]
0x00402d01	68AF000000	push    0AFh
0x00402d06	8BCE	mov     ecx, esi
0x00402d08	FF15A0A64000	call    ds:__imp_?Create@CImageList@@QAEHIHHK@Z; CImageList::Create(uint,int,int,ulong)
0x00402d0e	3BF3	cmp     esi, ebx
0x00402d10	7504	jnz     short loc_402D16
0x00402d12	33C0	xor     eax, eax
0x00402d14	EB03	jmp     short loc_402D19
0x00402d16	8B4604	mov     eax, [esi+4]
0x00402d19	50	push    eax; lParam
0x00402d1a	8B8770030000	mov     eax, [edi+370h]
0x00402d20	53	push    ebx; wParam
0x00402d21	6809110000	push    1109h; Msg
0x00402d26	50	push    eax; hWnd
0x00402d27	FF155CA14000	call    ds:__imp__SendMessageW@16; SendMessageW(x,x,x,x)
0x00402d2d	50	push    eax
0x00402d2e	FF15ECA24000	call    ds:__imp_?FromHandle@CImageList@@SGPAV1@PAU_IMAGELIST@@@Z; CImageList::FromHandle(_IMAGELIST *)
0x00402d34	8B97CC030000	mov     edx, [edi+3CCh]
0x00402d3a	8B8228030000	mov     eax, [edx+328h]
0x00402d40	68A9000000	push    0A9h
0x00402d45	6808284050	push    50402808h
0x00402d4a	57	push    edi
0x00402d4b	8D8FCC030000	lea     ecx, [edi+3CCh]
0x00402d51	FFD0	call    eax
0x00402d53	8B97CC030000	mov     edx, [edi+3CCh]
0x00402d59	8B8238030000	mov     eax, [edx+338h]
0x00402d5f	53	push    ebx
0x00402d60	53	push    ebx
0x00402d61	53	push    ebx
0x00402d62	6A01	push    1
0x00402d64	53	push    ebx
0x00402d65	53	push    ebx
0x00402d66	68A9000000	push    0A9h
0x00402d6b	8D8FCC030000	lea     ecx, [edi+3CCh]
0x00402d71	FFD0	call    eax
0x00402d73	E848060000	call    CFileView__OnChangeVisualStyle
0x00402d78	8B9FCC030000	mov     ebx, [edi+3CCh]
0x00402d7e	8B93C4010000	mov     edx, [ebx+1C4h]
0x00402d84	8D8FCC030000	lea     ecx, [edi+3CCh]
0x00402d8a	FFD2	call    edx
0x00402d8c	83C830	or      eax, 30h
0x00402d8f	50	push    eax
0x00402d90	8B83E8010000	mov     eax, [ebx+1E8h]
0x00402d96	8D8FCC030000	lea     ecx, [edi+3CCh]
0x00402d9c	FFD0	call    eax
0x00402d9e	8B9FCC030000	mov     ebx, [edi+3CCh]
0x00402da4	8B93C4010000	mov     edx, [ebx+1C4h]
0x00402daa	8D8FCC030000	lea     ecx, [edi+3CCh]
0x00402db0	FFD2	call    edx
0x00402db2	25FBF0BFFF	and     eax, 0FFBFF0FBh
0x00402db7	50	push    eax
0x00402db8	8B83E8010000	mov     eax, [ebx+1E8h]
0x00402dbe	8D8FCC030000	lea     ecx, [edi+3CCh]
0x00402dc4	FFD0	call    eax
0x00402dc6	8B4F20	mov     ecx, [edi+20h]
0x00402dc9	57	push    edi
0x00402dca	898F20040000	mov     [edi+420h], ecx
0x00402dd0	C7870C0F000000000000	mov     dword ptr [edi+0F0Ch], 0
0x00402dda	E851000000	call    CFileView__FillFileView
0x00402ddf	8B17	mov     edx, [edi]
0x00402de1	8B8210020000	mov     eax, [edx+210h]
0x00402de7	8BCF	mov     ecx, edi
0x00402de9	FFD0	call    eax
0x00402deb	5F	pop     edi
0x00402dec	5E	pop     esi
0x00402ded	33C0	xor     eax, eax
0x00402def	5B	pop     ebx
0x00402df0	8BE5	mov     esp, ebp
0x00402df2	5D	pop     ebp
0x00402df3	C20400	retn    4
CFileView::OnSize:0x00402e00-0x00402e2b
0x00402e00	55	push    ebp
0x00402e01	8BEC	mov     ebp, esp
0x00402e03	8B4510	mov     eax, [ebp+arg_8]
0x00402e06	8B5508	mov     edx, [ebp+arg_0]
0x00402e09	56	push    esi
0x00402e0a	8BF1	mov     esi, ecx
0x00402e0c	8B4D0C	mov     ecx, [ebp+arg_4]
0x00402e0f	50	push    eax
0x00402e10	51	push    ecx
0x00402e11	52	push    edx
0x00402e12	8BCE	mov     ecx, esi
0x00402e14	FF156CA24000	call    ds:__imp_?OnSize@CBasePane@@IAEXIHH@Z; CBasePane::OnSize(uint,int,int)
0x00402e1a	8B06	mov     eax, [esi]
0x00402e1c	8B9010020000	mov     edx, [eax+210h]
0x00402e22	8BCE	mov     ecx, esi
0x00402e24	FFD2	call    edx
0x00402e26	5E	pop     esi
0x00402e27	5D	pop     ebp
0x00402e28	C20C00	retn    0Ch
CFileView::FillFileView:0x00402e30-0x004030f5
0x00402e30	55	push    ebp
0x00402e31	8BEC	mov     ebp, esp
0x00402e33	83EC0C	sub     esp, 0Ch
0x00402e36	53	push    ebx
0x00402e37	56	push    esi
0x00402e38	8B7508	mov     esi, [ebp+arg_0]
0x00402e3b	57	push    edi
0x00402e3c	8B3D70A24000	mov     edi, ds:__imp_?InsertItem@CTreeCtrl@@QAEPAU_TREEITEM@@IPB_WHHIIJPAU2@1@Z; CTreeCtrl::InsertItem(uint,wchar_t const *,int,int,uint,uint,long,_TREEITEM *,_TREEITEM *)
0x00402e42	680200FFFF	push    0FFFF0002h
0x00402e47	680000FFFF	push    0FFFF0000h
0x00402e4c	6A00	push    0
0x00402e4e	6A00	push    0
0x00402e50	6A00	push    0
0x00402e52	6A00	push    0
0x00402e54	6A00	push    0
0x00402e56	68B8C04000	push    offset aFakeapp_0; "FakeApp "
0x00402e5b	81C650030000	add     esi, 350h
0x00402e61	6A23	push    23h
0x00402e63	8BCE	mov     ecx, esi
0x00402e65	FFD7	call    edi ; CTreeCtrl::InsertItem(uint,wchar_t const *,int,int,uint,uint,long,_TREEITEM *,_TREEITEM *); CTreeCtrl::InsertItem(uint,wchar_t const *,int,int,uint,uint,long,_TREEITEM *,_TREEITEM *)
0x00402e67	6A00	push    0
0x00402e69	6A10	push    10h
0x00402e6b	6A10	push    10h
0x00402e6d	6A00	push    0
0x00402e6f	6A00	push    0
0x00402e71	6A00	push    0
0x00402e73	8BD8	mov     ebx, eax
0x00402e75	6A08	push    8
0x00402e77	53	push    ebx
0x00402e78	8BCE	mov     ecx, esi
0x00402e7a	895DF4	mov     [ebp+lParam], ebx
0x00402e7d	FF1574A24000	call    ds:__imp_?SetItem@CTreeCtrl@@QAEHPAU_TREEITEM@@IPB_WHHIIJ@Z; CTreeCtrl::SetItem(_TREEITEM *,uint,wchar_t const *,int,int,uint,uint,long)
0x00402e83	680200FFFF	push    0FFFF0002h
0x00402e88	53	push    ebx
0x00402e89	6A00	push    0
0x00402e8b	6A00	push    0
0x00402e8d	6A00	push    0
0x00402e8f	6A00	push    0
0x00402e91	6A00	push    0
0x00402e93	68D0C04000	push    offset aFakeapp_2; "FakeApp "
0x00402e98	6A23	push    23h
0x00402e9a	8BCE	mov     ecx, esi
0x00402e9c	FFD7	call    edi ; CTreeCtrl::InsertItem(uint,wchar_t const *,int,int,uint,uint,long,_TREEITEM *,_TREEITEM *); CTreeCtrl::InsertItem(uint,wchar_t const *,int,int,uint,uint,long,_TREEITEM *,_TREEITEM *)
0x00402e9e	680200FFFF	push    0FFFF0002h
0x00402ea3	8BD8	mov     ebx, eax
0x00402ea5	53	push    ebx
0x00402ea6	6A00	push    0
0x00402ea8	6A00	push    0
0x00402eaa	6A00	push    0
0x00402eac	6A01	push    1
0x00402eae	6A01	push    1
0x00402eb0	68E8C04000	push    offset aFakeappCpp; "FakeApp.cpp"
0x00402eb5	6A23	push    23h
0x00402eb7	8BCE	mov     ecx, esi
0x00402eb9	FFD7	call    edi ; CTreeCtrl::InsertItem(uint,wchar_t const *,int,int,uint,uint,long,_TREEITEM *,_TREEITEM *); CTreeCtrl::InsertItem(uint,wchar_t const *,int,int,uint,uint,long,_TREEITEM *,_TREEITEM *)
0x00402ebb	680200FFFF	push    0FFFF0002h
0x00402ec0	53	push    ebx
0x00402ec1	6A00	push    0
0x00402ec3	6A00	push    0
0x00402ec5	6A00	push    0
0x00402ec7	6A01	push    1
0x00402ec9	6A01	push    1
0x00402ecb	6800C14000	push    offset aFakeappRc; "FakeApp.rc"
0x00402ed0	6A23	push    23h
0x00402ed2	8BCE	mov     ecx, esi
0x00402ed4	FFD7	call    edi ; CTreeCtrl::InsertItem(uint,wchar_t const *,int,int,uint,uint,long,_TREEITEM *,_TREEITEM *); CTreeCtrl::InsertItem(uint,wchar_t const *,int,int,uint,uint,long,_TREEITEM *,_TREEITEM *)
0x00402ed6	680200FFFF	push    0FFFF0002h
0x00402edb	53	push    ebx
0x00402edc	6A00	push    0
0x00402ede	6A00	push    0
0x00402ee0	6A00	push    0
0x00402ee2	6A01	push    1
0x00402ee4	6A01	push    1
0x00402ee6	6818C14000	push    offset aFakeappdocCpp; "FakeAppDoc.cpp"
0x00402eeb	6A23	push    23h
0x00402eed	8BCE	mov     ecx, esi
0x00402eef	FFD7	call    edi ; CTreeCtrl::InsertItem(uint,wchar_t const *,int,int,uint,uint,long,_TREEITEM *,_TREEITEM *); CTreeCtrl::InsertItem(uint,wchar_t const *,int,int,uint,uint,long,_TREEITEM *,_TREEITEM *)
0x00402ef1	680200FFFF	push    0FFFF0002h
0x00402ef6	53	push    ebx
0x00402ef7	6A00	push    0
0x00402ef9	6A00	push    0
0x00402efb	6A00	push    0
0x00402efd	6A01	push    1
0x00402eff	6A01	push    1
0x00402f01	6838C14000	push    offset aFakeappviewCpp; "FakeAppView.cpp"
0x00402f06	6A23	push    23h
0x00402f08	8BCE	mov     ecx, esi
0x00402f0a	FFD7	call    edi ; CTreeCtrl::InsertItem(uint,wchar_t const *,int,int,uint,uint,long,_TREEITEM *,_TREEITEM *); CTreeCtrl::InsertItem(uint,wchar_t const *,int,int,uint,uint,long,_TREEITEM *,_TREEITEM *)
0x00402f0c	680200FFFF	push    0FFFF0002h
0x00402f11	53	push    ebx
0x00402f12	6A00	push    0
0x00402f14	6A00	push    0
0x00402f16	6A00	push    0
0x00402f18	6A01	push    1
0x00402f1a	6A01	push    1
0x00402f1c	6858C14000	push    offset aMainfrmCpp; "MainFrm.cpp"
0x00402f21	6A23	push    23h
0x00402f23	8BCE	mov     ecx, esi
0x00402f25	FFD7	call    edi ; CTreeCtrl::InsertItem(uint,wchar_t const *,int,int,uint,uint,long,_TREEITEM *,_TREEITEM *); CTreeCtrl::InsertItem(uint,wchar_t const *,int,int,uint,uint,long,_TREEITEM *,_TREEITEM *)
0x00402f27	680200FFFF	push    0FFFF0002h
0x00402f2c	53	push    ebx
0x00402f2d	6A00	push    0
0x00402f2f	6A00	push    0
0x00402f31	6A00	push    0
0x00402f33	6A01	push    1
0x00402f35	6A01	push    1
0x00402f37	6870C14000	push    offset aStdafxCpp; "StdAfx.cpp"
0x00402f3c	6A23	push    23h
0x00402f3e	8BCE	mov     ecx, esi
0x00402f40	FFD7	call    edi ; CTreeCtrl::InsertItem(uint,wchar_t const *,int,int,uint,uint,long,_TREEITEM *,_TREEITEM *); CTreeCtrl::InsertItem(uint,wchar_t const *,int,int,uint,uint,long,_TREEITEM *,_TREEITEM *)
0x00402f42	8B45F4	mov     eax, [ebp+lParam]
0x00402f45	680200FFFF	push    0FFFF0002h
0x00402f4a	50	push    eax
0x00402f4b	6A00	push    0
0x00402f4d	6A00	push    0
0x00402f4f	6A00	push    0
0x00402f51	6A00	push    0
0x00402f53	6A00	push    0
0x00402f55	6888C14000	push    offset aFakeapp_3; "FakeApp "
0x00402f5a	6A23	push    23h
0x00402f5c	8BCE	mov     ecx, esi
0x00402f5e	FFD7	call    edi ; CTreeCtrl::InsertItem(uint,wchar_t const *,int,int,uint,uint,long,_TREEITEM *,_TREEITEM *); CTreeCtrl::InsertItem(uint,wchar_t const *,int,int,uint,uint,long,_TREEITEM *,_TREEITEM *)
0x00402f60	680200FFFF	push    0FFFF0002h
0x00402f65	50	push    eax
0x00402f66	6A00	push    0
0x00402f68	6A00	push    0
0x00402f6a	6A00	push    0
0x00402f6c	6A02	push    2
0x00402f6e	6A02	push    2
0x00402f70	68A0C14000	push    offset aFakeappH; "FakeApp.h"
0x00402f75	6A23	push    23h
0x00402f77	8BCE	mov     ecx, esi
0x00402f79	8945FC	mov     [ebp+var_4], eax
0x00402f7c	FFD7	call    edi ; CTreeCtrl::InsertItem(uint,wchar_t const *,int,int,uint,uint,long,_TREEITEM *,_TREEITEM *); CTreeCtrl::InsertItem(uint,wchar_t const *,int,int,uint,uint,long,_TREEITEM *,_TREEITEM *)
0x00402f7e	8B4DFC	mov     ecx, [ebp+var_4]
0x00402f81	680200FFFF	push    0FFFF0002h
0x00402f86	51	push    ecx
0x00402f87	6A00	push    0
0x00402f89	6A00	push    0
0x00402f8b	6A00	push    0
0x00402f8d	6A02	push    2
0x00402f8f	6A02	push    2
0x00402f91	68B4C14000	push    offset aFakeappdocH; "FakeAppDoc.h"
0x00402f96	6A23	push    23h
0x00402f98	8BCE	mov     ecx, esi
0x00402f9a	FFD7	call    edi ; CTreeCtrl::InsertItem(uint,wchar_t const *,int,int,uint,uint,long,_TREEITEM *,_TREEITEM *); CTreeCtrl::InsertItem(uint,wchar_t const *,int,int,uint,uint,long,_TREEITEM *,_TREEITEM *)
0x00402f9c	8B55FC	mov     edx, [ebp+var_4]
0x00402f9f	680200FFFF	push    0FFFF0002h
0x00402fa4	52	push    edx
0x00402fa5	6A00	push    0
0x00402fa7	6A00	push    0
0x00402fa9	6A00	push    0
0x00402fab	6A02	push    2
0x00402fad	6A02	push    2
0x00402faf	68D0C14000	push    offset aFakeappviewH; "FakeAppView.h"
0x00402fb4	6A23	push    23h
0x00402fb6	8BCE	mov     ecx, esi
0x00402fb8	FFD7	call    edi ; CTreeCtrl::InsertItem(uint,wchar_t const *,int,int,uint,uint,long,_TREEITEM *,_TREEITEM *); CTreeCtrl::InsertItem(uint,wchar_t const *,int,int,uint,uint,long,_TREEITEM *,_TREEITEM *)
0x00402fba	8B45FC	mov     eax, [ebp+var_4]
0x00402fbd	680200FFFF	push    0FFFF0002h
0x00402fc2	50	push    eax
0x00402fc3	6A00	push    0
0x00402fc5	6A00	push    0
0x00402fc7	6A00	push    0
0x00402fc9	6A02	push    2
0x00402fcb	6A02	push    2
0x00402fcd	68ECC14000	push    offset aResourceH; "Resource.h"
0x00402fd2	6A23	push    23h
0x00402fd4	8BCE	mov     ecx, esi
0x00402fd6	FFD7	call    edi ; CTreeCtrl::InsertItem(uint,wchar_t const *,int,int,uint,uint,long,_TREEITEM *,_TREEITEM *); CTreeCtrl::InsertItem(uint,wchar_t const *,int,int,uint,uint,long,_TREEITEM *,_TREEITEM *)
0x00402fd8	8B4DFC	mov     ecx, [ebp+var_4]
0x00402fdb	680200FFFF	push    0FFFF0002h
0x00402fe0	51	push    ecx
0x00402fe1	6A00	push    0
0x00402fe3	6A00	push    0
0x00402fe5	6A00	push    0
0x00402fe7	6A02	push    2
0x00402fe9	6A02	push    2
0x00402feb	6804C24000	push    offset aMainfrmH; "MainFrm.h"
0x00402ff0	6A23	push    23h
0x00402ff2	8BCE	mov     ecx, esi
0x00402ff4	FFD7	call    edi ; CTreeCtrl::InsertItem(uint,wchar_t const *,int,int,uint,uint,long,_TREEITEM *,_TREEITEM *); CTreeCtrl::InsertItem(uint,wchar_t const *,int,int,uint,uint,long,_TREEITEM *,_TREEITEM *)
0x00402ff6	8B55FC	mov     edx, [ebp+var_4]
0x00402ff9	680200FFFF	push    0FFFF0002h
0x00402ffe	52	push    edx
0x00402fff	6A00	push    0
0x00403001	6A00	push    0
0x00403003	6A00	push    0
0x00403005	6A02	push    2
0x00403007	6A02	push    2
0x00403009	6818C24000	push    offset aStdafxH; "StdAfx.h"
0x0040300e	6A23	push    23h
0x00403010	8BCE	mov     ecx, esi
0x00403012	FFD7	call    edi ; CTreeCtrl::InsertItem(uint,wchar_t const *,int,int,uint,uint,long,_TREEITEM *,_TREEITEM *); CTreeCtrl::InsertItem(uint,wchar_t const *,int,int,uint,uint,long,_TREEITEM *,_TREEITEM *)
0x00403014	8B45F4	mov     eax, [ebp+lParam]
0x00403017	680200FFFF	push    0FFFF0002h
0x0040301c	50	push    eax
0x0040301d	6A00	push    0
0x0040301f	6A00	push    0
0x00403021	6A00	push    0
0x00403023	6A00	push    0
0x00403025	6A00	push    0
0x00403027	682CC24000	push    offset aFakeapp_1; "FakeApp "
0x0040302c	6A23	push    23h
0x0040302e	8BCE	mov     ecx, esi
0x00403030	FFD7	call    edi ; CTreeCtrl::InsertItem(uint,wchar_t const *,int,int,uint,uint,long,_TREEITEM *,_TREEITEM *); CTreeCtrl::InsertItem(uint,wchar_t const *,int,int,uint,uint,long,_TREEITEM *,_TREEITEM *)
0x00403032	680200FFFF	push    0FFFF0002h
0x00403037	50	push    eax
0x00403038	6A00	push    0
0x0040303a	6A00	push    0
0x0040303c	6A00	push    0
0x0040303e	6A02	push    2
0x00403040	6A02	push    2
0x00403042	6848C24000	push    offset aFakeappIco; "FakeApp.ico"
0x00403047	6A23	push    23h
0x00403049	8BCE	mov     ecx, esi
0x0040304b	8945F8	mov     [ebp+var_8], eax
0x0040304e	FFD7	call    edi ; CTreeCtrl::InsertItem(uint,wchar_t const *,int,int,uint,uint,long,_TREEITEM *,_TREEITEM *); CTreeCtrl::InsertItem(uint,wchar_t const *,int,int,uint,uint,long,_TREEITEM *,_TREEITEM *)
0x00403050	8B4DF8	mov     ecx, [ebp+var_8]
0x00403053	680200FFFF	push    0FFFF0002h
0x00403058	51	push    ecx
0x00403059	6A00	push    0
0x0040305b	6A00	push    0
0x0040305d	6A00	push    0
0x0040305f	6A02	push    2
0x00403061	6A02	push    2
0x00403063	6860C24000	push    offset aFakeappRc2; "FakeApp.rc2"
0x00403068	6A23	push    23h
0x0040306a	8BCE	mov     ecx, esi
0x0040306c	FFD7	call    edi ; CTreeCtrl::InsertItem(uint,wchar_t const *,int,int,uint,uint,long,_TREEITEM *,_TREEITEM *); CTreeCtrl::InsertItem(uint,wchar_t const *,int,int,uint,uint,long,_TREEITEM *,_TREEITEM *)
0x0040306e	8B55F8	mov     edx, [ebp+var_8]
0x00403071	680200FFFF	push    0FFFF0002h
0x00403076	52	push    edx
0x00403077	6A00	push    0
0x00403079	6A00	push    0
0x0040307b	6A00	push    0
0x0040307d	6A02	push    2
0x0040307f	6A02	push    2
0x00403081	6878C24000	push    offset aFakeappdocIco; "FakeAppDoc.ico"
0x00403086	6A23	push    23h
0x00403088	8BCE	mov     ecx, esi
0x0040308a	FFD7	call    edi ; CTreeCtrl::InsertItem(uint,wchar_t const *,int,int,uint,uint,long,_TREEITEM *,_TREEITEM *); CTreeCtrl::InsertItem(uint,wchar_t const *,int,int,uint,uint,long,_TREEITEM *,_TREEITEM *)
0x0040308c	8B45F8	mov     eax, [ebp+var_8]
0x0040308f	680200FFFF	push    0FFFF0002h
0x00403094	50	push    eax
0x00403095	6A00	push    0
0x00403097	6A00	push    0
0x00403099	6A00	push    0
0x0040309b	6A02	push    2
0x0040309d	6A02	push    2
0x0040309f	6898C24000	push    offset aFaketoolbarBmp; "FakeToolbar.bmp"
0x004030a4	6A23	push    23h
0x004030a6	8BCE	mov     ecx, esi
0x004030a8	FFD7	call    edi ; CTreeCtrl::InsertItem(uint,wchar_t const *,int,int,uint,uint,long,_TREEITEM *,_TREEITEM *); CTreeCtrl::InsertItem(uint,wchar_t const *,int,int,uint,uint,long,_TREEITEM *,_TREEITEM *)
0x004030aa	8B4DF4	mov     ecx, [ebp+lParam]
0x004030ad	8B7508	mov     esi, [ebp+arg_0]
0x004030b0	8B9670030000	mov     edx, [esi+370h]
0x004030b6	8B3D5CA14000	mov     edi, ds:__imp__SendMessageW@16; SendMessageW(x,x,x,x)
0x004030bc	51	push    ecx; lParam
0x004030bd	6A02	push    2; wParam
0x004030bf	6802110000	push    1102h; Msg
0x004030c4	52	push    edx; hWnd
0x004030c5	FFD7	call    edi ; SendMessageW(x,x,x,x); SendMessageW(x,x,x,x)
0x004030c7	8B8670030000	mov     eax, [esi+370h]
0x004030cd	53	push    ebx; lParam
0x004030ce	6A02	push    2; wParam
0x004030d0	6802110000	push    1102h; Msg
0x004030d5	50	push    eax; hWnd
0x004030d6	FFD7	call    edi ; SendMessageW(x,x,x,x); SendMessageW(x,x,x,x)
0x004030d8	8B4DFC	mov     ecx, [ebp+var_4]
0x004030db	8B9670030000	mov     edx, [esi+370h]
0x004030e1	51	push    ecx; lParam
0x004030e2	6A02	push    2; wParam
0x004030e4	6802110000	push    1102h; Msg
0x004030e9	52	push    edx; hWnd
0x004030ea	FFD7	call    edi ; SendMessageW(x,x,x,x); SendMessageW(x,x,x,x)
0x004030ec	5F	pop     edi
0x004030ed	5E	pop     esi
0x004030ee	5B	pop     ebx
0x004030ef	8BE5	mov     esp, ebp
0x004030f1	5D	pop     ebp
0x004030f2	C20400	retn    4
CFileView::OnContextMenu:0x00403100-0x004031c1
0x00403100	55	push    ebp
0x00403101	8BEC	mov     ebp, esp
0x00403103	83E4F8	and     esp, 0FFFFFFF8h
0x00403106	8B4508	mov     eax, [ebp+arg_0]
0x00403109	83EC10	sub     esp, 10h
0x0040310c	56	push    esi
0x0040310d	57	push    edi
0x0040310e	8BF9	mov     edi, ecx
0x00403110	8B4D10	mov     ecx, [ebp+arg_8]
0x00403113	8DB750030000	lea     esi, [edi+350h]
0x00403119	3BC6	cmp     eax, esi
0x0040311b	7416	jz      short loc_403133
0x0040311d	8B550C	mov     edx, [ebp+arg_4]
0x00403120	51	push    ecx
0x00403121	52	push    edx
0x00403122	50	push    eax
0x00403123	8BCF	mov     ecx, edi
0x00403125	FF1578A24000	call    ds:__imp_?OnContextMenu@CDockablePane@@IAEXPAVCWnd@@VCPoint@@@Z; CDockablePane::OnContextMenu(CWnd *,CPoint)
0x0040312b	5F	pop     edi
0x0040312c	5E	pop     esi
0x0040312d	8BE5	mov     esp, ebp
0x0040312f	5D	pop     ebp
0x00403130	C20C00	retn    0Ch
0x00403133	8B450C	mov     eax, [ebp+arg_4]
0x00403136	83F8FF	cmp     eax, 0FFFFFFFFh
0x00403139	7504	jnz     short loc_40313F
0x0040313b	3BC8	cmp     ecx, eax
0x0040313d	744C	jz      short loc_40318B
0x0040313f	89442410	mov     [esp+18h+Point.x], eax
0x00403143	8D442410	lea     eax, [esp+18h+Point]
0x00403147	894C2414	mov     [esp+18h+Point.y], ecx
0x0040314b	8B4E20	mov     ecx, [esi+20h]
0x0040314e	50	push    eax; lpPoint
0x0040314f	51	push    ecx; hWnd
0x00403150	FF1558A14000	call    ds:__imp__ScreenToClient@8; ScreenToClient(x,x)
0x00403156	8B442414	mov     eax, [esp+18h+Point.y]
0x0040315a	8B4C2410	mov     ecx, [esp+18h+Point.x]
0x0040315e	8D54240C	lea     edx, [esp+18h+var_C]
0x00403162	52	push    edx
0x00403163	50	push    eax
0x00403164	51	push    ecx
0x00403165	8BCE	mov     ecx, esi
0x00403167	C744241800000000	mov     [esp+24h+var_C], 0
0x0040316f	FF157CA24000	call    ds:__imp_?HitTest@CTreeCtrl@@QBEPAU_TREEITEM@@VCPoint@@PAI@Z; CTreeCtrl::HitTest(CPoint,uint *)
0x00403175	85C0	test    eax, eax
0x00403177	7412	jz      short loc_40318B
0x00403179	8B5620	mov     edx, [esi+20h]
0x0040317c	50	push    eax; lParam
0x0040317d	6A09	push    9; wParam
0x0040317f	680B110000	push    110Bh; Msg
0x00403184	52	push    edx; hWnd
0x00403185	FF155CA14000	call    ds:__imp__SendMessageW@16; SendMessageW(x,x,x,x)
0x0040318b	8BCE	mov     ecx, esi
0x0040318d	FF1580A24000	call    ds:__imp_?SetFocus@CWnd@@QAEPAV1@XZ; CWnd::SetFocus(void)
0x00403193	B9202A4100	mov     ecx, offset theApp
0x00403198	FF15A4A64000	call    ds:__imp_?GetContextMenuManager@CWinAppEx@@QAEPAVCContextMenuManager@@XZ; CWinAppEx::GetContextMenuManager(void)
0x0040319e	8B4D10	mov     ecx, [ebp+arg_8]
0x004031a1	8B10	mov     edx, [eax]
0x004031a3	8B5218	mov     edx, [edx+18h]
0x004031a6	6A00	push    0
0x004031a8	6A01	push    1
0x004031aa	57	push    edi
0x004031ab	51	push    ecx
0x004031ac	8B4D0C	mov     ecx, [ebp+arg_4]
0x004031af	51	push    ecx
0x004031b0	68AE000000	push    0AEh
0x004031b5	8BC8	mov     ecx, eax
0x004031b7	FFD2	call    edx
0x004031b9	5F	pop     edi
0x004031ba	5E	pop     esi
0x004031bb	8BE5	mov     esp, ebp
0x004031bd	5D	pop     ebp
0x004031be	C20C00	retn    0Ch
CFileView::AdjustLayout:0x004031d0-0x00403296
0x004031d0	55	push    ebp
0x004031d1	8BEC	mov     ebp, esp
0x004031d3	83E4F8	and     esp, 0FFFFFFF8h
0x004031d6	83EC1C	sub     esp, 1Ch
0x004031d9	53	push    ebx
0x004031da	56	push    esi
0x004031db	57	push    edi
0x004031dc	8BD9	mov     ebx, ecx
0x004031de	33FF	xor     edi, edi
0x004031e0	3BDF	cmp     ebx, edi
0x004031e2	0F84A7000000	jz      loc_40328F
0x004031e8	8B4320	mov     eax, [ebx+20h]
0x004031eb	3BC7	cmp     eax, edi
0x004031ed	0F849C000000	jz      loc_40328F
0x004031f3	8D4C2418	lea     ecx, [esp+28h+Rect]
0x004031f7	51	push    ecx; lpRect
0x004031f8	50	push    eax; hWnd
0x004031f9	897C2420	mov     [esp+30h+Rect.left], edi
0x004031fd	897C2424	mov     [esp+30h+Rect.top], edi
0x00403201	897C2428	mov     [esp+30h+Rect.right], edi
0x00403205	897C242C	mov     [esp+30h+Rect.bottom], edi
0x00403209	FF1554A14000	call    ds:__imp__GetClientRect@8; GetClientRect(x,x)
0x0040320f	8B93CC030000	mov     edx, [ebx+3CCh]
0x00403215	8B9264020000	mov     edx, [edx+264h]
0x0040321b	6A01	push    1
0x0040321d	57	push    edi
0x0040321e	8D442418	lea     eax, [esp+30h+var_18]
0x00403222	50	push    eax
0x00403223	8D8BCC030000	lea     ecx, [ebx+3CCh]
0x00403229	FFD2	call    edx
0x0040322b	8B7804	mov     edi, [eax+4]
0x0040322e	8B442418	mov     eax, [esp+28h+Rect.left]
0x00403232	8B4C2420	mov     ecx, [esp+28h+Rect.right]
0x00403236	8B93CC030000	mov     edx, [ebx+3CCh]
0x0040323c	8B923C020000	mov     edx, [edx+23Ch]
0x00403242	6A00	push    0
0x00403244	6A14	push    14h
0x00403246	57	push    edi
0x00403247	2BC8	sub     ecx, eax
0x00403249	51	push    ecx
0x0040324a	8B4C242C	mov     ecx, [esp+38h+Rect.top]
0x0040324e	51	push    ecx
0x0040324f	50	push    eax
0x00403250	6A00	push    0
0x00403252	8D8BCC030000	lea     ecx, [ebx+3CCh]
0x00403258	FFD2	call    edx
0x0040325a	8B44241C	mov     eax, [esp+28h+Rect.top]
0x0040325e	8B4C2424	mov     ecx, [esp+28h+Rect.bottom]
0x00403262	8B542420	mov     edx, [esp+28h+Rect.right]
0x00403266	2BC8	sub     ecx, eax
0x00403268	2BCF	sub     ecx, edi
0x0040326a	6A14	push    14h
0x0040326c	83E902	sub     ecx, 2
0x0040326f	51	push    ecx
0x00403270	8B4C2420	mov     ecx, [esp+30h+Rect.left]
0x00403274	2BD1	sub     edx, ecx
0x00403276	83EA02	sub     edx, 2
0x00403279	52	push    edx
0x0040327a	8D443801	lea     eax, [eax+edi+1]
0x0040327e	50	push    eax
0x0040327f	41	inc     ecx
0x00403280	51	push    ecx
0x00403281	6A00	push    0
0x00403283	8D8B50030000	lea     ecx, [ebx+350h]
0x00403289	FF15A0A24000	call    ds:__imp_?SetWindowPos@CWnd@@QAEHPBV1@HHHHI@Z; CWnd::SetWindowPos(CWnd const *,int,int,int,int,uint)
0x0040328f	5F	pop     edi
0x00403290	5E	pop     esi
0x00403291	5B	pop     ebx
0x00403292	8BE5	mov     esp, ebp
0x00403294	5D	pop     ebp
0x00403295	C3	retn
CFileView::OnProperties:0x004032a0-0x004032b0
0x004032a0	6A00	push    0
0x004032a2	6A00	push    0
0x004032a4	68B8C24000	push    offset asc_40C2B8; "^\\'`."
0x004032a9	FF15A8A24000	call    ds:__imp_?AfxMessageBox@@YGHPB_WII@Z; AfxMessageBox(wchar_t const *,uint,uint)
0x004032af	C3	retn
CFileView::OnFileOpen:0x004032b0-0x004032c0
0x004032b0	6A00	push    0
0x004032b2	6A00	push    0
0x004032b4	68C8C24000	push    offset aTodoCfileviewO; "TODO: CFileView::OnFileOpen"
0x004032b9	FF15A8A24000	call    ds:__imp_?AfxMessageBox@@YGHPB_WII@Z; AfxMessageBox(wchar_t const *,uint,uint)
0x004032bf	C3	retn
CMFCToolBarMenuButton::OnAfterCreatePopupMenu:0x004032c0-0x004032c1
0x004032c0	C3	retn
CFileView::OnPaint:0x004032d0-0x00403381
0x004032d0	55	push    ebp
0x004032d1	8BEC	mov     ebp, esp
0x004032d3	83E4F8	and     esp, 0FFFFFFF8h
0x004032d6	6AFF	push    0FFFFFFFFh
0x004032d8	6849934000	push    offset CFileView__OnPaint_SEH
0x004032dd	64A100000000	mov     eax, large fs:0
0x004032e3	50	push    eax
0x004032e4	64892500000000	mov     large fs:0, esp
0x004032eb	83EC70	sub     esp, 70h
0x004032ee	56	push    esi
0x004032ef	8BF1	mov     esi, ecx
0x004032f1	56	push    esi
0x004032f2	8D4C241C	lea     ecx, [esp+84h+var_68]
0x004032f6	FF15ACA24000	call    ds:__imp_??0CPaintDC@@QAE@PAVCWnd@@@Z; CPaintDC::CPaintDC(CWnd *)
0x004032fc	33C0	xor     eax, eax
0x004032fe	8944247C	mov     [esp+80h+var_4], eax
0x00403302	8B8E70030000	mov     ecx, [esi+370h]
0x00403308	89442408	mov     [esp+80h+Rect.left], eax
0x0040330c	8944240C	mov     [esp+80h+Rect.top], eax
0x00403310	89442410	mov     [esp+80h+Rect.right], eax
0x00403314	89442414	mov     [esp+80h+Rect.bottom], eax
0x00403318	8D442408	lea     eax, [esp+80h+Rect]
0x0040331c	50	push    eax; lpRect
0x0040331d	51	push    ecx; hWnd
0x0040331e	FF1548A14000	call    ds:__imp__GetWindowRect@8; GetWindowRect(x,x)
0x00403324	8D542408	lea     edx, [esp+80h+Rect]
0x00403328	52	push    edx
0x00403329	8BCE	mov     ecx, esi
0x0040332b	FF15B4A24000	call    ds:__imp_?ScreenToClient@CWnd@@QBEXPAUtagRECT@@@Z; CWnd::ScreenToClient(tagRECT *)
0x00403331	6A01	push    1; dy
0x00403333	6A01	push    1; dx
0x00403335	8D442410	lea     eax, [esp+88h+Rect]
0x00403339	50	push    eax; lprc
0x0040333a	FF1544A14000	call    ds:__imp__InflateRect@12; InflateRect(x,x,x)
0x00403340	8B3540A14000	mov     esi, ds:__imp__GetSysColor@4; GetSysColor(x)
0x00403346	6A10	push    10h; nIndex
0x00403348	FFD6	call    esi ; GetSysColor(x); GetSysColor(x)
0x0040334a	50	push    eax
0x0040334b	6A10	push    10h; nIndex
0x0040334d	FFD6	call    esi ; GetSysColor(x); GetSysColor(x)
0x0040334f	50	push    eax
0x00403350	8D4C2410	lea     ecx, [esp+88h+Rect]
0x00403354	51	push    ecx
0x00403355	8D4C2424	lea     ecx, [esp+8Ch+var_68]
0x00403359	FF15B8A24000	call    ds:__imp_?Draw3dRect@CDC@@QAEXPBUtagRECT@@KK@Z; CDC::Draw3dRect(tagRECT const *,ulong,ulong)
0x0040335f	8D4C2418	lea     ecx, [esp+80h+var_68]
0x00403363	C744247CFFFFFFFF	mov     [esp+80h+var_4], 0FFFFFFFFh
0x0040336b	FF15B0A24000	call    ds:__imp_??1CPaintDC@@UAE@XZ; CPaintDC::~CPaintDC(void)
0x00403371	8B4C2474	mov     ecx, [esp+80h+var_C]
0x00403375	64890D00000000	mov     large fs:0, ecx
0x0040337c	5E	pop     esi
0x0040337d	8BE5	mov     esp, ebp
0x0040337f	5D	pop     ebp
0x00403380	C3	retn
CFileView::OnPaint:0x00409340-0x00409349
0x00409340	8D4D98	lea     ecx, [ebp+var_68]
0x00409343	FF25B0A24000	jmp     ds:__imp_??1CPaintDC@@UAE@XZ; CPaintDC::~CPaintDC(void)
CFileView::OnSetFocus:0x00403390-0x004033b1
0x00403390	55	push    ebp
0x00403391	8BEC	mov     ebp, esp
0x00403393	8B4508	mov     eax, [ebp+arg_0]
0x00403396	56	push    esi
0x00403397	50	push    eax
0x00403398	8BF1	mov     esi, ecx
0x0040339a	FF15BCA24000	call    ds:__imp_?OnSetFocus@CDockablePane@@IAEXPAVCWnd@@@Z; CDockablePane::OnSetFocus(CWnd *)
0x004033a0	8D8E50030000	lea     ecx, [esi+350h]
0x004033a6	FF1580A24000	call    ds:__imp_?SetFocus@CWnd@@QAEPAV1@XZ; CWnd::SetFocus(void)
0x004033ac	5E	pop     esi
0x004033ad	5D	pop     ebp
0x004033ae	C20400	retn    4
CFileView::OnChangeVisualStyle:0x004033c0-0x0040350d
0x004033c0	55	push    ebp
0x004033c1	8BEC	mov     ebp, esp
0x004033c3	6AFF	push    0FFFFFFFFh
0x004033c5	68989C4000	push    offset CFileView__OnChangeVisualStyle_SEH
0x004033ca	64A100000000	mov     eax, large fs:0
0x004033d0	50	push    eax
0x004033d1	64892500000000	mov     large fs:0, esp
0x004033d8	83EC20	sub     esp, 20h
0x004033db	56	push    esi; lpBitmapName
0x004033dc	8D8FCC030000	lea     ecx, [edi+3CCh]
0x004033e2	FF15F0A24000	call    ds:__imp_?CleanUpLockedImages@CMFCToolBar@@QAEXXZ; CMFCToolBar::CleanUpLockedImages(void)
0x004033e8	8B87CC030000	mov     eax, [edi+3CCh]
0x004033ee	8B9034030000	mov     edx, [eax+334h]
0x004033f4	33C9	xor     ecx, ecx
0x004033f6	390D202B4100	cmp     dword_412B20, ecx
0x004033fc	6A00	push    0
0x004033fe	6A00	push    0
0x00403400	0F95C1	setnz   cl
0x00403403	6A01	push    1
0x00403405	6A00	push    0
0x00403407	6A00	push    0
0x00403409	81C1A9000000	add     ecx, 0A9h
0x0040340f	51	push    ecx
0x00403410	8D8FCC030000	lea     ecx, [edi+3CCh]
0x00403416	FFD2	call    edx
0x00403418	8DB7C4030000	lea     esi, [edi+3C4h]
0x0040341e	8BCE	mov     ecx, esi
0x00403420	FF15C0A24000	call    ds:__imp_?DeleteImageList@CImageList@@QAEHXZ; CImageList::DeleteImageList(void)
0x00403426	33C0	xor     eax, eax
0x00403428	3905202B4100	cmp     dword_412B20, eax
0x0040342e	C745F000000000	mov     [ebp+h], 0
0x00403435	0F95C0	setnz   al
0x00403438	C745EC44BF4000	mov     [ebp+var_14], offset ??_7CBitmap@@6B@; const CBitmap::`vftable'
0x0040343f	05AF000000	add     eax, 0AFh
0x00403444	0FB7C0	movzx   eax, ax
0x00403447	50	push    eax
0x00403448	6A02	push    2
0x0040344a	50	push    eax
0x0040344b	C745FC00000000	mov     [ebp+var_4], 0
0x00403452	FF1548A24000	call    ds:__imp_?AfxFindResourceHandle@@YGPAUHINSTANCE__@@PB_W0@Z; AfxFindResourceHandle(wchar_t const *,wchar_t const *)
0x00403458	50	push    eax; hInstance
0x00403459	FF153CA14000	call    ds:__imp__LoadBitmapW@8; LoadBitmapW(x,x)
0x0040345f	50	push    eax
0x00403460	8D4DEC	lea     ecx, [ebp+var_14]
0x00403463	FF15DCA24000	call    ds:__imp_?Attach@CGdiObject@@QAEHPAX@Z; CGdiObject::Attach(void *)
0x00403469	85C0	test    eax, eax
0x0040346b	747B	jz      short loc_4034E8
0x0040346d	8B4DF0	mov     ecx, [ebp+h]
0x00403470	8D45D4	lea     eax, [ebp+pv]
0x00403473	50	push    eax; pv
0x00403474	6A18	push    18h; c
0x00403476	51	push    ecx; h
0x00403477	FF1514A04000	call    ds:__imp__GetObjectW@12; GetObjectW(x,x,x)
0x0040347d	A1202B4100	mov     eax, dword_412B20
0x00403482	8B55DC	mov     edx, [ebp+var_24]
0x00403485	F7D8	neg     eax
0x00403487	1BC0	sbb     eax, eax
0x00403489	83E014	and     eax, 14h
0x0040348c	6A00	push    0
0x0040348e	83C004	add     eax, 4
0x00403491	6A00	push    0
0x00403493	83C801	or      eax, 1
0x00403496	50	push    eax
0x00403497	52	push    edx
0x00403498	6A10	push    10h
0x0040349a	8BCE	mov     ecx, esi
0x0040349c	FF15E0A24000	call    ds:__imp_?Create@CImageList@@QAEHHHIHH@Z; CImageList::Create(int,int,uint,int,int)
0x004034a2	8B4DF0	mov     ecx, [ebp+h]
0x004034a5	8B87C8030000	mov     eax, [edi+3C8h]
0x004034ab	68FF00FF00	push    0FF00FFh
0x004034b0	51	push    ecx
0x004034b1	50	push    eax
0x004034b2	FF15E4A24000	call    ds:__imp_?AfxGetModuleState@@YGPAVAFX_MODULE_STATE@@XZ; AfxGetModuleState(void)
0x004034b8	8B9094000000	mov     edx, [eax+94h]
0x004034be	8B0A	mov     ecx, [edx]
0x004034c0	E8FBF3FFFF	call    CComCtlWrapper___ImageList_AddMasked
0x004034c5	85F6	test    esi, esi
0x004034c7	7403	jz      short loc_4034CC
0x004034c9	8B7604	mov     esi, [esi+4]
0x004034cc	8B8770030000	mov     eax, [edi+370h]
0x004034d2	56	push    esi; lParam
0x004034d3	6A00	push    0; wParam
0x004034d5	6809110000	push    1109h; Msg
0x004034da	50	push    eax; hWnd
0x004034db	FF155CA14000	call    ds:__imp__SendMessageW@16; SendMessageW(x,x,x,x)
0x004034e1	50	push    eax
0x004034e2	FF15ECA24000	call    ds:__imp_?FromHandle@CImageList@@SGPAV1@PAU_IMAGELIST@@@Z; CImageList::FromHandle(_IMAGELIST *)
0x004034e8	C745FCFFFFFFFF	mov     [ebp+var_4], 0FFFFFFFFh
0x004034ef	8D4DEC	lea     ecx, [ebp+var_14]
0x004034f2	C745EC44BF4000	mov     [ebp+var_14], offset ??_7CBitmap@@6B@; const CBitmap::`vftable'
0x004034f9	E8F2F4FFFF	call    CGdiObject___CGdiObject
0x004034fe	8B4DF4	mov     ecx, [ebp+var_C]
0x00403501	64890D00000000	mov     large fs:0, ecx
0x00403508	5E	pop     esi
0x00403509	8BE5	mov     esp, ebp
0x0040350b	5D	pop     ebp
0x0040350c	C3	retn
CFileView::OnChangeVisualStyle:0x00409c90-0x00409c98
0x00409c90	8D4DEC	lea     ecx, [ebp+var_14]
0x00409c93	E9188DFFFF	jmp     CBitmap___CBitmap
CMainFrame::_GetBaseClass:0x00403510-0x00403516
0x00403510	FF258CA24000	jmp     ds:__imp_?GetThisClass@CMDIFrameWndEx@@SGPAUCRuntimeClass@@XZ; CMDIFrameWndEx::GetThisClass(void)
CMainFrame::GetRuntimeClass:0x00403520-0x00403526
0x00403520	B8FCCA4000	mov     eax, offset CMainFrame__classCMainFrame
0x00403525	C3	retn
CMainFrame::GetMessageMap:0x00403530-0x00403535
0x00403530	E90B000000	jmp     CMainFrame__GetThisMessageMap
CMainFrame::GetThisMessageMap:0x00403540-0x0040362b
0x00403540	B801000000	mov     eax, 1
0x00403545	8405282B4100	test    byte ptr $S1, al
0x0040354b	0F85D4000000	jnz     loc_403625
0x00403551	0905282B4100	or      $S1, eax
0x00403557	A1A8A64000	mov     eax, ds:__imp_?AFX_WM_CREATETOOLBAR@@3IA; uint AFX_WM_CREATETOOLBAR
0x0040355c	A3B0234100	mov     dword_4123B0, eax
0x00403561	33C0	xor     eax, eax
0x00403563	BACD000000	mov     edx, 0CDh
0x00403568	B9DB000000	mov     ecx, 0DBh
0x0040356d	C705B423410010434000	mov     dword_4123B4, offset CMainFrame__OnToolbarCreateNew
0x00403577	C705B823410011010000	mov     dword_4123B8, 111h
0x00403581	A3BC234100	mov     dword_4123BC, eax
0x00403586	8915C0234100	mov     dword_4123C0, edx
0x0040358c	890DC4234100	mov     dword_4123C4, ecx
0x00403592	C705C82341003B000000	mov     dword_4123C8, 3Bh
0x0040359c	C705CC234100A0434000	mov     dword_4123CC, offset CMainFrame__OnApplicationLook
0x004035a6	C705D023410011010000	mov     dword_4123D0, 111h
0x004035b0	C705D4234100FFFFFFFF	mov     dword_4123D4, 0FFFFFFFFh
0x004035ba	8915D8234100	mov     dword_4123D8, edx
0x004035c0	890DDC234100	mov     dword_4123DC, ecx
0x004035c6	C705E023410041000000	mov     dword_4123E0, 41h
0x004035d0	C705E423410020454000	mov     dword_4123E4, offset CMainFrame__OnUpdateApplicationLook
0x004035da	C705E82341001A000000	mov     dword_4123E8, 1Ah
0x004035e4	A3EC234100	mov     dword_4123EC, eax
0x004035e9	A3F0234100	mov     dword_4123F0, eax
0x004035ee	A3F4234100	mov     dword_4123F4, eax
0x004035f3	C705F82341002D000000	mov     dword_4123F8, 2Dh
0x004035fd	C705FC23410010464000	mov     dword_4123FC, offset CMainFrame__OnSettingChange
0x00403607	A300244100	mov     dword_412400, eax
0x0040360c	A304244100	mov     dword_412404, eax
0x00403611	A308244100	mov     dword_412408, eax
0x00403616	A30C244100	mov     dword_41240C, eax
0x0040361b	A310244100	mov     dword_412410, eax
0x00403620	A314244100	mov     dword_412414, eax
0x00403625	B818CB4000	mov     eax, offset off_40CB18
0x0040362a	C3	retn
CMainFrame::CMainFrame:0x00403630-0x00403816
0x00403630	55	push    ebp
0x00403631	8BEC	mov     ebp, esp
0x00403633	6AFF	push    0FFFFFFFFh
0x00403635	68FC9B4000	push    offset CMainFrame__CMainFrame_SEH
0x0040363a	64A100000000	mov     eax, large fs:0
0x00403640	50	push    eax
0x00403641	64892500000000	mov     large fs:0, esp
0x00403648	51	push    ecx
0x00403649	53	push    ebx
0x0040364a	56	push    esi
0x0040364b	8B7508	mov     esi, [ebp+arg_0]
0x0040364e	57	push    edi
0x0040364f	8BCE	mov     ecx, esi
0x00403651	FF15B0A64000	call    ds:__imp_??0CMDIFrameWndEx@@IAE@XZ; CMDIFrameWndEx::CMDIFrameWndEx(void)
0x00403657	C745FC00000000	mov     [ebp+var_4], 0
0x0040365e	8D8EAC2D0000	lea     ecx, [esi+2DACh]
0x00403664	C7066CCB4000	mov     dword ptr [esi], offset ??_7CMainFrame@@6B@; const CMainFrame::`vftable'
0x0040366a	FF15B8A64000	call    ds:__imp_??0CMFCMenuBar@@QAE@XZ; CMFCMenuBar::CMFCMenuBar(void)
0x00403670	8D8EC43A0000	lea     ecx, [esi+3AC4h]
0x00403676	C645FC01	mov     byte ptr [ebp+var_4], 1
0x0040367a	FF151CA24000	call    ds:__imp_??0CMFCToolBar@@QAE@XZ; CMFCToolBar::CMFCToolBar(void)
0x00403680	8D8E8C470000	lea     ecx, [esi+478Ch]
0x00403686	C645FC02	mov     byte ptr [ebp+var_4], 2
0x0040368a	FF15C0A64000	call    ds:__imp_??0CMFCStatusBar@@QAE@XZ; CMFCStatusBar::CMFCStatusBar(void)
0x00403690	8D8E504A0000	lea     ecx, [esi+4A50h]
0x00403696	C645FC03	mov     byte ptr [ebp+var_4], 3
0x0040369a	FF15C8A64000	call    ds:__imp_??0CMFCToolBarImages@@QAE@XZ; CMFCToolBarImages::CMFCToolBarImages(void)
0x004036a0	8DBE5C4B0000	lea     edi, [esi+4B5Ch]
0x004036a6	C645FC04	mov     byte ptr [ebp+var_4], 4
0x004036aa	8BCF	mov     ecx, edi
0x004036ac	897DF0	mov     [ebp+var_10], edi
0x004036af	FF150CA24000	call    ds:__imp_??0CDockablePane@@QAE@XZ; CDockablePane::CDockablePane(void)
0x004036b5	C645FC05	mov     byte ptr [ebp+var_4], 5
0x004036b9	8B1D6CAB4000	mov     ebx, ds:__imp_??0CWnd@@QAE@XZ; CWnd::CWnd(void)
0x004036bf	8D8F50030000	lea     ecx, [edi+350h]
0x004036c5	C70744C74000	mov     dword ptr [edi], offset ??_7CFileView@@6B@; const CFileView::`vftable'
0x004036cb	FFD3	call    ebx ; CWnd::CWnd(void); CWnd::CWnd(void)
0x004036cd	C7875003000014EC4000	mov     dword ptr [edi+350h], offset ??_7CViewTree@@6B@; const CViewTree::`vftable'
0x004036d7	8D8FC4030000	lea     ecx, [edi+3C4h]
0x004036dd	C645FC06	mov     byte ptr [ebp+var_4], 6
0x004036e1	FF1514A24000	call    ds:__imp_??0CImageList@@QAE@XZ; CImageList::CImageList(void)
0x004036e7	8D8FCC030000	lea     ecx, [edi+3CCh]
0x004036ed	C645FC07	mov     byte ptr [ebp+var_4], 7
0x004036f1	FF151CA24000	call    ds:__imp_??0CMFCToolBar@@QAE@XZ; CMFCToolBar::CMFCToolBar(void)
0x004036f7	C787CC03000004C34000	mov     dword ptr [edi+3CCh], offset ??_7CFileViewToolBar@@6B@; const CFileViewToolBar::`vftable'
0x00403701	8DBEF05B0000	lea     edi, [esi+5BF0h]
0x00403707	C645FC08	mov     byte ptr [ebp+var_4], 8
0x0040370b	8BCF	mov     ecx, edi
0x0040370d	897DF0	mov     [ebp+var_10], edi
0x00403710	FF150CA24000	call    ds:__imp_??0CDockablePane@@QAE@XZ; CDockablePane::CDockablePane(void)
0x00403716	C645FC09	mov     byte ptr [ebp+var_4], 9
0x0040371a	8D8F50030000	lea     ecx, [edi+350h]
0x00403720	C7074CB94000	mov     dword ptr [edi], offset ??_7CClassView@@6B@; const CClassView::`vftable'
0x00403726	FF151CA24000	call    ds:__imp_??0CMFCToolBar@@QAE@XZ; CMFCToolBar::CMFCToolBar(void)
0x0040372c	C787500300000CB54000	mov     dword ptr [edi+350h], offset ??_7CClassToolBar@@6B@; const CClassToolBar::`vftable'
0x00403736	8D8F18100000	lea     ecx, [edi+1018h]
0x0040373c	C645FC0A	mov     byte ptr [ebp+var_4], 0Ah
0x00403740	FFD3	call    ebx ; CWnd::CWnd(void); CWnd::CWnd(void)
0x00403742	C7871810000014EC4000	mov     dword ptr [edi+1018h], offset ??_7CViewTree@@6B@; const CViewTree::`vftable'
0x0040374c	8D8F8C100000	lea     ecx, [edi+108Ch]
0x00403752	C645FC0B	mov     byte ptr [ebp+var_4], 0Bh
0x00403756	FF1514A24000	call    ds:__imp_??0CImageList@@QAE@XZ; CImageList::CImageList(void)
0x0040375c	C7879410000091000000	mov     dword ptr [edi+1094h], 91h
0x00403766	8DBE886C0000	lea     edi, [esi+6C88h]
0x0040376c	C645FC0C	mov     byte ptr [ebp+var_4], 0Ch
0x00403770	8BCF	mov     ecx, edi
0x00403772	897DF0	mov     [ebp+var_10], edi
0x00403775	FF150CA24000	call    ds:__imp_??0CDockablePane@@QAE@XZ; CDockablePane::CDockablePane(void)
0x0040377b	C645FC0D	mov     byte ptr [ebp+var_4], 0Dh
0x0040377f	8D8F50030000	lea     ecx, [edi+350h]
0x00403785	C7074CDA4000	mov     dword ptr [edi], offset ??_7COutputWnd@@6B@; const COutputWnd::`vftable'
0x0040378b	FF1538AB4000	call    ds:__imp_??0CMFCTabCtrl@@QAE@XZ; CMFCTabCtrl::CMFCTabCtrl(void)
0x00403791	C645FC0E	mov     byte ptr [ebp+var_4], 0Eh
0x00403795	8D8F542B0000	lea     ecx, [edi+2B54h]
0x0040379b	FFD3	call    ebx ; CWnd::CWnd(void); CWnd::CWnd(void)
0x0040379d	C787542B0000C4D84000	mov     dword ptr [edi+2B54h], offset ??_7COutputList@@6B@; const COutputList::`vftable'
0x004037a7	8D8FC82B0000	lea     ecx, [edi+2BC8h]
0x004037ad	C645FC0F	mov     byte ptr [ebp+var_4], 0Fh
0x004037b1	FFD3	call    ebx ; CWnd::CWnd(void); CWnd::CWnd(void)
0x004037b3	C787C82B0000C4D84000	mov     dword ptr [edi+2BC8h], offset ??_7COutputList@@6B@; const COutputList::`vftable'
0x004037bd	8D8F3C2C0000	lea     ecx, [edi+2C3Ch]
0x004037c3	C645FC10	mov     byte ptr [ebp+var_4], 10h
0x004037c7	FFD3	call    ebx ; CWnd::CWnd(void); CWnd::CWnd(void)
0x004037c9	C7873C2C0000C4D84000	mov     dword ptr [edi+2C3Ch], offset ??_7COutputList@@6B@; const COutputList::`vftable'
0x004037d3	8D8638990000	lea     eax, [esi+9938h]
0x004037d9	50	push    eax
0x004037da	C645FC11	mov     byte ptr [ebp+var_4], 11h
0x004037de	E84D280000	call    CPropertiesWnd__CPropertiesWnd
0x004037e3	68D2000000	push    0D2h
0x004037e8	6820CB4000	push    offset aApplicationloo; "ApplicationLook"
0x004037ed	B9202A4100	mov     ecx, offset theApp
0x004037f2	C645FC12	mov     byte ptr [ebp+var_4], 12h
0x004037f6	FF15D0A64000	call    ds:__imp_?GetInt@CWinAppEx@@QAEHPB_WH@Z; CWinAppEx::GetInt(wchar_t const *,int)
0x004037fc	8B4DF4	mov     ecx, [ebp+var_C]
0x004037ff	A31C2B4100	mov     dword_412B1C, eax
0x00403804	5F	pop     edi
0x00403805	8BC6	mov     eax, esi
0x00403807	5E	pop     esi
0x00403808	5B	pop     ebx
0x00403809	64890D00000000	mov     large fs:0, ecx
0x00403810	8BE5	mov     esp, ebp
0x00403812	5D	pop     ebp
0x00403813	C20400	retn    4
CMainFrame::CMainFrame:0x00409b00-0x00409bfc
0x00409b00	8B4D08	mov     ecx, [ebp+arg_0]
0x00409b03	FF25B4A64000	jmp     ds:__imp_??1CMDIFrameWndEx@@MAE@XZ; CMDIFrameWndEx::~CMDIFrameWndEx(void)
0x00409b09	8B4D08	mov     ecx, [ebp+arg_0]
0x00409b0c	81C1AC2D0000	add     ecx, 2DACh
0x00409b12	FF25BCA64000	jmp     ds:__imp_??1CMFCMenuBar@@UAE@XZ; CMFCMenuBar::~CMFCMenuBar(void)
0x00409b18	8B4D08	mov     ecx, [ebp+arg_0]
0x00409b1b	81C1C43A0000	add     ecx, 3AC4h
0x00409b21	FF2520A24000	jmp     ds:__imp_??1CMFCToolBar@@UAE@XZ; CMFCToolBar::~CMFCToolBar(void)
0x00409b27	8B4D08	mov     ecx, [ebp+arg_0]
0x00409b2a	81C18C470000	add     ecx, 478Ch
0x00409b30	FF25C4A64000	jmp     ds:__imp_??1CMFCStatusBar@@UAE@XZ; CMFCStatusBar::~CMFCStatusBar(void)
0x00409b36	8B4D08	mov     ecx, [ebp+arg_0]
0x00409b39	81C1504A0000	add     ecx, 4A50h
0x00409b3f	FF25CCA64000	jmp     ds:__imp_??1CMFCToolBarImages@@UAE@XZ; CMFCToolBarImages::~CMFCToolBarImages(void)
0x00409b45	8B4DF0	mov     ecx, [ebp+var_10]
0x00409b48	FF2510A24000	jmp     ds:__imp_??1CDockablePane@@UAE@XZ; CDockablePane::~CDockablePane(void)
0x00409b4e	8B4DF0	mov     ecx, [ebp+var_10]
0x00409b51	81C150030000	add     ecx, 350h
0x00409b57	E9A4DCFFFF	jmp     CViewTree___CViewTree
0x00409b5c	8B4DF0	mov     ecx, [ebp+var_10]
0x00409b5f	81C1C4030000	add     ecx, 3C4h
0x00409b65	FF2518A24000	jmp     ds:__imp_??1CImageList@@UAE@XZ; CImageList::~CImageList(void)
0x00409b6b	8B4D08	mov     ecx, [ebp+arg_0]
0x00409b6e	81C15C4B0000	add     ecx, 4B5Ch
0x00409b74	E98790FFFF	jmp     CFileView___CFileView
0x00409b79	8B4DF0	mov     ecx, [ebp+var_10]
0x00409b7c	FF2510A24000	jmp     ds:__imp_??1CDockablePane@@UAE@XZ; CDockablePane::~CDockablePane(void)
0x00409b82	8B4DF0	mov     ecx, [ebp+var_10]
0x00409b85	81C150030000	add     ecx, 350h
0x00409b8b	E9E0C5FFFF	jmp     CPropertiesToolBar___CPropertiesToolBar
0x00409b90	8B4DF0	mov     ecx, [ebp+var_10]
0x00409b93	81C118100000	add     ecx, 1018h
0x00409b99	E962DCFFFF	jmp     CViewTree___CViewTree
0x00409b9e	8B4D08	mov     ecx, [ebp+arg_0]
0x00409ba1	81C1F05B0000	add     ecx, 5BF0h
0x00409ba7	E93477FFFF	jmp     CClassView___CClassView
0x00409bac	8B4DF0	mov     ecx, [ebp+var_10]
0x00409baf	FF2510A24000	jmp     ds:__imp_??1CDockablePane@@UAE@XZ; CDockablePane::~CDockablePane(void)
0x00409bb5	8B4DF0	mov     ecx, [ebp+var_10]
0x00409bb8	81C150030000	add     ecx, 350h
0x00409bbe	FF253CAB4000	jmp     ds:__imp_??1CMFCTabCtrl@@UAE@XZ; CMFCTabCtrl::~CMFCTabCtrl(void)
0x00409bc4	8B4DF0	mov     ecx, [ebp+var_10]
0x00409bc7	81C1542B0000	add     ecx, 2B54h
0x00409bcd	E94EC2FFFF	jmp     COutputList___COutputList
0x00409bd2	8B4DF0	mov     ecx, [ebp+var_10]
0x00409bd5	81C1C82B0000	add     ecx, 2BC8h
0x00409bdb	E940C2FFFF	jmp     COutputList___COutputList
0x00409be0	8B4D08	mov     ecx, [ebp+arg_0]
0x00409be3	81C1886C0000	add     ecx, 6C88h
0x00409be9	E9E2BDFFFF	jmp     COutputWnd___COutputWnd
0x00409bee	8B4D08	mov     ecx, [ebp+arg_0]
0x00409bf1	81C138990000	add     ecx, 9938h
0x00409bf7	E9B4C5FFFF	jmp     CPropertiesWnd___CPropertiesWnd
CMainFrame::_scalar_deleting_destructor_:0x00403820-0x00403842
0x00403820	55	push    ebp
0x00403821	8BEC	mov     ebp, esp
0x00403823	56	push    esi
0x00403824	8BF1	mov     esi, ecx
0x00403826	E825000000	call    CMainFrame___CMainFrame
0x0040382b	F6450801	test    [ebp+arg_0], 1
0x0040382f	740A	jz      short loc_40383B
0x00403831	56	push    esi
0x00403832	FF15CCAD4000	call    ds:__imp_??3@YAXPAX@Z; operator delete(void *)
0x00403838	83C404	add     esp, 4
0x0040383b	8BC6	mov     eax, esi
0x0040383d	5E	pop     esi
0x0040383e	5D	pop     ebp
0x0040383f	C20400	retn    4
CMainFrame::_CMainFrame:0x00403850-0x004039e7
0x00403850	55	push    ebp
0x00403851	8BEC	mov     ebp, esp
0x00403853	6AFF	push    0FFFFFFFFh
0x00403855	68EE9A4000	push    offset CMainFrame___CMainFrame_SEH
0x0040385a	64A100000000	mov     eax, large fs:0
0x00403860	50	push    eax
0x00403861	64892500000000	mov     large fs:0, esp
0x00403868	83EC08	sub     esp, 8
0x0040386b	53	push    ebx
0x0040386c	56	push    esi
0x0040386d	8BF1	mov     esi, ecx
0x0040386f	57	push    edi
0x00403870	8975F0	mov     [ebp+var_10], esi
0x00403873	C7066CCB4000	mov     dword ptr [esi], offset ??_7CMainFrame@@6B@; const CMainFrame::`vftable'
0x00403879	C745FC00000000	mov     [ebp+var_4], 0
0x00403880	8DBE38990000	lea     edi, [esi+9938h]
0x00403886	897DEC	mov     [ebp+var_14], edi
0x00403889	C7075CE64000	mov     dword ptr [edi], offset ??_7CPropertiesWnd@@6B@; const CPropertiesWnd::`vftable'
0x0040388f	8D8F94100000	lea     ecx, [edi+1094h]
0x00403895	C645FC0B	mov     byte ptr [ebp+var_4], 0Bh
0x00403899	FF15B4AB4000	call    ds:__imp_??1CMFCPropertyGridCtrl@@UAE@XZ; CMFCPropertyGridCtrl::~CMFCPropertyGridCtrl(void)
0x0040389f	C645FC0A	mov     byte ptr [ebp+var_4], 0Ah
0x004038a3	8B1D20A24000	mov     ebx, ds:__imp_??1CMFCToolBar@@UAE@XZ; CMFCToolBar::~CMFCToolBar(void)
0x004038a9	8D8FCC030000	lea     ecx, [edi+3CCh]
0x004038af	FFD3	call    ebx ; CMFCToolBar::~CMFCToolBar(void); CMFCToolBar::~CMFCToolBar(void)
0x004038b1	8D8F58030000	lea     ecx, [edi+358h]
0x004038b7	C645FC09	mov     byte ptr [ebp+var_4], 9
0x004038bb	FF15ACAB4000	call    ds:__imp_??1CComboBox@@UAE@XZ; CComboBox::~CComboBox(void)
0x004038c1	8D8F50030000	lea     ecx, [edi+350h]
0x004038c7	C645FC08	mov     byte ptr [ebp+var_4], 8
0x004038cb	C70110EA4000	mov     dword ptr [ecx], offset ??_7CFont@@6B@; const CFont::`vftable'
0x004038d1	E81AF1FFFF	call    CGdiObject___CGdiObject
0x004038d6	8BCF	mov     ecx, edi
0x004038d8	C645FC07	mov     byte ptr [ebp+var_4], 7
0x004038dc	FF1510A24000	call    ds:__imp_??1CDockablePane@@UAE@XZ; CDockablePane::~CDockablePane(void)
0x004038e2	8D8E886C0000	lea     ecx, [esi+6C88h]
0x004038e8	C645FC06	mov     byte ptr [ebp+var_4], 6
0x004038ec	E8DF200000	call    COutputWnd___COutputWnd
0x004038f1	8DBEF05B0000	lea     edi, [esi+5BF0h]
0x004038f7	897DEC	mov     [ebp+var_14], edi
0x004038fa	C7074CB94000	mov     dword ptr [edi], offset ??_7CClassView@@6B@; const CClassView::`vftable'
0x00403900	8D8F8C100000	lea     ecx, [edi+108Ch]
0x00403906	C645FC0E	mov     byte ptr [ebp+var_4], 0Eh
0x0040390a	FF1518A24000	call    ds:__imp_??1CImageList@@UAE@XZ; CImageList::~CImageList(void)
0x00403910	8D8F18100000	lea     ecx, [edi+1018h]
0x00403916	C645FC0D	mov     byte ptr [ebp+var_4], 0Dh
0x0040391a	C70114EC4000	mov     dword ptr [ecx], offset ??_7CViewTree@@6B@; const CViewTree::`vftable'
0x00403920	FF1524AC4000	call    ds:__imp_??1CTreeCtrl@@UAE@XZ; CTreeCtrl::~CTreeCtrl(void)
0x00403926	8D8F50030000	lea     ecx, [edi+350h]
0x0040392c	C645FC0C	mov     byte ptr [ebp+var_4], 0Ch
0x00403930	FFD3	call    ebx ; CMFCToolBar::~CMFCToolBar(void); CMFCToolBar::~CMFCToolBar(void)
0x00403932	8BCF	mov     ecx, edi
0x00403934	C645FC05	mov     byte ptr [ebp+var_4], 5
0x00403938	FF1510A24000	call    ds:__imp_??1CDockablePane@@UAE@XZ; CDockablePane::~CDockablePane(void)
0x0040393e	8DBE5C4B0000	lea     edi, [esi+4B5Ch]
0x00403944	897DEC	mov     [ebp+var_14], edi
0x00403947	C70744C74000	mov     dword ptr [edi], offset ??_7CFileView@@6B@; const CFileView::`vftable'
0x0040394d	8D8FCC030000	lea     ecx, [edi+3CCh]
0x00403953	C645FC11	mov     byte ptr [ebp+var_4], 11h
0x00403957	FFD3	call    ebx ; CMFCToolBar::~CMFCToolBar(void); CMFCToolBar::~CMFCToolBar(void)
0x00403959	8D8FC4030000	lea     ecx, [edi+3C4h]
0x0040395f	C645FC10	mov     byte ptr [ebp+var_4], 10h
0x00403963	FF1518A24000	call    ds:__imp_??1CImageList@@UAE@XZ; CImageList::~CImageList(void)
0x00403969	8D8F50030000	lea     ecx, [edi+350h]
0x0040396f	C645FC0F	mov     byte ptr [ebp+var_4], 0Fh
0x00403973	C70114EC4000	mov     dword ptr [ecx], offset ??_7CViewTree@@6B@; const CViewTree::`vftable'
0x00403979	FF1524AC4000	call    ds:__imp_??1CTreeCtrl@@UAE@XZ; CTreeCtrl::~CTreeCtrl(void)
0x0040397f	8BCF	mov     ecx, edi
0x00403981	C645FC04	mov     byte ptr [ebp+var_4], 4
0x00403985	FF1510A24000	call    ds:__imp_??1CDockablePane@@UAE@XZ; CDockablePane::~CDockablePane(void)
0x0040398b	C645FC03	mov     byte ptr [ebp+var_4], 3
0x0040398f	8D8E504A0000	lea     ecx, [esi+4A50h]
0x00403995	FF15CCA64000	call    ds:__imp_??1CMFCToolBarImages@@UAE@XZ; CMFCToolBarImages::~CMFCToolBarImages(void)
0x0040399b	8D8E8C470000	lea     ecx, [esi+478Ch]
0x004039a1	C645FC02	mov     byte ptr [ebp+var_4], 2
0x004039a5	FF15C4A64000	call    ds:__imp_??1CMFCStatusBar@@UAE@XZ; CMFCStatusBar::~CMFCStatusBar(void)
0x004039ab	8D8EC43A0000	lea     ecx, [esi+3AC4h]
0x004039b1	C645FC01	mov     byte ptr [ebp+var_4], 1
0x004039b5	FFD3	call    ebx ; CMFCToolBar::~CMFCToolBar(void); CMFCToolBar::~CMFCToolBar(void)
0x004039b7	8D8EAC2D0000	lea     ecx, [esi+2DACh]
0x004039bd	C645FC00	mov     byte ptr [ebp+var_4], 0
0x004039c1	FF15BCA64000	call    ds:__imp_??1CMFCMenuBar@@UAE@XZ; CMFCMenuBar::~CMFCMenuBar(void)
0x004039c7	8BCE	mov     ecx, esi
0x004039c9	C745FCFFFFFFFF	mov     [ebp+var_4], 0FFFFFFFFh
0x004039d0	FF15B4A64000	call    ds:__imp_??1CMDIFrameWndEx@@MAE@XZ; CMDIFrameWndEx::~CMDIFrameWndEx(void)
0x004039d6	8B4DF4	mov     ecx, [ebp+var_C]
0x004039d9	5F	pop     edi
0x004039da	5E	pop     esi
0x004039db	5B	pop     ebx
0x004039dc	64890D00000000	mov     large fs:0, ecx
0x004039e3	8BE5	mov     esp, ebp
0x004039e5	5D	pop     ebp
0x004039e6	C3	retn
CMainFrame::_CMainFrame:0x00409a00-0x00409aee
0x00409a00	8B4DF0	mov     ecx, [ebp+var_10]
0x00409a03	FF25B4A64000	jmp     ds:__imp_??1CMDIFrameWndEx@@MAE@XZ; CMDIFrameWndEx::~CMDIFrameWndEx(void)
0x00409a09	8B4DF0	mov     ecx, [ebp+var_10]
0x00409a0c	81C1AC2D0000	add     ecx, 2DACh
0x00409a12	FF25BCA64000	jmp     ds:__imp_??1CMFCMenuBar@@UAE@XZ; CMFCMenuBar::~CMFCMenuBar(void)
0x00409a18	8B4DF0	mov     ecx, [ebp+var_10]
0x00409a1b	81C1C43A0000	add     ecx, 3AC4h
0x00409a21	FF2520A24000	jmp     ds:__imp_??1CMFCToolBar@@UAE@XZ; CMFCToolBar::~CMFCToolBar(void)
0x00409a27	8B4DF0	mov     ecx, [ebp+var_10]
0x00409a2a	81C18C470000	add     ecx, 478Ch
0x00409a30	FF25C4A64000	jmp     ds:__imp_??1CMFCStatusBar@@UAE@XZ; CMFCStatusBar::~CMFCStatusBar(void)
0x00409a36	8B4DF0	mov     ecx, [ebp+var_10]
0x00409a39	81C1504A0000	add     ecx, 4A50h
0x00409a3f	FF25CCA64000	jmp     ds:__imp_??1CMFCToolBarImages@@UAE@XZ; CMFCToolBarImages::~CMFCToolBarImages(void)
0x00409a45	8B4DF0	mov     ecx, [ebp+var_10]
0x00409a48	81C15C4B0000	add     ecx, 4B5Ch
0x00409a4e	E9AD91FFFF	jmp     CFileView___CFileView
0x00409a53	8B4DF0	mov     ecx, [ebp+var_10]
0x00409a56	81C1F05B0000	add     ecx, 5BF0h
0x00409a5c	E97F78FFFF	jmp     CClassView___CClassView
0x00409a61	8B4DF0	mov     ecx, [ebp+var_10]
0x00409a64	81C1886C0000	add     ecx, 6C88h
0x00409a6a	E961BFFFFF	jmp     COutputWnd___COutputWnd
0x00409a6f	8B4DEC	mov     ecx, [ebp+var_14]
0x00409a72	FF2510A24000	jmp     ds:__imp_??1CDockablePane@@UAE@XZ; CDockablePane::~CDockablePane(void)
0x00409a78	8B4DEC	mov     ecx, [ebp+var_14]
0x00409a7b	81C150030000	add     ecx, 350h
0x00409a81	E90ADDFFFF	jmp     CFont___CFont
0x00409a86	8B4DEC	mov     ecx, [ebp+var_14]
0x00409a89	81C158030000	add     ecx, 358h
0x00409a8f	FF25ACAB4000	jmp     ds:__imp_??1CComboBox@@UAE@XZ; CComboBox::~CComboBox(void)
0x00409a95	8B4DEC	mov     ecx, [ebp+var_14]
0x00409a98	81C1CC030000	add     ecx, 3CCh
0x00409a9e	E9CDC6FFFF	jmp     CPropertiesToolBar___CPropertiesToolBar
0x00409aa3	8B4DEC	mov     ecx, [ebp+var_14]
0x00409aa6	FF2510A24000	jmp     ds:__imp_??1CDockablePane@@UAE@XZ; CDockablePane::~CDockablePane(void)
0x00409aac	8B4DEC	mov     ecx, [ebp+var_14]
0x00409aaf	81C150030000	add     ecx, 350h
0x00409ab5	E9B6C6FFFF	jmp     CPropertiesToolBar___CPropertiesToolBar
0x00409aba	8B4DEC	mov     ecx, [ebp+var_14]
0x00409abd	81C118100000	add     ecx, 1018h
0x00409ac3	E938DDFFFF	jmp     CViewTree___CViewTree
0x00409ac8	8B4DEC	mov     ecx, [ebp+var_14]
0x00409acb	FF2510A24000	jmp     ds:__imp_??1CDockablePane@@UAE@XZ; CDockablePane::~CDockablePane(void)
0x00409ad1	8B4DEC	mov     ecx, [ebp+var_14]
0x00409ad4	81C150030000	add     ecx, 350h
0x00409ada	E921DDFFFF	jmp     CViewTree___CViewTree
0x00409adf	8B4DEC	mov     ecx, [ebp+var_14]
0x00409ae2	81C1C4030000	add     ecx, 3C4h
0x00409ae8	FF2518A24000	jmp     ds:__imp_??1CImageList@@UAE@XZ; CImageList::~CImageList(void)
CMainFrame::OnCreate:0x004039f0-0x00403ef4
0x004039f0	55	push    ebp
0x004039f1	8BEC	mov     ebp, esp
0x004039f3	83E4F8	and     esp, 0FFFFFFF8h
0x004039f6	64A100000000	mov     eax, large fs:0
0x004039fc	6AFF	push    0FFFFFFFFh
0x004039fe	68EA994000	push    offset CMainFrame__OnCreate_SEH
0x00403a03	50	push    eax
0x00403a04	8B4508	mov     eax, [ebp+arg_0]
0x00403a07	64892500000000	mov     large fs:0, esp
0x00403a0e	83EC58	sub     esp, 58h
0x00403a11	53	push    ebx
0x00403a12	56	push    esi
0x00403a13	57	push    edi
0x00403a14	50	push    eax
0x00403a15	8BF9	mov     edi, ecx
0x00403a17	FF15D4A64000	call    ds:__imp_?OnCreate@CMDIFrameWndEx@@IAEHPAUtagCREATESTRUCTW@@@Z; CMDIFrameWndEx::OnCreate(tagCREATESTRUCTW *)
0x00403a1d	83F8FF	cmp     eax, 0FFFFFFFFh
0x00403a20	0F849A010000	jz      loc_403BC0
0x00403a26	8D4C2434	lea     ecx, [esp+70h+var_3C]
0x00403a2a	FF15D8A64000	call    ds:__imp_??0CMDITabInfo@@QAE@XZ; CMDITabInfo::CMDITabInfo(void)
0x00403a30	B801000000	mov     eax, 1
0x00403a35	8D4C2434	lea     ecx, [esp+70h+var_3C]
0x00403a39	51	push    ecx
0x00403a3a	50	push    eax
0x00403a3b	8BCF	mov     ecx, edi
0x00403a3d	C744244004000000	mov     [esp+78h+var_38], 4
0x00403a45	89442460	mov     [esp+78h+var_18], eax
0x00403a49	C744244400000000	mov     [esp+78h+var_34], 0
0x00403a51	89442450	mov     [esp+78h+var_28], eax
0x00403a55	89442454	mov     [esp+78h+var_24], eax
0x00403a59	FF15DCA64000	call    ds:__imp_?EnableMDITabbedGroups@CMDIFrameWndEx@@QAEXHABVCMDITabInfo@@@Z; CMDIFrameWndEx::EnableMDITabbedGroups(int,CMDITabInfo const &)
0x00403a5f	8B97AC2D0000	mov     edx, [edi+2DACh]
0x00403a65	8B8228030000	mov     eax, [edx+328h]
0x00403a6b	6806E80000	push    0E806h
0x00403a70	8D9FAC2D0000	lea     ebx, [edi+2DACh]
0x00403a76	6808284050	push    50402808h
0x00403a7b	57	push    edi
0x00403a7c	8BCB	mov     ecx, ebx
0x00403a7e	FFD0	call    eax
0x00403a80	85C0	test    eax, eax
0x00403a82	0F8438010000	jz      loc_403BC0
0x00403a88	8B33	mov     esi, [ebx]
0x00403a8a	8B96C4010000	mov     edx, [esi+1C4h]
0x00403a90	8BCB	mov     ecx, ebx
0x00403a92	FFD2	call    edx
0x00403a94	83C834	or      eax, 34h
0x00403a97	50	push    eax
0x00403a98	8B86E8010000	mov     eax, [esi+1E8h]
0x00403a9e	8BCB	mov     ecx, ebx
0x00403aa0	FFD0	call    eax
0x00403aa2	8B0DC8AD4000	mov     ecx, ds:__imp_?m_bForceMenuFocus@CMFCPopupMenu@@1HA; int CMFCPopupMenu::m_bForceMenuFocus
0x00403aa8	6800E80000	push    0E800h
0x00403aad	83EC10	sub     esp, 10h
0x00403ab0	8BC4	mov     eax, esp
0x00403ab2	C70100000000	mov     dword ptr [ecx], 0
0x00403ab8	8B97C43A0000	mov     edx, [edi+3AC4h]
0x00403abe	B901000000	mov     ecx, 1
0x00403ac3	8908	mov     [eax], ecx
0x00403ac5	894804	mov     [eax+4], ecx
0x00403ac8	6834284050	push    50402834h
0x00403acd	8DB7C43A0000	lea     esi, [edi+3AC4h]
0x00403ad3	894808	mov     [eax+8], ecx
0x00403ad6	89480C	mov     [eax+0Ch], ecx
0x00403ad9	8B822C030000	mov     eax, [edx+32Ch]
0x00403adf	6800080000	push    800h
0x00403ae4	57	push    edi
0x00403ae5	8BCE	mov     ecx, esi
0x00403ae7	FFD0	call    eax
0x00403ae9	85C0	test    eax, eax
0x00403aeb	0F84CF000000	jz      loc_403BC0
0x00403af1	8B16	mov     edx, [esi]
0x00403af3	8B9238030000	mov     edx, [edx+338h]
0x00403af9	6A00	push    0
0x00403afb	33C0	xor     eax, eax
0x00403afd	3905202B4100	cmp     dword_412B20, eax
0x00403b03	6A00	push    0
0x00403b05	6A00	push    0
0x00403b07	0F95C0	setnz   al
0x00403b0a	6A00	push    0
0x00403b0c	6A00	push    0
0x00403b0e	6A00	push    0
0x00403b10	8BCE	mov     ecx, esi
0x00403b12	83E880	sub     eax, 0FFFFFF80h
0x00403b15	50	push    eax
0x00403b16	FFD2	call    edx
0x00403b18	85C0	test    eax, eax
0x00403b1a	0F84A0000000	jz      loc_403BC0
0x00403b20	8D4C2410	lea     ecx, [esp+70h+var_60]
0x00403b24	FF15D0A24000	call    ds:__imp_??0?$CStringT@_WV?$StrTraitMFC_DLL@_WV?$ChTraitsCRT@_W@ATL@@@@@ATL@@QAE@XZ; ATL::CStringT<wchar_t,StrTraitMFC_DLL<wchar_t,ATL::ChTraitsCRT<wchar_t>>>::CStringT<wchar_t,StrTraitMFC_DLL<wchar_t,ATL::ChTraitsCRT<wchar_t>>>(void)
0x00403b2a	6A7C	push    7Ch
0x00403b2c	8D4C2414	lea     ecx, [esp+74h+var_60]
0x00403b30	C744247000000000	mov     [esp+74h+var_4], 0
0x00403b38	FF15E4A64000	call    ds:__imp_?LoadStringW@?$CStringT@_WV?$StrTraitMFC_DLL@_WV?$ChTraitsCRT@_W@ATL@@@@@ATL@@QAEHI@Z; ATL::CStringT<wchar_t,StrTraitMFC_DLL<wchar_t,ATL::ChTraitsCRT<wchar_t>>>::LoadStringW(uint)
0x00403b3e	8B442410	mov     eax, [esp+70h+var_60]
0x00403b42	50	push    eax
0x00403b43	8BCE	mov     ecx, esi
0x00403b45	FF15E8A64000	call    ds:__imp_?SetWindowTextW@CWnd@@QAEXPB_W@Z; CWnd::SetWindowTextW(wchar_t const *)
0x00403b4b	8D4C240C	lea     ecx, [esp+70h+var_64]
0x00403b4f	FF15D0A24000	call    ds:__imp_??0?$CStringT@_WV?$StrTraitMFC_DLL@_WV?$ChTraitsCRT@_W@ATL@@@@@ATL@@QAE@XZ; ATL::CStringT<wchar_t,StrTraitMFC_DLL<wchar_t,ATL::ChTraitsCRT<wchar_t>>>::CStringT<wchar_t,StrTraitMFC_DLL<wchar_t,ATL::ChTraitsCRT<wchar_t>>>(void)
0x00403b55	6A7D	push    7Dh
0x00403b57	8D4C2410	lea     ecx, [esp+74h+var_64]
0x00403b5b	C644247001	mov     byte ptr [esp+74h+var_4], 1
0x00403b60	FF15E4A64000	call    ds:__imp_?LoadStringW@?$CStringT@_WV?$StrTraitMFC_DLL@_WV?$ChTraitsCRT@_W@ATL@@@@@ATL@@QAEHI@Z; ATL::CStringT<wchar_t,StrTraitMFC_DLL<wchar_t,ATL::ChTraitsCRT<wchar_t>>>::LoadStringW(uint)
0x00403b66	6A01	push    1
0x00403b68	8D4C2410	lea     ecx, [esp+74h+var_64]
0x00403b6c	51	push    ecx
0x00403b6d	6A7E	push    7Eh
0x00403b6f	6A01	push    1
0x00403b71	8BCE	mov     ecx, esi
0x00403b73	FF15ECA64000	call    ds:__imp_?EnableCustomizeButton@CMFCToolBar@@QAEXHHABV?$CStringT@_WV?$StrTraitMFC_DLL@_WV?$ChTraitsCRT@_W@ATL@@@@@ATL@@H@Z; CMFCToolBar::EnableCustomizeButton(int,int,ATL::CStringT<wchar_t,StrTraitMFC_DLL<wchar_t,ATL::ChTraitsCRT<wchar_t>>> const &,int)
0x00403b79	6831E80000	push    0E831h
0x00403b7e	6828E80000	push    0E828h
0x00403b83	8D8F3C030000	lea     ecx, [edi+33Ch]
0x00403b89	6A00	push    0
0x00403b8b	FF15F0A64000	call    ds:__imp_?InitUserToolbars@CFrameImpl@@IAEXPB_WII@Z; CFrameImpl::InitUserToolbars(wchar_t const *,uint,uint)
0x00403b91	6801E80000	push    0E801h
0x00403b96	6800820050	push    50008200h
0x00403b9b	8D8F8C470000	lea     ecx, [edi+478Ch]
0x00403ba1	57	push    edi
0x00403ba2	FF15F4A64000	call    ds:__imp_?Create@CMFCStatusBar@@QAEHPAVCWnd@@KI@Z; CMFCStatusBar::Create(CWnd *,ulong,uint)
0x00403ba8	85C0	test    eax, eax
0x00403baa	752B	jnz     short loc_403BD7
0x00403bac	8D4C240C	lea     ecx, [esp+70h+var_64]
0x00403bb0	FF15CCA24000	call    ds:__imp_??1?$CStringT@_WV?$StrTraitMFC_DLL@_WV?$ChTraitsCRT@_W@ATL@@@@@ATL@@QAE@XZ; ATL::CStringT<wchar_t,StrTraitMFC_DLL<wchar_t,ATL::ChTraitsCRT<wchar_t>>>::~CStringT<wchar_t,StrTraitMFC_DLL<wchar_t,ATL::ChTraitsCRT<wchar_t>>>(void)
0x00403bb6	8D4C2410	lea     ecx, [esp+70h+var_60]
0x00403bba	FF15CCA24000	call    ds:__imp_??1?$CStringT@_WV?$StrTraitMFC_DLL@_WV?$ChTraitsCRT@_W@ATL@@@@@ATL@@QAE@XZ; ATL::CStringT<wchar_t,StrTraitMFC_DLL<wchar_t,ATL::ChTraitsCRT<wchar_t>>>::~CStringT<wchar_t,StrTraitMFC_DLL<wchar_t,ATL::ChTraitsCRT<wchar_t>>>(void)
0x00403bc0	83C8FF	or      eax, 0FFFFFFFFh
0x00403bc3	8B4C2464	mov     ecx, [esp+70h+var_C]
0x00403bc7	64890D00000000	mov     large fs:0, ecx
0x00403bce	5F	pop     edi
0x00403bcf	5E	pop     esi
0x00403bd0	5B	pop     ebx
0x00403bd1	8BE5	mov     esp, ebp
0x00403bd3	5D	pop     ebp
0x00403bd4	C20400	retn    4
0x00403bd7	6A04	push    4
0x00403bd9	6818244100	push    offset indicators
0x00403bde	8D8F8C470000	lea     ecx, [edi+478Ch]
0x00403be4	FF15F8A64000	call    ds:__imp_?SetIndicators@CMFCStatusBar@@QAEHPBIH@Z; CMFCStatusBar::SetIndicators(uint const *,int)
0x00403bea	8B13	mov     edx, [ebx]
0x00403bec	8B82F0010000	mov     eax, [edx+1F0h]
0x00403bf2	6800F00000	push    0F000h
0x00403bf7	8BCB	mov     ecx, ebx
0x00403bf9	FFD0	call    eax
0x00403bfb	8B16	mov     edx, [esi]
0x00403bfd	8B82F0010000	mov     eax, [edx+1F0h]
0x00403c03	6800F00000	push    0F000h
0x00403c08	8BCE	mov     ecx, esi
0x00403c0a	FFD0	call    eax
0x00403c0c	6800F00000	push    0F000h
0x00403c11	8BCF	mov     ecx, edi
0x00403c13	FF15FCA64000	call    ds:__imp_?EnableDocking@CMDIFrameWndEx@@QAEHK@Z; CMDIFrameWndEx::EnableDocking(ulong)
0x00403c19	6A00	push    0
0x00403c1b	6A00	push    0
0x00403c1d	53	push    ebx
0x00403c1e	8B1D00A74000	mov     ebx, ds:__imp_?DockPane@CMDIFrameWndEx@@QAEXPAVCBasePane@@IPBUtagRECT@@@Z; CMDIFrameWndEx::DockPane(CBasePane *,uint,tagRECT const *)
0x00403c24	8BCF	mov     ecx, edi
0x00403c26	FFD3	call    ebx ; CMDIFrameWndEx::DockPane(CBasePane *,uint,tagRECT const *); CMDIFrameWndEx::DockPane(CBasePane *,uint,tagRECT const *)
0x00403c28	6A00	push    0
0x00403c2a	6A00	push    0
0x00403c2c	56	push    esi
0x00403c2d	8BCF	mov     ecx, edi
0x00403c2f	FFD3	call    ebx ; CMDIFrameWndEx::DockPane(CBasePane *,uint,tagRECT const *); CMDIFrameWndEx::DockPane(CBasePane *,uint,tagRECT const *)
0x00403c31	6A00	push    0
0x00403c33	6880000000	push    80h
0x00403c38	FF1504A74000	call    ds:__imp_?SetDockingMode@CDockingManager@@SGXW4AFX_DOCK_TYPE@@W4AFX_SMARTDOCK_THEME@@@Z; CDockingManager::SetDockingMode(AFX_DOCK_TYPE,AFX_SMARTDOCK_THEME)
0x00403c3e	6800F00000	push    0F000h
0x00403c43	8BCF	mov     ecx, edi
0x00403c45	FF1508A74000	call    ds:__imp_?EnableAutoHidePanes@CMDIFrameWndEx@@QAEHK@Z; CMDIFrameWndEx::EnableAutoHidePanes(ulong)
0x00403c4b	8B0D202B4100	mov     ecx, dword_412B20
0x00403c51	6A00	push    0
0x00403c53	6A00	push    0
0x00403c55	F7D9	neg     ecx
0x00403c57	6A00	push    0
0x00403c59	1BC9	sbb     ecx, ecx
0x00403c5b	6A00	push    0
0x00403c5d	81E1B4000000	and     ecx, 0B4h
0x00403c63	51	push    ecx
0x00403c64	68B3000000	push    0B3h
0x00403c69	FF150CA74000	call    ds:__imp_?AddToolBarForImageCollection@CMFCToolBar@@SGHIIIIII@Z; CMFCToolBar::AddToolBarForImageCollection(uint,uint,uint,uint,uint,uint)
0x00403c6f	8BCF	mov     ecx, edi
0x00403c71	E8AA020000	call    CMainFrame__CreateDockingWindows
0x00403c76	85C0	test    eax, eax
0x00403c78	0F842EFFFFFF	jz      loc_403BAC
0x00403c7e	8B975C4B0000	mov     edx, [edi+4B5Ch]
0x00403c84	8B82F0010000	mov     eax, [edx+1F0h]
0x00403c8a	8DB75C4B0000	lea     esi, [edi+4B5Ch]
0x00403c90	6800F00000	push    0F000h
0x00403c95	8BCE	mov     ecx, esi
0x00403c97	FFD0	call    eax
0x00403c99	8B97F05B0000	mov     edx, [edi+5BF0h]
0x00403c9f	8B82F0010000	mov     eax, [edx+1F0h]
0x00403ca5	6800F00000	push    0F000h
0x00403caa	8D8FF05B0000	lea     ecx, [edi+5BF0h]
0x00403cb0	FFD0	call    eax
0x00403cb2	6A00	push    0
0x00403cb4	6A00	push    0
0x00403cb6	56	push    esi
0x00403cb7	8BCF	mov     ecx, edi
0x00403cb9	FFD3	call    ebx ; CMDIFrameWndEx::DockPane(CBasePane *,uint,tagRECT const *); CMDIFrameWndEx::DockPane(CBasePane *,uint,tagRECT const *)
0x00403cbb	8B97F05B0000	mov     edx, [edi+5BF0h]
0x00403cc1	8B9254030000	mov     edx, [edx+354h]
0x00403cc7	8D442414	lea     eax, [esp+70h+var_5C]
0x00403ccb	50	push    eax
0x00403ccc	6A01	push    1
0x00403cce	6A03	push    3
0x00403cd0	56	push    esi
0x00403cd1	8D8FF05B0000	lea     ecx, [edi+5BF0h]
0x00403cd7	C744242400000000	mov     [esp+80h+var_5C], 0
0x00403cdf	FFD2	call    edx
0x00403ce1	8B87886C0000	mov     eax, [edi+6C88h]
0x00403ce7	8B90F0010000	mov     edx, [eax+1F0h]
0x00403ced	8DB7886C0000	lea     esi, [edi+6C88h]
0x00403cf3	6800F00000	push    0F000h
0x00403cf8	8BCE	mov     ecx, esi
0x00403cfa	FFD2	call    edx
0x00403cfc	6A00	push    0
0x00403cfe	6A00	push    0
0x00403d00	56	push    esi
0x00403d01	8BCF	mov     ecx, edi
0x00403d03	FFD3	call    ebx ; CMDIFrameWndEx::DockPane(CBasePane *,uint,tagRECT const *); CMDIFrameWndEx::DockPane(CBasePane *,uint,tagRECT const *)
0x00403d05	8B8738990000	mov     eax, [edi+9938h]
0x00403d0b	8B90F0010000	mov     edx, [eax+1F0h]
0x00403d11	8DB738990000	lea     esi, [edi+9938h]
0x00403d17	6800F00000	push    0F000h
0x00403d1c	8BCE	mov     ecx, esi
0x00403d1e	FFD2	call    edx
0x00403d20	6A00	push    0
0x00403d22	6A00	push    0
0x00403d24	56	push    esi
0x00403d25	8BCF	mov     ecx, edi
0x00403d27	FFD3	call    ebx ; CMDIFrameWndEx::DockPane(CBasePane *,uint,tagRECT const *); CMDIFrameWndEx::DockPane(CBasePane *,uint,tagRECT const *)
0x00403d29	33DB	xor     ebx, ebx
0x00403d2b	53	push    ebx
0x00403d2c	6A01	push    1
0x00403d2e	6883000000	push    83h
0x00403d33	6883000000	push    83h
0x00403d38	8BCF	mov     ecx, edi
0x00403d3a	FF1510A74000	call    ds:__imp_?EnableWindowsDialog@CMDIFrameWndEx@@QAEXIIHH@Z; CMDIFrameWndEx::EnableWindowsDialog(uint,uint,int,int)
0x00403d40	53	push    ebx
0x00403d41	8D442410	lea     eax, [esp+74h+var_64]
0x00403d45	50	push    eax
0x00403d46	6A7E	push    7Eh
0x00403d48	6A01	push    1
0x00403d4a	8D8F4C010000	lea     ecx, [edi+14Ch]
0x00403d50	FF1514A74000	call    ds:__imp_?EnablePaneContextMenu@CDockingManager@@QAEXHIABV?$CStringT@_WV?$StrTraitMFC_DLL@_WV?$ChTraitsCRT@_W@ATL@@@@@ATL@@H@Z; CDockingManager::EnablePaneContextMenu(int,uint,ATL::CStringT<wchar_t,StrTraitMFC_DLL<wchar_t,ATL::ChTraitsCRT<wchar_t>>> const &,int)
0x00403d56	8B0D18A74000	mov     ecx, ds:__imp_?m_bAltCustomization@CMFCToolBar@@1HA; int CMFCToolBar::m_bAltCustomization
0x00403d5c	8B151CA74000	mov     edx, ds:__imp_?m_pUserImages@CMFCToolBar@@1PAVCMFCToolBarImages@@A; CMFCToolBarImages * CMFCToolBar::m_pUserImages
0x00403d62	C7875403000000E80000	mov     dword ptr [edi+354h], 0E800h
0x00403d6c	899F74030000	mov     [edi+374h], ebx
0x00403d72	C70101000000	mov     dword ptr [ecx], 1
0x00403d78	391A	cmp     [edx], ebx
0x00403d7a	7523	jnz     short loc_403D9F
0x00403d7c	6800800C00	push    0C8000h
0x00403d81	8DB7504A0000	lea     esi, [edi+4A50h]
0x00403d87	6840CB4000	push    offset aUserimagesBmp; ".\\UserImages.bmp"
0x00403d8c	8BCE	mov     ecx, esi
0x00403d8e	FF1520A74000	call    ds:__imp_?Load@CMFCToolBarImages@@QAEHPB_WK@Z; CMFCToolBarImages::Load(wchar_t const *,ulong)
0x00403d94	85C0	test    eax, eax
0x00403d96	7407	jz      short loc_403D9F
0x00403d98	56	push    esi
0x00403d99	FF1524A74000	call    ds:__imp_?SetUserImages@CMFCToolBar@@SGHPAVCMFCToolBarImages@@@Z; CMFCToolBar::SetUserImages(CMFCToolBarImages *)
0x00403d9f	C744241848CE4000	mov     dword ptr [esp+70h+var_58], offset ??_7?$CList@II@@6B@; const CList<uint,uint>::`vftable'
0x00403da7	895C2424	mov     [esp+70h+var_4C], ebx
0x00403dab	895C2428	mov     [esp+70h+var_48], ebx
0x00403daf	895C2420	mov     [esp+70h+var_50], ebx
0x00403db3	895C241C	mov     [esp+70h+var_54], ebx
0x00403db7	895C242C	mov     [esp+70h+var_44], ebx
0x00403dbb	C74424300A000000	mov     dword ptr [esp+70h+var_40], 0Ah
0x00403dc3	6800E10000	push    0E100h
0x00403dc8	8D74241C	lea     esi, [esp+74h+var_58]
0x00403dcc	C644247002	mov     byte ptr [esp+74h+var_4], 2
0x00403dd1	E8AA0A0000	call    CList_unsigned_int_unsigned_int___AddTail
0x00403dd6	6801E10000	push    0E101h
0x00403ddb	E8A00A0000	call    CList_unsigned_int_unsigned_int___AddTail
0x00403de0	6803E10000	push    0E103h
0x00403de5	E8960A0000	call    CList_unsigned_int_unsigned_int___AddTail
0x00403dea	6807E10000	push    0E107h
0x00403def	E88C0A0000	call    CList_unsigned_int_unsigned_int___AddTail
0x00403df4	6841E10000	push    0E141h
0x00403df9	E8820A0000	call    CList_unsigned_int_unsigned_int___AddTail
0x00403dfe	6823E10000	push    0E123h
0x00403e03	E8780A0000	call    CList_unsigned_int_unsigned_int___AddTail
0x00403e08	6825E10000	push    0E125h
0x00403e0d	E86E0A0000	call    CList_unsigned_int_unsigned_int___AddTail
0x00403e12	682BE10000	push    0E12Bh
0x00403e17	E8640A0000	call    CList_unsigned_int_unsigned_int___AddTail
0x00403e1c	6840E10000	push    0E140h
0x00403e21	E85A0A0000	call    CList_unsigned_int_unsigned_int___AddTail
0x00403e26	6801E80000	push    0E801h
0x00403e2b	E8500A0000	call    CList_unsigned_int_unsigned_int___AddTail
0x00403e30	6800E80000	push    0E800h
0x00403e35	E8460A0000	call    CList_unsigned_int_unsigned_int___AddTail
0x00403e3a	68D0000000	push    0D0h
0x00403e3f	E83C0A0000	call    CList_unsigned_int_unsigned_int___AddTail
0x00403e44	68D1000000	push    0D1h
0x00403e49	E8320A0000	call    CList_unsigned_int_unsigned_int___AddTail
0x00403e4e	68D7000000	push    0D7h
0x00403e53	E8280A0000	call    CList_unsigned_int_unsigned_int___AddTail
0x00403e58	68D9000000	push    0D9h
0x00403e5d	E81E0A0000	call    CList_unsigned_int_unsigned_int___AddTail
0x00403e62	68D8000000	push    0D8h
0x00403e67	E8140A0000	call    CList_unsigned_int_unsigned_int___AddTail
0x00403e6c	68DA000000	push    0DAh
0x00403e71	E80A0A0000	call    CList_unsigned_int_unsigned_int___AddTail
0x00403e76	68DB000000	push    0DBh
0x00403e7b	E8000A0000	call    CList_unsigned_int_unsigned_int___AddTail
0x00403e80	6892000000	push    92h
0x00403e85	E8F6090000	call    CList_unsigned_int_unsigned_int___AddTail
0x00403e8a	6893000000	push    93h
0x00403e8f	E8EC090000	call    CList_unsigned_int_unsigned_int___AddTail
0x00403e94	6894000000	push    94h
0x00403e99	E8E2090000	call    CList_unsigned_int_unsigned_int___AddTail
0x00403e9e	6891000000	push    91h
0x00403ea3	E8D8090000	call    CList_unsigned_int_unsigned_int___AddTail
0x00403ea8	8BC6	mov     eax, esi
0x00403eaa	50	push    eax
0x00403eab	FF1548A74000	call    ds:__imp_?SetBasicCommands@CMFCToolBar@@SGXAAV?$CList@II@@@Z; CMFCToolBar::SetBasicCommands(CList<uint,uint> &)
0x00403eb1	53	push    ebx
0x00403eb2	6800400000	push    4000h
0x00403eb7	53	push    ebx
0x00403eb8	8BCF	mov     ecx, edi
0x00403eba	FF1560AD4000	call    ds:__imp_?ModifyStyle@CWnd@@QAEHKKI@Z; CWnd::ModifyStyle(ulong,ulong,uint)
0x00403ec0	C644246C01	mov     byte ptr [esp+70h+var_4], 1
0x00403ec5	E8260B0000	call    CList_unsigned_int_unsigned_int____CList_unsigned_int_unsigned_int_
0x00403eca	8D4C240C	lea     ecx, [esp+70h+var_64]
0x00403ece	FF15CCA24000	call    ds:__imp_??1?$CStringT@_WV?$StrTraitMFC_DLL@_WV?$ChTraitsCRT@_W@ATL@@@@@ATL@@QAE@XZ; ATL::CStringT<wchar_t,StrTraitMFC_DLL<wchar_t,ATL::ChTraitsCRT<wchar_t>>>::~CStringT<wchar_t,StrTraitMFC_DLL<wchar_t,ATL::ChTraitsCRT<wchar_t>>>(void)
0x00403ed4	8D4C2410	lea     ecx, [esp+70h+var_60]
0x00403ed8	FF15CCA24000	call    ds:__imp_??1?$CStringT@_WV?$StrTraitMFC_DLL@_WV?$ChTraitsCRT@_W@ATL@@@@@ATL@@QAE@XZ; ATL::CStringT<wchar_t,StrTraitMFC_DLL<wchar_t,ATL::ChTraitsCRT<wchar_t>>>::~CStringT<wchar_t,StrTraitMFC_DLL<wchar_t,ATL::ChTraitsCRT<wchar_t>>>(void)
0x00403ede	8B4C2464	mov     ecx, [esp+70h+var_C]
0x00403ee2	5F	pop     edi
0x00403ee3	5E	pop     esi
0x00403ee4	33C0	xor     eax, eax
0x00403ee6	64890D00000000	mov     large fs:0, ecx
0x00403eed	5B	pop     ebx
0x00403eee	8BE5	mov     esp, ebp
0x00403ef0	5D	pop     ebp
0x00403ef1	C20400	retn    4
CMainFrame::OnCreate:0x004099d0-0x004099ea
0x004099d0	8D4DA0	lea     ecx, [ebp+var_60]
0x004099d3	FF25CCA24000	jmp     ds:__imp_??1?$CStringT@_WV?$StrTraitMFC_DLL@_WV?$ChTraitsCRT@_W@ATL@@@@@ATL@@QAE@XZ; ATL::CStringT<wchar_t,StrTraitMFC_DLL<wchar_t,ATL::ChTraitsCRT<wchar_t>>>::~CStringT<wchar_t,StrTraitMFC_DLL<wchar_t,ATL::ChTraitsCRT<wchar_t>>>(void)
0x004099d9	8D4D9C	lea     ecx, [ebp+var_64]
0x004099dc	FF25CCA24000	jmp     ds:__imp_??1?$CStringT@_WV?$StrTraitMFC_DLL@_WV?$ChTraitsCRT@_W@ATL@@@@@ATL@@QAE@XZ; ATL::CStringT<wchar_t,StrTraitMFC_DLL<wchar_t,ATL::ChTraitsCRT<wchar_t>>>::~CStringT<wchar_t,StrTraitMFC_DLL<wchar_t,ATL::ChTraitsCRT<wchar_t>>>(void)
0x004099e2	8D75A8	lea     esi, [ebp+var_58]
0x004099e5	E906B0FFFF	jmp     CList_unsigned_int_unsigned_int____CList_unsigned_int_unsigned_int_
CMainFrame::PreCreateWindow:0x00403f00-0x00403f17
0x00403f00	55	push    ebp
0x00403f01	8BEC	mov     ebp, esp
0x00403f03	8B4508	mov     eax, [ebp+arg_0]
0x00403f06	50	push    eax
0x00403f07	FF1550A74000	call    ds:__imp_?PreCreateWindow@CMDIFrameWndEx@@MAEHAAUtagCREATESTRUCTW@@@Z; CMDIFrameWndEx::PreCreateWindow(tagCREATESTRUCTW &)
0x00403f0d	F7D8	neg     eax
0x00403f0f	1BC0	sbb     eax, eax
0x00403f11	F7D8	neg     eax
0x00403f13	5D	pop     ebp
0x00403f14	C20400	retn    4
CMainFrame::CreateDockingWindows:0x00403f20-0x00404133
0x00403f20	55	push    ebp
0x00403f21	8BEC	mov     ebp, esp
0x00403f23	6AFF	push    0FFFFFFFFh
0x00403f25	6814924000	push    offset CMainFrame__CreateDockingWindows_SEH
0x00403f2a	64A100000000	mov     eax, large fs:0
0x00403f30	50	push    eax
0x00403f31	64892500000000	mov     large fs:0, esp
0x00403f38	83EC20	sub     esp, 20h
0x00403f3b	53	push    ebx
0x00403f3c	56	push    esi
0x00403f3d	57	push    edi
0x00403f3e	8BF9	mov     edi, ecx
0x00403f40	8D4DF0	lea     ecx, [ebp+var_10]
0x00403f43	FF15D0A24000	call    ds:__imp_??0?$CStringT@_WV?$StrTraitMFC_DLL@_WV?$ChTraitsCRT@_W@ATL@@@@@ATL@@QAE@XZ; ATL::CStringT<wchar_t,StrTraitMFC_DLL<wchar_t,ATL::ChTraitsCRT<wchar_t>>>::CStringT<wchar_t,StrTraitMFC_DLL<wchar_t,ATL::ChTraitsCRT<wchar_t>>>(void)
0x00403f49	33F6	xor     esi, esi
0x00403f4b	689C000000	push    9Ch
0x00403f50	8D4DF0	lea     ecx, [ebp+var_10]
0x00403f53	8975FC	mov     [ebp+var_4], esi
0x00403f56	FF15E4A64000	call    ds:__imp_?LoadStringW@?$CStringT@_WV?$StrTraitMFC_DLL@_WV?$ChTraitsCRT@_W@ATL@@@@@ATL@@QAEHI@Z; ATL::CStringT<wchar_t,StrTraitMFC_DLL<wchar_t,ATL::ChTraitsCRT<wchar_t>>>::LoadStringW(uint)
0x00403f5c	8B87F05B0000	mov     eax, [edi+5BF0h]
0x00403f62	8B802C030000	mov     eax, [eax+32Ch]
0x00403f68	56	push    esi
0x00403f69	6A0F	push    0Fh
0x00403f6b	6A20	push    20h
0x00403f6d	6840140056	push    56001440h
0x00403f72	6886000000	push    86h
0x00403f77	6A01	push    1
0x00403f79	8D55D4	lea     edx, [ebp+var_2C]
0x00403f7c	52	push    edx
0x00403f7d	8B55F0	mov     edx, [ebp+var_10]
0x00403f80	8D8FF05B0000	lea     ecx, [edi+5BF0h]
0x00403f86	57	push    edi
0x00403f87	BBC8000000	mov     ebx, 0C8h
0x00403f8c	52	push    edx
0x00403f8d	8975D4	mov     [ebp+var_2C], esi
0x00403f90	8975D8	mov     [ebp+var_28], esi
0x00403f93	895DDC	mov     [ebp+var_24], ebx
0x00403f96	895DE0	mov     [ebp+var_20], ebx
0x00403f99	FFD0	call    eax
0x00403f9b	85C0	test    eax, eax
0x00403f9d	0F842F010000	jz      loc_4040D2
0x00403fa3	8D4DEC	lea     ecx, [ebp+var_14]
0x00403fa6	FF15D0A24000	call    ds:__imp_??0?$CStringT@_WV?$StrTraitMFC_DLL@_WV?$ChTraitsCRT@_W@ATL@@@@@ATL@@QAE@XZ; ATL::CStringT<wchar_t,StrTraitMFC_DLL<wchar_t,ATL::ChTraitsCRT<wchar_t>>>::CStringT<wchar_t,StrTraitMFC_DLL<wchar_t,ATL::ChTraitsCRT<wchar_t>>>(void)
0x00403fac	689B000000	push    9Bh
0x00403fb1	8D4DEC	lea     ecx, [ebp+var_14]
0x00403fb4	C645FC01	mov     byte ptr [ebp+var_4], 1
0x00403fb8	FF15E4A64000	call    ds:__imp_?LoadStringW@?$CStringT@_WV?$StrTraitMFC_DLL@_WV?$ChTraitsCRT@_W@ATL@@@@@ATL@@QAEHI@Z; ATL::CStringT<wchar_t,StrTraitMFC_DLL<wchar_t,ATL::ChTraitsCRT<wchar_t>>>::LoadStringW(uint)
0x00403fbe	8B975C4B0000	mov     edx, [edi+4B5Ch]
0x00403fc4	8B922C030000	mov     edx, [edx+32Ch]
0x00403fca	56	push    esi
0x00403fcb	6A0F	push    0Fh
0x00403fcd	6A20	push    20h
0x00403fcf	6840140056	push    56001440h
0x00403fd4	6885000000	push    85h
0x00403fd9	6A01	push    1
0x00403fdb	8D45D4	lea     eax, [ebp+var_2C]
0x00403fde	50	push    eax
0x00403fdf	8B45EC	mov     eax, [ebp+var_14]
0x00403fe2	8D8F5C4B0000	lea     ecx, [edi+4B5Ch]
0x00403fe8	57	push    edi
0x00403fe9	50	push    eax
0x00403fea	8975D4	mov     [ebp+var_2C], esi
0x00403fed	8975D8	mov     [ebp+var_28], esi
0x00403ff0	895DDC	mov     [ebp+var_24], ebx
0x00403ff3	895DE0	mov     [ebp+var_20], ebx
0x00403ff6	FFD2	call    edx
0x00403ff8	85C0	test    eax, eax
0x00403ffa	0F84C9000000	jz      loc_4040C9
0x00404000	8D4DE8	lea     ecx, [ebp+var_18]
0x00404003	FF15D0A24000	call    ds:__imp_??0?$CStringT@_WV?$StrTraitMFC_DLL@_WV?$ChTraitsCRT@_W@ATL@@@@@ATL@@QAE@XZ; ATL::CStringT<wchar_t,StrTraitMFC_DLL<wchar_t,ATL::ChTraitsCRT<wchar_t>>>::CStringT<wchar_t,StrTraitMFC_DLL<wchar_t,ATL::ChTraitsCRT<wchar_t>>>(void)
0x00404009	689D000000	push    9Dh
0x0040400e	8D4DE8	lea     ecx, [ebp+var_18]
0x00404011	C645FC02	mov     byte ptr [ebp+var_4], 2
0x00404015	FF15E4A64000	call    ds:__imp_?LoadStringW@?$CStringT@_WV?$StrTraitMFC_DLL@_WV?$ChTraitsCRT@_W@ATL@@@@@ATL@@QAEHI@Z; ATL::CStringT<wchar_t,StrTraitMFC_DLL<wchar_t,ATL::ChTraitsCRT<wchar_t>>>::LoadStringW(uint)
0x0040401b	56	push    esi
0x0040401c	6A0F	push    0Fh
0x0040401e	6A20	push    20h
0x00404020	6840820056	push    56008240h
0x00404025	6895000000	push    95h
0x0040402a	6A01	push    1
0x0040402c	B864000000	mov     eax, 64h
0x00404031	8D55D4	lea     edx, [ebp+var_2C]
0x00404034	52	push    edx
0x00404035	8B55E8	mov     edx, [ebp+var_18]
0x00404038	8945DC	mov     [ebp+var_24], eax
0x0040403b	8945E0	mov     [ebp+var_20], eax
0x0040403e	8B87886C0000	mov     eax, [edi+6C88h]
0x00404044	8B802C030000	mov     eax, [eax+32Ch]
0x0040404a	8D8F886C0000	lea     ecx, [edi+6C88h]
0x00404050	57	push    edi
0x00404051	52	push    edx
0x00404052	8975D4	mov     [ebp+var_2C], esi
0x00404055	8975D8	mov     [ebp+var_28], esi
0x00404058	FFD0	call    eax
0x0040405a	85C0	test    eax, eax
0x0040405c	7462	jz      short loc_4040C0
0x0040405e	8D4DE4	lea     ecx, [ebp+var_1C]
0x00404061	FF15D0A24000	call    ds:__imp_??0?$CStringT@_WV?$StrTraitMFC_DLL@_WV?$ChTraitsCRT@_W@ATL@@@@@ATL@@QAE@XZ; ATL::CStringT<wchar_t,StrTraitMFC_DLL<wchar_t,ATL::ChTraitsCRT<wchar_t>>>::CStringT<wchar_t,StrTraitMFC_DLL<wchar_t,ATL::ChTraitsCRT<wchar_t>>>(void)
0x00404067	689E000000	push    9Eh
0x0040406c	8D4DE4	lea     ecx, [ebp+var_1C]
0x0040406f	C645FC03	mov     byte ptr [ebp+var_4], 3
0x00404073	FF15E4A64000	call    ds:__imp_?LoadStringW@?$CStringT@_WV?$StrTraitMFC_DLL@_WV?$ChTraitsCRT@_W@ATL@@@@@ATL@@QAEHI@Z; ATL::CStringT<wchar_t,StrTraitMFC_DLL<wchar_t,ATL::ChTraitsCRT<wchar_t>>>::LoadStringW(uint)
0x00404079	8B9738990000	mov     edx, [edi+9938h]
0x0040407f	8B922C030000	mov     edx, [edx+32Ch]
0x00404085	56	push    esi
0x00404086	6A0F	push    0Fh
0x00404088	6A20	push    20h
0x0040408a	6840410056	push    56004140h
0x0040408f	6896000000	push    96h
0x00404094	6A01	push    1
0x00404096	8D45D4	lea     eax, [ebp+var_2C]
0x00404099	50	push    eax
0x0040409a	8B45E4	mov     eax, [ebp+var_1C]
0x0040409d	8D8F38990000	lea     ecx, [edi+9938h]
0x004040a3	57	push    edi
0x004040a4	50	push    eax
0x004040a5	8975D4	mov     [ebp+var_2C], esi
0x004040a8	8975D8	mov     [ebp+var_28], esi
0x004040ab	895DDC	mov     [ebp+var_24], ebx
0x004040ae	895DE0	mov     [ebp+var_20], ebx
0x004040b1	FFD2	call    edx
0x004040b3	85C0	test    eax, eax
0x004040b5	7537	jnz     short loc_4040EE
0x004040b7	8D4DE4	lea     ecx, [ebp+var_1C]
0x004040ba	FF15CCA24000	call    ds:__imp_??1?$CStringT@_WV?$StrTraitMFC_DLL@_WV?$ChTraitsCRT@_W@ATL@@@@@ATL@@QAE@XZ; ATL::CStringT<wchar_t,StrTraitMFC_DLL<wchar_t,ATL::ChTraitsCRT<wchar_t>>>::~CStringT<wchar_t,StrTraitMFC_DLL<wchar_t,ATL::ChTraitsCRT<wchar_t>>>(void)
0x004040c0	8D4DE8	lea     ecx, [ebp+var_18]
0x004040c3	FF15CCA24000	call    ds:__imp_??1?$CStringT@_WV?$StrTraitMFC_DLL@_WV?$ChTraitsCRT@_W@ATL@@@@@ATL@@QAE@XZ; ATL::CStringT<wchar_t,StrTraitMFC_DLL<wchar_t,ATL::ChTraitsCRT<wchar_t>>>::~CStringT<wchar_t,StrTraitMFC_DLL<wchar_t,ATL::ChTraitsCRT<wchar_t>>>(void)
0x004040c9	8D4DEC	lea     ecx, [ebp+var_14]
0x004040cc	FF15CCA24000	call    ds:__imp_??1?$CStringT@_WV?$StrTraitMFC_DLL@_WV?$ChTraitsCRT@_W@ATL@@@@@ATL@@QAE@XZ; ATL::CStringT<wchar_t,StrTraitMFC_DLL<wchar_t,ATL::ChTraitsCRT<wchar_t>>>::~CStringT<wchar_t,StrTraitMFC_DLL<wchar_t,ATL::ChTraitsCRT<wchar_t>>>(void)
0x004040d2	8D4DF0	lea     ecx, [ebp+var_10]
0x004040d5	FF15CCA24000	call    ds:__imp_??1?$CStringT@_WV?$StrTraitMFC_DLL@_WV?$ChTraitsCRT@_W@ATL@@@@@ATL@@QAE@XZ; ATL::CStringT<wchar_t,StrTraitMFC_DLL<wchar_t,ATL::ChTraitsCRT<wchar_t>>>::~CStringT<wchar_t,StrTraitMFC_DLL<wchar_t,ATL::ChTraitsCRT<wchar_t>>>(void)
0x004040db	33C0	xor     eax, eax
0x004040dd	8B4DF4	mov     ecx, [ebp+var_C]
0x004040e0	64890D00000000	mov     large fs:0, ecx
0x004040e7	5F	pop     edi
0x004040e8	5E	pop     esi
0x004040e9	5B	pop     ebx
0x004040ea	8BE5	mov     esp, ebp
0x004040ec	5D	pop     ebp
0x004040ed	C3	retn
0x004040ee	8B1D202B4100	mov     ebx, dword_412B20
0x004040f4	E847000000	call    CMainFrame__SetDockingWindowIcons
0x004040f9	8D4DE4	lea     ecx, [ebp+var_1C]
0x004040fc	FF15CCA24000	call    ds:__imp_??1?$CStringT@_WV?$StrTraitMFC_DLL@_WV?$ChTraitsCRT@_W@ATL@@@@@ATL@@QAE@XZ; ATL::CStringT<wchar_t,StrTraitMFC_DLL<wchar_t,ATL::ChTraitsCRT<wchar_t>>>::~CStringT<wchar_t,StrTraitMFC_DLL<wchar_t,ATL::ChTraitsCRT<wchar_t>>>(void)
0x00404102	8D4DE8	lea     ecx, [ebp+var_18]
0x00404105	FF15CCA24000	call    ds:__imp_??1?$CStringT@_WV?$StrTraitMFC_DLL@_WV?$ChTraitsCRT@_W@ATL@@@@@ATL@@QAE@XZ; ATL::CStringT<wchar_t,StrTraitMFC_DLL<wchar_t,ATL::ChTraitsCRT<wchar_t>>>::~CStringT<wchar_t,StrTraitMFC_DLL<wchar_t,ATL::ChTraitsCRT<wchar_t>>>(void)
0x0040410b	8D4DEC	lea     ecx, [ebp+var_14]
0x0040410e	FF15CCA24000	call    ds:__imp_??1?$CStringT@_WV?$StrTraitMFC_DLL@_WV?$ChTraitsCRT@_W@ATL@@@@@ATL@@QAE@XZ; ATL::CStringT<wchar_t,StrTraitMFC_DLL<wchar_t,ATL::ChTraitsCRT<wchar_t>>>::~CStringT<wchar_t,StrTraitMFC_DLL<wchar_t,ATL::ChTraitsCRT<wchar_t>>>(void)
0x00404114	8D4DF0	lea     ecx, [ebp+var_10]
0x00404117	FF15CCA24000	call    ds:__imp_??1?$CStringT@_WV?$StrTraitMFC_DLL@_WV?$ChTraitsCRT@_W@ATL@@@@@ATL@@QAE@XZ; ATL::CStringT<wchar_t,StrTraitMFC_DLL<wchar_t,ATL::ChTraitsCRT<wchar_t>>>::~CStringT<wchar_t,StrTraitMFC_DLL<wchar_t,ATL::ChTraitsCRT<wchar_t>>>(void)
0x0040411d	8B4DF4	mov     ecx, [ebp+var_C]
0x00404120	5F	pop     edi
0x00404121	5E	pop     esi
0x00404122	B801000000	mov     eax, 1
0x00404127	64890D00000000	mov     large fs:0, ecx
0x0040412e	5B	pop     ebx
0x0040412f	8BE5	mov     esp, ebp
0x00404131	5D	pop     ebp
0x00404132	C3	retn
CMainFrame::CreateDockingWindows:0x004091f0-0x00409214
0x004091f0	8D4DF0	lea     ecx, [ebp+var_10]
0x004091f3	FF25CCA24000	jmp     ds:__imp_??1?$CStringT@_WV?$StrTraitMFC_DLL@_WV?$ChTraitsCRT@_W@ATL@@@@@ATL@@QAE@XZ; ATL::CStringT<wchar_t,StrTraitMFC_DLL<wchar_t,ATL::ChTraitsCRT<wchar_t>>>::~CStringT<wchar_t,StrTraitMFC_DLL<wchar_t,ATL::ChTraitsCRT<wchar_t>>>(void)
0x004091f9	8D4DEC	lea     ecx, [ebp+var_14]
0x004091fc	FF25CCA24000	jmp     ds:__imp_??1?$CStringT@_WV?$StrTraitMFC_DLL@_WV?$ChTraitsCRT@_W@ATL@@@@@ATL@@QAE@XZ; ATL::CStringT<wchar_t,StrTraitMFC_DLL<wchar_t,ATL::ChTraitsCRT<wchar_t>>>::~CStringT<wchar_t,StrTraitMFC_DLL<wchar_t,ATL::ChTraitsCRT<wchar_t>>>(void)
0x00409202	8D4DE8	lea     ecx, [ebp+var_18]
0x00409205	FF25CCA24000	jmp     ds:__imp_??1?$CStringT@_WV?$StrTraitMFC_DLL@_WV?$ChTraitsCRT@_W@ATL@@@@@ATL@@QAE@XZ; ATL::CStringT<wchar_t,StrTraitMFC_DLL<wchar_t,ATL::ChTraitsCRT<wchar_t>>>::~CStringT<wchar_t,StrTraitMFC_DLL<wchar_t,ATL::ChTraitsCRT<wchar_t>>>(void)
0x0040920b	8D4DE4	lea     ecx, [ebp+var_1C]
0x0040920e	FF25CCA24000	jmp     ds:__imp_??1?$CStringT@_WV?$StrTraitMFC_DLL@_WV?$ChTraitsCRT@_W@ATL@@@@@ATL@@QAE@XZ; ATL::CStringT<wchar_t,StrTraitMFC_DLL<wchar_t,ATL::ChTraitsCRT<wchar_t>>>::~CStringT<wchar_t,StrTraitMFC_DLL<wchar_t,ATL::ChTraitsCRT<wchar_t>>>(void)
CMainFrame::SetDockingWindowIcons:0x00404140-0x00404273
0x00404140	55	push    ebp
0x00404141	8BEC	mov     ebp, esp
0x00404143	51	push    ecx
0x00404144	56	push    esi
0x00404145	FF15E4A24000	call    ds:__imp_?AfxGetModuleState@@YGPAVAFX_MODULE_STATE@@XZ; AfxGetModuleState(void)
0x0040414b	8B400C	mov     eax, [eax+0Ch]
0x0040414e	8B3528A14000	mov     esi, ds:__imp__GetSystemMetrics@4; GetSystemMetrics(x)
0x00404154	6A00	push    0; fuLoad
0x00404156	6A32	push    32h; nIndex
0x00404158	8945FC	mov     [ebp+hInst], eax
0x0040415b	FFD6	call    esi ; GetSystemMetrics(x); GetSystemMetrics(x)
0x0040415d	50	push    eax; cy
0x0040415e	6A31	push    31h; nIndex
0x00404160	FFD6	call    esi ; GetSystemMetrics(x); GetSystemMetrics(x)
0x00404162	8B55FC	mov     edx, [ebp+hInst]
0x00404165	33C9	xor     ecx, ecx
0x00404167	85DB	test    ebx, ebx
0x00404169	0F95C1	setnz   cl
0x0040416c	50	push    eax; cx
0x0040416d	6A01	push    1; type
0x0040416f	81C1A1000000	add     ecx, 0A1h
0x00404175	51	push    ecx; name
0x00404176	52	push    edx; hInst
0x00404177	FF152CA14000	call    ds:__imp__LoadImageW@24; LoadImageW(x,x,x,x,x,x)
0x0040417d	50	push    eax; lParam
0x0040417e	8B877C4B0000	mov     eax, [edi+4B7Ch]
0x00404184	6A00	push    0; wParam
0x00404186	6880000000	push    80h; Msg
0x0040418b	50	push    eax; hWnd
0x0040418c	FF155CA14000	call    ds:__imp__SendMessageW@16; SendMessageW(x,x,x,x)
0x00404192	FF15E4A24000	call    ds:__imp_?AfxGetModuleState@@YGPAVAFX_MODULE_STATE@@XZ; AfxGetModuleState(void)
0x00404198	8B480C	mov     ecx, [eax+0Ch]
0x0040419b	6A00	push    0; fuLoad
0x0040419d	6A32	push    32h; nIndex
0x0040419f	894DFC	mov     [ebp+hInst], ecx
0x004041a2	FFD6	call    esi ; GetSystemMetrics(x); GetSystemMetrics(x)
0x004041a4	50	push    eax; cy
0x004041a5	6A31	push    31h; nIndex
0x004041a7	FFD6	call    esi ; GetSystemMetrics(x); GetSystemMetrics(x)
0x004041a9	33D2	xor     edx, edx
0x004041ab	85DB	test    ebx, ebx
0x004041ad	0F95C2	setnz   dl
0x004041b0	50	push    eax; cx
0x004041b1	8B45FC	mov     eax, [ebp+hInst]
0x004041b4	6A01	push    1; type
0x004041b6	81C2A3000000	add     edx, 0A3h
0x004041bc	52	push    edx; name
0x004041bd	50	push    eax; hInst
0x004041be	FF152CA14000	call    ds:__imp__LoadImageW@24; LoadImageW(x,x,x,x,x,x)
0x004041c4	8B8F105C0000	mov     ecx, [edi+5C10h]
0x004041ca	50	push    eax; lParam
0x004041cb	6A00	push    0; wParam
0x004041cd	6880000000	push    80h; Msg
0x004041d2	51	push    ecx; hWnd
0x004041d3	FF155CA14000	call    ds:__imp__SendMessageW@16; SendMessageW(x,x,x,x)
0x004041d9	FF15E4A24000	call    ds:__imp_?AfxGetModuleState@@YGPAVAFX_MODULE_STATE@@XZ; AfxGetModuleState(void)
0x004041df	8B500C	mov     edx, [eax+0Ch]
0x004041e2	6A00	push    0; fuLoad
0x004041e4	6A32	push    32h; nIndex
0x004041e6	8955FC	mov     [ebp+hInst], edx
0x004041e9	FFD6	call    esi ; GetSystemMetrics(x); GetSystemMetrics(x)
0x004041eb	50	push    eax; cy
0x004041ec	6A31	push    31h; nIndex
0x004041ee	FFD6	call    esi ; GetSystemMetrics(x); GetSystemMetrics(x)
0x004041f0	8B4DFC	mov     ecx, [ebp+hInst]
0x004041f3	50	push    eax; cx
0x004041f4	33C0	xor     eax, eax
0x004041f6	85DB	test    ebx, ebx
0x004041f8	0F95C0	setnz   al
0x004041fb	6A01	push    1; type
0x004041fd	05A5000000	add     eax, 0A5h
0x00404202	50	push    eax; name
0x00404203	51	push    ecx; hInst
0x00404204	FF152CA14000	call    ds:__imp__LoadImageW@24; LoadImageW(x,x,x,x,x,x)
0x0040420a	8B97A86C0000	mov     edx, [edi+6CA8h]
0x00404210	50	push    eax; lParam
0x00404211	6A00	push    0; wParam
0x00404213	6880000000	push    80h; Msg
0x00404218	52	push    edx; hWnd
0x00404219	FF155CA14000	call    ds:__imp__SendMessageW@16; SendMessageW(x,x,x,x)
0x0040421f	FF15E4A24000	call    ds:__imp_?AfxGetModuleState@@YGPAVAFX_MODULE_STATE@@XZ; AfxGetModuleState(void)
0x00404225	8B400C	mov     eax, [eax+0Ch]
0x00404228	8945FC	mov     [ebp+hInst], eax
0x0040422b	6A00	push    0; fuLoad
0x0040422d	6A32	push    32h; nIndex
0x0040422f	FFD6	call    esi ; GetSystemMetrics(x); GetSystemMetrics(x)
0x00404231	50	push    eax; cy
0x00404232	6A31	push    31h; nIndex
0x00404234	FFD6	call    esi ; GetSystemMetrics(x); GetSystemMetrics(x)
0x00404236	8B55FC	mov     edx, [ebp+hInst]
0x00404239	33C9	xor     ecx, ecx
0x0040423b	85DB	test    ebx, ebx
0x0040423d	0F95C1	setnz   cl
0x00404240	50	push    eax; cx
0x00404241	6A01	push    1; type
0x00404243	81C1A7000000	add     ecx, 0A7h
0x00404249	51	push    ecx; name
0x0040424a	52	push    edx; hInst
0x0040424b	FF152CA14000	call    ds:__imp__LoadImageW@24; LoadImageW(x,x,x,x,x,x)
0x00404251	50	push    eax; lParam
0x00404252	8B8758990000	mov     eax, [edi+9958h]
0x00404258	6A00	push    0; wParam
0x0040425a	6880000000	push    80h; Msg
0x0040425f	50	push    eax; hWnd
0x00404260	FF155CA14000	call    ds:__imp__SendMessageW@16; SendMessageW(x,x,x,x)
0x00404266	8BCF	mov     ecx, edi
0x00404268	FF1554A74000	call    ds:__imp_?UpdateMDITabbedBarsIcons@CMDIFrameWndEx@@QAEXXZ; CMDIFrameWndEx::UpdateMDITabbedBarsIcons(void)
0x0040426e	5E	pop     esi
0x0040426f	8BE5	mov     esp, ebp
0x00404271	5D	pop     ebp
0x00404272	C3	retn
CMainFrame::OnWindowManager:0x00404280-0x00404286
0x00404280	FF2558A74000	jmp     ds:__imp_?ShowWindowsDialog@CMDIFrameWndEx@@QAEXXZ; CMDIFrameWndEx::ShowWindowsDialog(void)
CMainFrame::OnViewCustomize:0x00404290-0x00404309
0x00404290	55	push    ebp
0x00404291	8BEC	mov     ebp, esp
0x00404293	6AFF	push    0FFFFFFFFh
0x00404295	68E8924000	push    offset CnotepadView__CreateObject_SEH
0x0040429a	64A100000000	mov     eax, large fs:0
0x004042a0	50	push    eax
0x004042a1	64892500000000	mov     large fs:0, esp
0x004042a8	51	push    ecx
0x004042a9	56	push    esi
0x004042aa	68A0080000	push    8A0h
0x004042af	8BF1	mov     esi, ecx
0x004042b1	FF15ACAD4000	call    ds:__imp_??2@YAPAXI@Z; operator new(uint)
0x004042b7	83C404	add     esp, 4
0x004042ba	8945F0	mov     [ebp+var_10], eax
0x004042bd	C745FC00000000	mov     [ebp+var_4], 0
0x004042c4	85C0	test    eax, eax
0x004042c6	7413	jz      short loc_4042DB
0x004042c8	6A00	push    0
0x004042ca	6A0F	push    0Fh
0x004042cc	6A01	push    1
0x004042ce	56	push    esi
0x004042cf	8BC8	mov     ecx, eax
0x004042d1	FF1588AD4000	call    ds:__imp_??0CMFCToolBarsCustomizeDialog@@QAE@PAVCFrameWnd@@HIPAV?$CList@PAUCRuntimeClass@@PAU1@@@@Z; CMFCToolBarsCustomizeDialog::CMFCToolBarsCustomizeDialog(CFrameWnd *,int,uint,CList<CRuntimeClass *,CRuntimeClass *> *)
0x004042d7	8BF0	mov     esi, eax
0x004042d9	EB02	jmp     short loc_4042DD
0x004042db	33F6	xor     esi, esi
0x004042dd	6A01	push    1
0x004042df	8BCE	mov     ecx, esi
0x004042e1	C745FCFFFFFFFF	mov     [ebp+var_4], 0FFFFFFFFh
0x004042e8	FF1560A74000	call    ds:__imp_?EnableUserDefinedToolbars@CMFCToolBarsCustomizeDialog@@QAEXH@Z; CMFCToolBarsCustomizeDialog::EnableUserDefinedToolbars(int)
0x004042ee	8B06	mov     eax, [esi]
0x004042f0	8B9090010000	mov     edx, [eax+190h]
0x004042f6	8BCE	mov     ecx, esi
0x004042f8	FFD2	call    edx
0x004042fa	8B4DF4	mov     ecx, [ebp+var_C]
0x004042fd	5E	pop     esi
0x004042fe	64890D00000000	mov     large fs:0, ecx
0x00404305	8BE5	mov     esp, ebp
0x00404307	5D	pop     ebp
0x00404308	C3	retn
CMainFrame::OnViewCustomize:0x004092e0-0x004092e8
0x004092e0	8B45F0	mov     eax, [ebp+var_10]
0x004092e3	E9087EFFFF	jmp     CObject__operator_delete
CMainFrame::OnToolbarCreateNew:0x00404310-0x00404397
0x00404310	55	push    ebp
0x00404311	8BEC	mov     ebp, esp
0x00404313	64A100000000	mov     eax, large fs:0
0x00404319	8B5508	mov     edx, [ebp+arg_0]
0x0040431c	6AFF	push    0FFFFFFFFh
0x0040431e	68D9914000	push    offset CMainFrame__OnToolbarCreateNew_SEH
0x00404323	50	push    eax
0x00404324	64892500000000	mov     large fs:0, esp
0x0040432b	8B450C	mov     eax, [ebp+arg_4]
0x0040432e	56	push    esi
0x0040432f	50	push    eax
0x00404330	52	push    edx
0x00404331	FF15BCAD4000	call    ds:__imp_?OnToolbarCreateNew@CMDIFrameWndEx@@IAEJIJ@Z; CMDIFrameWndEx::OnToolbarCreateNew(uint,long)
0x00404337	8BF0	mov     esi, eax
0x00404339	85F6	test    esi, esi
0x0040433b	7511	jnz     short loc_40434E
0x0040433d	8B4DF4	mov     ecx, [ebp+var_C]
0x00404340	64890D00000000	mov     large fs:0, ecx
0x00404347	5E	pop     esi
0x00404348	8BE5	mov     esp, ebp
0x0040434a	5D	pop     ebp
0x0040434b	C20800	retn    8
0x0040434e	8D4D0C	lea     ecx, [ebp+arg_4]
0x00404351	FF15D0A24000	call    ds:__imp_??0?$CStringT@_WV?$StrTraitMFC_DLL@_WV?$ChTraitsCRT@_W@ATL@@@@@ATL@@QAE@XZ; ATL::CStringT<wchar_t,StrTraitMFC_DLL<wchar_t,ATL::ChTraitsCRT<wchar_t>>>::CStringT<wchar_t,StrTraitMFC_DLL<wchar_t,ATL::ChTraitsCRT<wchar_t>>>(void)
0x00404357	6A7D	push    7Dh
0x00404359	8D4D0C	lea     ecx, [ebp+arg_4]
0x0040435c	C745FC00000000	mov     [ebp+var_4], 0
0x00404363	FF15E4A64000	call    ds:__imp_?LoadStringW@?$CStringT@_WV?$StrTraitMFC_DLL@_WV?$ChTraitsCRT@_W@ATL@@@@@ATL@@QAEHI@Z; ATL::CStringT<wchar_t,StrTraitMFC_DLL<wchar_t,ATL::ChTraitsCRT<wchar_t>>>::LoadStringW(uint)
0x00404369	6A01	push    1
0x0040436b	8D450C	lea     eax, [ebp+arg_4]
0x0040436e	50	push    eax
0x0040436f	6A7E	push    7Eh
0x00404371	6A01	push    1
0x00404373	8BCE	mov     ecx, esi
0x00404375	FF15ECA64000	call    ds:__imp_?EnableCustomizeButton@CMFCToolBar@@QAEXHHABV?$CStringT@_WV?$StrTraitMFC_DLL@_WV?$ChTraitsCRT@_W@ATL@@@@@ATL@@H@Z; CMFCToolBar::EnableCustomizeButton(int,int,ATL::CStringT<wchar_t,StrTraitMFC_DLL<wchar_t,ATL::ChTraitsCRT<wchar_t>>> const &,int)
0x0040437b	8D4D0C	lea     ecx, [ebp+arg_4]
0x0040437e	FF15CCA24000	call    ds:__imp_??1?$CStringT@_WV?$StrTraitMFC_DLL@_WV?$ChTraitsCRT@_W@ATL@@@@@ATL@@QAE@XZ; ATL::CStringT<wchar_t,StrTraitMFC_DLL<wchar_t,ATL::ChTraitsCRT<wchar_t>>>::~CStringT<wchar_t,StrTraitMFC_DLL<wchar_t,ATL::ChTraitsCRT<wchar_t>>>(void)
0x00404384	8B4DF4	mov     ecx, [ebp+var_C]
0x00404387	8BC6	mov     eax, esi
0x00404389	64890D00000000	mov     large fs:0, ecx
0x00404390	5E	pop     esi
0x00404391	8BE5	mov     esp, ebp
0x00404393	5D	pop     ebp
0x00404394	C20800	retn    8
CMainFrame::OnToolbarCreateNew:0x004091d0-0x004091d9
0x004091d0	8D4D0C	lea     ecx, [ebp+arg_4]
0x004091d3	FF25CCA24000	jmp     ds:__imp_??1?$CStringT@_WV?$StrTraitMFC_DLL@_WV?$ChTraitsCRT@_W@ATL@@@@@ATL@@QAE@XZ; ATL::CStringT<wchar_t,StrTraitMFC_DLL<wchar_t,ATL::ChTraitsCRT<wchar_t>>>::~CStringT<wchar_t,StrTraitMFC_DLL<wchar_t,ATL::ChTraitsCRT<wchar_t>>>(void)
CMainFrame::OnApplicationLook:0x004043a0-0x004044df
0x004043a0	55	push    ebp
0x004043a1	8BEC	mov     ebp, esp
0x004043a3	64A100000000	mov     eax, large fs:0
0x004043a9	6AFF	push    0FFFFFFFFh
0x004043ab	6835934000	push    offset CMainFrame__OnApplicationLook_SEH
0x004043b0	50	push    eax
0x004043b1	64892500000000	mov     large fs:0, esp
0x004043b8	56	push    esi
0x004043b9	8BF1	mov     esi, ecx
0x004043bb	FF15E4A24000	call    ds:__imp_?AfxGetModuleState@@YGPAVAFX_MODULE_STATE@@XZ; AfxGetModuleState(void)
0x004043c1	8B4804	mov     ecx, [eax+4]
0x004043c4	FF1568A74000	call    ds:__imp_?BeginWaitCursor@CCmdTarget@@QAEXXZ; CCmdTarget::BeginWaitCursor(void)
0x004043ca	8B4508	mov     eax, [ebp+arg_0]
0x004043cd	8D8833FFFFFF	lea     ecx, [eax-0CDh]; switch 15 cases
0x004043d3	C745FC00000000	mov     [ebp+var_4], 0
0x004043da	A31C2B4100	mov     dword_412B1C, eax
0x004043df	83F90E	cmp     ecx, 0Eh
0x004043e2	776D	ja      short loc_404451; jumptable 004043EB default case
0x004043e4	0FB68900454000	movzx   ecx, ds:byte_404500[ecx]
0x004043eb	FF248DE0444000	jmp     ds:off_4044E0[ecx*4]; switch jump
0x004043f2	FF1574A74000	call    ds:__imp_?GetThisClass@CMFCVisualManager@@SGPAUCRuntimeClass@@XZ; jumptable 004043EB case 205
0x004043f8	50	push    eax
0x004043f9	FF1570A74000	call    ds:__imp_?SetDefaultManager@CMFCVisualManager@@SGXPAUCRuntimeClass@@@Z; CMFCVisualManager::SetDefaultManager(CRuntimeClass *)
0x004043ff	E994000000	jmp     loc_404498
0x00404404	FF1578A74000	call    ds:__imp_?GetThisClass@CMFCVisualManagerOfficeXP@@SGPAUCRuntimeClass@@XZ; jumptable 004043EB case 206
0x0040440a	50	push    eax
0x0040440b	FF1570A74000	call    ds:__imp_?SetDefaultManager@CMFCVisualManager@@SGXPAUCRuntimeClass@@@Z; CMFCVisualManager::SetDefaultManager(CRuntimeClass *)
0x00404411	E982000000	jmp     loc_404498
0x00404416	8B157CA74000	mov     edx, ds:__imp_?m_b3DTabsXPTheme@CMFCVisualManagerWindows@@2HA; jumptable 004043EB case 207
0x0040441c	C70201000000	mov     dword ptr [edx], 1
0x00404422	FF1580A74000	call    ds:__imp_?GetThisClass@CMFCVisualManagerWindows@@SGPAUCRuntimeClass@@XZ; CMFCVisualManagerWindows::GetThisClass(void)
0x00404428	50	push    eax
0x00404429	FF1570A74000	call    ds:__imp_?SetDefaultManager@CMFCVisualManager@@SGXPAUCRuntimeClass@@@Z; CMFCVisualManager::SetDefaultManager(CRuntimeClass *)
0x0040442f	EB67	jmp     short loc_404498
0x00404431	FF1584A74000	call    ds:__imp_?GetThisClass@CMFCVisualManagerOffice2003@@SGPAUCRuntimeClass@@XZ; jumptable 004043EB case 208
0x00404437	EB4B	jmp     short loc_404484
0x00404439	FF1588A74000	call    ds:__imp_?GetThisClass@CMFCVisualManagerVS2005@@SGPAUCRuntimeClass@@XZ; jumptable 004043EB case 209
0x0040443f	EB43	jmp     short loc_404484
0x00404441	FF158CA74000	call    ds:__imp_?GetThisClass@CMFCVisualManagerVS2008@@SGPAUCRuntimeClass@@XZ; jumptable 004043EB case 210
0x00404447	EB3B	jmp     short loc_404484
0x00404449	FF1590A74000	call    ds:__imp_?GetThisClass@CMFCVisualManagerWindows7@@SGPAUCRuntimeClass@@XZ; jumptable 004043EB case 219
0x0040444f	EB33	jmp     short loc_404484
0x00404451	0529FFFFFF	add     eax, 0FFFFFF29h; jumptable 004043EB default case
0x00404456	83F803	cmp     eax, 3
0x00404459	7723	ja      short loc_40447E; jumptable 0040445B default case
0x0040445b	FF248510454000	jmp     ds:off_404510[eax*4]; switch jump
0x00404462	6A00	push    0; jumptable 0040445B case 215
0x00404464	6A00	push    0
0x00404466	EB10	jmp     short loc_404478
0x00404468	6A00	push    0; jumptable 0040445B case 216
0x0040446a	6A01	push    1
0x0040446c	EB0A	jmp     short loc_404478
0x0040446e	6A00	push    0; jumptable 0040445B case 217
0x00404470	6A03	push    3
0x00404472	EB04	jmp     short loc_404478
0x00404474	6A00	push    0; jumptable 0040445B case 218
0x00404476	6A02	push    2
0x00404478	FF1594A74000	call    ds:__imp_?SetStyle@CMFCVisualManagerOffice2007@@SGHW4Style@1@PB_W@Z; CMFCVisualManagerOffice2007::SetStyle(CMFCVisualManagerOffice2007::Style,wchar_t const *)
0x0040447e	FF1598A74000	call    ds:__imp_?GetThisClass@CMFCVisualManagerOffice2007@@SGPAUCRuntimeClass@@XZ; jumptable 0040445B default case
0x00404484	50	push    eax
0x00404485	FF1570A74000	call    ds:__imp_?SetDefaultManager@CMFCVisualManager@@SGXPAUCRuntimeClass@@@Z; CMFCVisualManager::SetDefaultManager(CRuntimeClass *)
0x0040448b	6A00	push    0
0x0040448d	6880000000	push    80h
0x00404492	FF1504A74000	call    ds:__imp_?SetDockingMode@CDockingManager@@SGXW4AFX_DOCK_TYPE@@W4AFX_SMARTDOCK_THEME@@@Z; CDockingManager::SetDockingMode(AFX_DOCK_TYPE,AFX_SMARTDOCK_THEME)
0x00404498	8B4620	mov     eax, [esi+20h]
0x0040449b	6885050000	push    585h; flags
0x004044a0	6A00	push    0; hrgnUpdate
0x004044a2	6A00	push    0; lprcUpdate
0x004044a4	50	push    eax; hWnd
0x004044a5	FF1524A14000	call    ds:__imp__RedrawWindow@16; RedrawWindow(x,x,x,x)
0x004044ab	8B0D1C2B4100	mov     ecx, dword_412B1C
0x004044b1	51	push    ecx
0x004044b2	6820CB4000	push    offset aApplicationloo; "ApplicationLook"
0x004044b7	B9202A4100	mov     ecx, offset theApp
0x004044bc	FF159CA74000	call    ds:__imp_?WriteInt@CWinAppEx@@QAEHPB_WH@Z; CWinAppEx::WriteInt(wchar_t const *,int)
0x004044c2	C745FCFFFFFFFF	mov     [ebp+var_4], 0FFFFFFFFh
0x004044c9	E8C2010000	call    CWaitCursor___CWaitCursor
0x004044ce	8B4DF4	mov     ecx, [ebp+var_C]
0x004044d1	64890D00000000	mov     large fs:0, ecx
0x004044d8	5E	pop     esi
0x004044d9	8BE5	mov     esp, ebp
0x004044db	5D	pop     ebp
0x004044dc	C20400	retn    4
CMainFrame::OnApplicationLook:0x00409330-0x00409335
0x00409330	E95BB3FFFF	jmp     CWaitCursor___CWaitCursor
CMainFrame::OnUpdateApplicationLook:0x00404520-0x00404542
0x00404520	55	push    ebp
0x00404521	8BEC	mov     ebp, esp
0x00404523	8B4D08	mov     ecx, [ebp+arg_0]
0x00404526	8B01	mov     eax, [ecx]
0x00404528	8B4008	mov     eax, [eax+8]
0x0040452b	56	push    esi
0x0040452c	8B351C2B4100	mov     esi, dword_412B1C
0x00404532	33D2	xor     edx, edx
0x00404534	3B7104	cmp     esi, [ecx+4]
0x00404537	0F94C2	setz    dl
0x0040453a	52	push    edx
0x0040453b	FFD0	call    eax
0x0040453d	5E	pop     esi
0x0040453e	5D	pop     ebp
0x0040453f	C20400	retn    4
CMainFrame::LoadFrame:0x00404550-0x00404606
0x00404550	55	push    ebp
0x00404551	8BEC	mov     ebp, esp
0x00404553	64A100000000	mov     eax, large fs:0
0x00404559	8B550C	mov     edx, [ebp+arg_4]
0x0040455c	6AFF	push    0FFFFFFFFh
0x0040455e	68B9914000	push    offset CMainFrame__LoadFrame_SEH
0x00404563	50	push    eax
0x00404564	64892500000000	mov     large fs:0, esp
0x0040456b	8B4514	mov     eax, [ebp+arg_C]
0x0040456e	53	push    ebx
0x0040456f	56	push    esi
0x00404570	57	push    edi
0x00404571	50	push    eax
0x00404572	8B4508	mov     eax, [ebp+arg_0]
0x00404575	8BF9	mov     edi, ecx
0x00404577	8B4D10	mov     ecx, [ebp+arg_8]
0x0040457a	51	push    ecx
0x0040457b	52	push    edx
0x0040457c	50	push    eax
0x0040457d	8BCF	mov     ecx, edi
0x0040457f	FF15A0A74000	call    ds:__imp_?LoadFrame@CMDIFrameWndEx@@UAEHIKPAVCWnd@@PAUCCreateContext@@@Z; CMDIFrameWndEx::LoadFrame(uint,ulong,CWnd *,CCreateContext *)
0x00404585	85C0	test    eax, eax
0x00404587	7513	jnz     short loc_40459C
0x00404589	8B4DF4	mov     ecx, [ebp+var_C]
0x0040458c	64890D00000000	mov     large fs:0, ecx
0x00404593	5F	pop     edi
0x00404594	5E	pop     esi
0x00404595	5B	pop     ebx
0x00404596	8BE5	mov     esp, ebp
0x00404598	5D	pop     ebp
0x00404599	C21000	retn    10h
0x0040459c	8D4D14	lea     ecx, [ebp+arg_C]
0x0040459f	FF15D0A24000	call    ds:__imp_??0?$CStringT@_WV?$StrTraitMFC_DLL@_WV?$ChTraitsCRT@_W@ATL@@@@@ATL@@QAE@XZ; ATL::CStringT<wchar_t,StrTraitMFC_DLL<wchar_t,ATL::ChTraitsCRT<wchar_t>>>::CStringT<wchar_t,StrTraitMFC_DLL<wchar_t,ATL::ChTraitsCRT<wchar_t>>>(void)
0x004045a5	33F6	xor     esi, esi
0x004045a7	6A7D	push    7Dh
0x004045a9	8D4D14	lea     ecx, [ebp+arg_C]
0x004045ac	8975FC	mov     [ebp+var_4], esi
0x004045af	FF15E4A64000	call    ds:__imp_?LoadStringW@?$CStringT@_WV?$StrTraitMFC_DLL@_WV?$ChTraitsCRT@_W@ATL@@@@@ATL@@QAEHI@Z; ATL::CStringT<wchar_t,StrTraitMFC_DLL<wchar_t,ATL::ChTraitsCRT<wchar_t>>>::LoadStringW(uint)
0x004045b5	8B1DA4A74000	mov     ebx, ds:__imp_?GetUserToolBarByIndex@CFrameImpl@@IBEPAVCMFCToolBar@@H@Z; CFrameImpl::GetUserToolBarByIndex(int)
0x004045bb	EB03	jmp     short loc_4045C0
0x004045bd	8D4900	align 10h
0x004045c0	56	push    esi
0x004045c1	8D8F3C030000	lea     ecx, [edi+33Ch]
0x004045c7	FFD3	call    ebx ; CFrameImpl::GetUserToolBarByIndex(int); CFrameImpl::GetUserToolBarByIndex(int)
0x004045c9	85C0	test    eax, eax
0x004045cb	7412	jz      short loc_4045DF
0x004045cd	6A01	push    1
0x004045cf	8D4D14	lea     ecx, [ebp+arg_C]
0x004045d2	51	push    ecx
0x004045d3	6A7E	push    7Eh
0x004045d5	6A01	push    1
0x004045d7	8BC8	mov     ecx, eax
0x004045d9	FF15ECA64000	call    ds:__imp_?EnableCustomizeButton@CMFCToolBar@@QAEXHHABV?$CStringT@_WV?$StrTraitMFC_DLL@_WV?$ChTraitsCRT@_W@ATL@@@@@ATL@@H@Z; CMFCToolBar::EnableCustomizeButton(int,int,ATL::CStringT<wchar_t,StrTraitMFC_DLL<wchar_t,ATL::ChTraitsCRT<wchar_t>>> const &,int)
0x004045df	46	inc     esi
0x004045e0	83FE0A	cmp     esi, 0Ah
0x004045e3	7CDB	jl      short loc_4045C0
0x004045e5	8D4D14	lea     ecx, [ebp+arg_C]
0x004045e8	FF15CCA24000	call    ds:__imp_??1?$CStringT@_WV?$StrTraitMFC_DLL@_WV?$ChTraitsCRT@_W@ATL@@@@@ATL@@QAE@XZ; ATL::CStringT<wchar_t,StrTraitMFC_DLL<wchar_t,ATL::ChTraitsCRT<wchar_t>>>::~CStringT<wchar_t,StrTraitMFC_DLL<wchar_t,ATL::ChTraitsCRT<wchar_t>>>(void)
0x004045ee	8B4DF4	mov     ecx, [ebp+var_C]
0x004045f1	5F	pop     edi
0x004045f2	5E	pop     esi
0x004045f3	B801000000	mov     eax, 1
0x004045f8	64890D00000000	mov     large fs:0, ecx
0x004045ff	5B	pop     ebx
0x00404600	8BE5	mov     esp, ebp
0x00404602	5D	pop     ebp
0x00404603	C21000	retn    10h
CMainFrame::LoadFrame:0x004091b0-0x004091b9
0x004091b0	8D4D14	lea     ecx, [ebp+arg_C]
0x004091b3	FF25CCA24000	jmp     ds:__imp_??1?$CStringT@_WV?$StrTraitMFC_DLL@_WV?$ChTraitsCRT@_W@ATL@@@@@ATL@@QAE@XZ; ATL::CStringT<wchar_t,StrTraitMFC_DLL<wchar_t,ATL::ChTraitsCRT<wchar_t>>>::~CStringT<wchar_t,StrTraitMFC_DLL<wchar_t,ATL::ChTraitsCRT<wchar_t>>>(void)
CMainFrame::OnSettingChange:0x00404610-0x00404638
0x00404610	55	push    ebp
0x00404611	8BEC	mov     ebp, esp
0x00404613	8B450C	mov     eax, [ebp+arg_4]
0x00404616	56	push    esi
0x00404617	57	push    edi
0x00404618	8BF1	mov     esi, ecx
0x0040461a	8B4D08	mov     ecx, [ebp+arg_0]
0x0040461d	50	push    eax
0x0040461e	51	push    ecx
0x0040461f	8BCE	mov     ecx, esi
0x00404621	FF15A8A74000	call    ds:__imp_?OnSettingChange@CWnd@@IAEXIPB_W@Z; CWnd::OnSettingChange(uint,wchar_t const *)
0x00404627	8DBE886C0000	lea     edi, [esi+6C88h]
0x0040462d	E84E170000	call    COutputWnd__UpdateFonts
0x00404632	5F	pop     edi
0x00404633	5E	pop     esi
0x00404634	5D	pop     ebp
0x00404635	C20800	retn    8
CMDIFrameWndEx::OnDrawMenuLogo:0x00404640-0x00404643
0x00404640	C20C00	retn    0Ch
CMFCBaseToolBar::OnShowControlBarMenu:0x00404650-0x00404655
0x00404650	33C0	xor     eax, eax
0x00404652	C20800	retn    8
CMDIFrameWndEx::OnShowCustomizePane:0x00404660-0x00404680
0x00404660	55	push    ebp
0x00404661	8BEC	mov     ebp, esp
0x00404663	8B450C	mov     eax, [ebp+arg_4]
0x00404666	8B5508	mov     edx, [ebp+arg_0]
0x00404669	50	push    eax
0x0040466a	52	push    edx
0x0040466b	81C13C030000	add     ecx, 33Ch
0x00404671	FF1518A84000	call    ds:__imp_?AddDefaultButtonsToCustomizePane@CFrameImpl@@IAEXPAVCMFCPopupMenu@@I@Z; CFrameImpl::AddDefaultButtonsToCustomizePane(CMFCPopupMenu *,uint)
0x00404677	B801000000	mov     eax, 1
0x0040467c	5D	pop     ebp
0x0040467d	C20800	retn    8
CMDIFrameWndEx::CanConvertControlBarToMDIChild:0x00404680-0x00404687
0x00404680	8B8134010000	mov     eax, [ecx+134h]
0x00404686	C3	retn
CWaitCursor::_CWaitCursor:0x00404690-0x0040477d
0x00404690	55	push    ebp
0x00404691	8BEC	mov     ebp, esp
0x00404693	6AFF	push    0FFFFFFFFh
0x00404695	6899914000	push    offset CWaitCursor___CWaitCursor_SEH
0x0040469a	64A100000000	mov     eax, large fs:0
0x004046a0	50	push    eax
0x004046a1	64892500000000	mov     large fs:0, esp
0x004046a8	81EC0C040000	sub     esp, 40Ch
0x004046ae	53	push    ebx
0x004046af	56	push    esi
0x004046b0	57	push    edi
0x004046b1	8965F0	mov     [ebp+var_10], esp
0x004046b4	C745FC00000000	mov     [ebp+var_4], 0
0x004046bb	FF15E4A24000	call    ds:__imp_?AfxGetModuleState@@YGPAVAFX_MODULE_STATE@@XZ; AfxGetModuleState(void)
0x004046c1	8B4804	mov     ecx, [eax+4]
0x004046c4	FF156CA74000	call    ds:__imp_?EndWaitCursor@CCmdTarget@@QAEXXZ; CCmdTarget::EndWaitCursor(void)
0x004046ca	8B4DF4	mov     ecx, [ebp+var_C]
0x004046cd	5F	pop     edi
0x004046ce	5E	pop     esi
0x004046cf	64890D00000000	mov     large fs:0, ecx
0x004046d6	5B	pop     ebx
0x004046d7	8BE5	mov     esp, ebp
0x004046d9	5D	pop     ebp
0x004046da	C3	retn
0x004046db	8D4DEC	lea     ecx, [ebp+var_14]
0x004046de	FF15D0A24000	call    ds:__imp_??0?$CStringT@_WV?$StrTraitMFC_DLL@_WV?$ChTraitsCRT@_W@ATL@@@@@ATL@@QAE@XZ; ATL::CStringT<wchar_t,StrTraitMFC_DLL<wchar_t,ATL::ChTraitsCRT<wchar_t>>>::CStringT<wchar_t,StrTraitMFC_DLL<wchar_t,ATL::ChTraitsCRT<wchar_t>>>(void)
0x004046e4	C645FC02	mov     byte ptr [ebp+var_4], 2
0x004046e8	8B75E8	mov     esi, [ebp+var_18]
0x004046eb	8B06	mov     eax, [esi]
0x004046ed	8B5014	mov     edx, [eax+14h]
0x004046f0	6A00	push    0
0x004046f2	6800020000	push    200h
0x004046f7	8D8DE8FBFFFF	lea     ecx, [ebp+var_418]
0x004046fd	51	push    ecx
0x004046fe	8BCE	mov     ecx, esi
0x00404700	FFD2	call    edx
0x00404702	85C0	test    eax, eax
0x00404704	742A	jz      short loc_404730
0x00404706	8D85E8FBFFFF	lea     eax, [ebp+var_418]
0x0040470c	50	push    eax
0x0040470d	6894040000	push    494h
0x00404712	68A0CD4000	push    offset aCProgramFilesX_0; "c:\\Program Files (x86)\\Microsoft Visu"...
0x00404717	68B4BE4000	push    offset aExceptionThrow; "Exception thrown in destructor"
0x0040471c	8D4DEC	lea     ecx, [ebp+var_14]
0x0040471f	68F4BE4000	push    offset aSSDS; "%s (%s:%d)\n%s"
0x00404724	51	push    ecx
0x00404725	FF15C8A24000	call    ds:__imp_?Format@?$CStringT@_WV?$StrTraitMFC_DLL@_WV?$ChTraitsCRT@_W@ATL@@@@@ATL@@QAAXPB_WZZ; ATL::CStringT<wchar_t,StrTraitMFC_DLL<wchar_t,ATL::ChTraitsCRT<wchar_t>>>::Format(wchar_t const *,...)
0x0040472b	83C418	add     esp, 18h
0x0040472e	EB21	jmp     short loc_404751
0x00404730	6894040000	push    494h
0x00404735	68A0CD4000	push    offset aCProgramFilesX_0; "c:\\Program Files (x86)\\Microsoft Visu"...
0x0040473a	68B4BE4000	push    offset aExceptionThrow; "Exception thrown in destructor"
0x0040473f	8D55EC	lea     edx, [ebp+var_14]
0x00404742	6810BF4000	push    offset aSSD; "%s (%s:%d)"
0x00404747	52	push    edx
0x00404748	FF15C8A24000	call    ds:__imp_?Format@?$CStringT@_WV?$StrTraitMFC_DLL@_WV?$ChTraitsCRT@_W@ATL@@@@@ATL@@QAAXPB_WZZ; ATL::CStringT<wchar_t,StrTraitMFC_DLL<wchar_t,ATL::ChTraitsCRT<wchar_t>>>::Format(wchar_t const *,...)
0x0040474e	83C414	add     esp, 14h
0x00404751	8B45EC	mov     eax, [ebp+var_14]
0x00404754	6A00	push    0
0x00404756	6A00	push    0
0x00404758	50	push    eax
0x00404759	FF15A8A24000	call    ds:__imp_?AfxMessageBox@@YGHPB_WII@Z; AfxMessageBox(wchar_t const *,uint,uint)
0x0040475f	8D4DEC	lea     ecx, [ebp+var_14]
0x00404762	C645FC01	mov     byte ptr [ebp+var_4], 1
0x00404766	FF15CCA24000	call    ds:__imp_??1?$CStringT@_WV?$StrTraitMFC_DLL@_WV?$ChTraitsCRT@_W@ATL@@@@@ATL@@QAE@XZ; ATL::CStringT<wchar_t,StrTraitMFC_DLL<wchar_t,ATL::ChTraitsCRT<wchar_t>>>::~CStringT<wchar_t,StrTraitMFC_DLL<wchar_t,ATL::ChTraitsCRT<wchar_t>>>(void)
0x0040476c	8B16	mov     edx, [esi]
0x0040476e	8B4204	mov     eax, [edx+4]
0x00404771	6A01	push    1
0x00404773	8BCE	mov     ecx, esi
0x00404775	FFD0	call    eax
0x00404777	B8CA464000	mov     eax, offset loc_4046CA
0x0040477c	C3	retn
CWaitCursor::_CWaitCursor:0x00409190-0x00409199
0x00409190	8D4DEC	lea     ecx, [ebp+var_14]
0x00409193	FF25CCA24000	jmp     ds:__imp_??1?$CStringT@_WV?$StrTraitMFC_DLL@_WV?$ChTraitsCRT@_W@ATL@@@@@ATL@@QAE@XZ; ATL::CStringT<wchar_t,StrTraitMFC_DLL<wchar_t,ATL::ChTraitsCRT<wchar_t>>>::~CStringT<wchar_t,StrTraitMFC_DLL<wchar_t,ATL::ChTraitsCRT<wchar_t>>>(void)
CList_unsigned_int_unsigned_int_::_scalar_deleting_destructor_:0x00404780-0x004047cc
0x00404780	55	push    ebp
0x00404781	8BEC	mov     ebp, esp
0x00404783	56	push    esi
0x00404784	8BF1	mov     esi, ecx
0x00404786	8B4604	mov     eax, [esi+4]
0x00404789	57	push    edi
0x0040478a	33FF	xor     edi, edi
0x0040478c	C70648CE4000	mov     dword ptr [esi], offset ??_7?$CList@II@@6B@; const CList<uint,uint>::`vftable'
0x00404792	3BC7	cmp     eax, edi
0x00404794	7406	jz      short loc_40479C
0x00404796	8B00	mov     eax, [eax]
0x00404798	3BC7	cmp     eax, edi
0x0040479a	75FA	jnz     short loc_404796
0x0040479c	8B4E14	mov     ecx, [esi+14h]
0x0040479f	897E0C	mov     [esi+0Ch], edi
0x004047a2	897E10	mov     [esi+10h], edi
0x004047a5	897E08	mov     [esi+8], edi
0x004047a8	897E04	mov     [esi+4], edi
0x004047ab	FF1528A74000	call    ds:__imp_?FreeDataChain@CPlex@@QAEXXZ; CPlex::FreeDataChain(void)
0x004047b1	F6450801	test    [ebp+arg_0], 1
0x004047b5	897E14	mov     [esi+14h], edi
0x004047b8	740A	jz      short loc_4047C4
0x004047ba	56	push    esi
0x004047bb	FF15CCAD4000	call    ds:__imp_??3@YAXPAX@Z; operator delete(void *)
0x004047c1	83C404	add     esp, 4
0x004047c4	5F	pop     edi
0x004047c5	8BC6	mov     eax, esi
0x004047c7	5E	pop     esi
0x004047c8	5D	pop     ebp
0x004047c9	C20400	retn    4
SerializeElements_unsigned_int_:0x004047d0-0x00404872
0x004047d0	55	push    ebp
0x004047d1	8BEC	mov     ebp, esp
0x004047d3	51	push    ecx
0x004047d4	85C0	test    eax, eax
0x004047d6	7506	jnz     short loc_4047DE
0x004047d8	FF15E8A24000	call    ds:__imp_?AfxThrowInvalidArgException@@YGXXZ; AfxThrowInvalidArgException(void)
0x004047de	8B4D08	mov     ecx, [ebp+arg_0]
0x004047e1	8B5118	mov     edx, [ecx+18h]
0x004047e4	53	push    ebx
0x004047e5	F7D2	not     edx
0x004047e7	56	push    esi
0x004047e8	57	push    edi
0x004047e9	8945FC	mov     [ebp+var_4], eax
0x004047ec	F6C201	test    dl, 1
0x004047ef	7439	jz      short loc_40482A
0x004047f1	BF01000000	mov     edi, 1
0x004047f6	8BDF	mov     ebx, edi
0x004047f8	81FFFFFFFF1F	cmp     edi, 1FFFFFFFh
0x004047fe	7205	jb      short loc_404805
0x00404800	BBFFFFFF1F	mov     ebx, 1FFFFFFFh
0x00404805	8B45FC	mov     eax, [ebp+var_4]
0x00404808	8B4D08	mov     ecx, [ebp+arg_0]
0x0040480b	8D349D00000000	lea     esi, ds:0[ebx*4]
0x00404812	56	push    esi
0x00404813	50	push    eax
0x00404814	FF1538A74000	call    ds:__imp_?Write@CArchive@@QAEXPBXI@Z; CArchive::Write(void const *,uint)
0x0040481a	0175FC	add     [ebp+var_4], esi
0x0040481d	2BFB	sub     edi, ebx
0x0040481f	75D5	jnz     short loc_4047F6
0x00404821	5F	pop     edi
0x00404822	5E	pop     esi
0x00404823	5B	pop     ebx
0x00404824	8BE5	mov     esp, ebp
0x00404826	5D	pop     ebp
0x00404827	C20400	retn    4
0x0040482a	BB01000000	mov     ebx, 1
0x0040482f	90	nop
0x00404830	8BFB	mov     edi, ebx
0x00404832	81FBFFFFFF1F	cmp     ebx, 1FFFFFFFh
0x00404838	7205	jb      short loc_40483F
0x0040483a	BFFFFFFF1F	mov     edi, 1FFFFFFFh
0x0040483f	8B4DFC	mov     ecx, [ebp+var_4]
0x00404842	8D34BD00000000	lea     esi, ds:0[edi*4]
0x00404849	56	push    esi
0x0040484a	51	push    ecx
0x0040484b	8B4D08	mov     ecx, [ebp+arg_0]
0x0040484e	FF1534A74000	call    ds:__imp_?Read@CArchive@@QAEIPAXI@Z; CArchive::Read(void *,uint)
0x00404854	3BC6	cmp     eax, esi
0x00404856	7510	jnz     short loc_404868
0x00404858	0175FC	add     [ebp+var_4], esi
0x0040485b	2BDF	sub     ebx, edi
0x0040485d	75D1	jnz     short loc_404830
0x0040485f	5F	pop     edi
0x00404860	5E	pop     esi
0x00404861	5B	pop     ebx
0x00404862	8BE5	mov     esp, ebp
0x00404864	5D	pop     ebp
0x00404865	C20400	retn    4
0x00404868	6A00	push    0
0x0040486a	6A03	push    3
0x0040486c	FF1530A74000	call    ds:__imp_?AfxThrowArchiveException@@YGXHPB_W@Z; AfxThrowArchiveException(int,wchar_t const *)
CList_unsigned_int_unsigned_int_::AddTail:0x00404880-0x004048fd
0x00404880	55	push    ebp
0x00404881	8BEC	mov     ebp, esp
0x00404883	837E1000	cmp     dword ptr [esi+10h], 0
0x00404887	57	push    edi
0x00404888	8B7E08	mov     edi, [esi+8]
0x0040488b	7531	jnz     short loc_4048BE
0x0040488d	8B4618	mov     eax, [esi+18h]
0x00404890	6A0C	push    0Ch
0x00404892	50	push    eax
0x00404893	8D4E14	lea     ecx, [esi+14h]
0x00404896	51	push    ecx
0x00404897	FF152CA74000	call    ds:__imp_?Create@CPlex@@SGPAU1@AAPAU1@II@Z; CPlex::Create(CPlex * &,uint,uint)
0x0040489d	8B4E18	mov     ecx, [esi+18h]
0x004048a0	8D1449	lea     edx, [ecx+ecx*2]
0x004048a3	49	dec     ecx
0x004048a4	8D4490F8	lea     eax, [eax+edx*4-8]
0x004048a8	7814	js      short loc_4048BE
0x004048aa	8D9B00000000	lea     ebx, [ebx+0]
0x004048b0	8B5610	mov     edx, [esi+10h]
0x004048b3	8910	mov     [eax], edx
0x004048b5	894610	mov     [esi+10h], eax
0x004048b8	83E80C	sub     eax, 0Ch
0x004048bb	49	dec     ecx
0x004048bc	79F2	jns     short loc_4048B0
0x004048be	8B4610	mov     eax, [esi+10h]
0x004048c1	85C0	test    eax, eax
0x004048c3	7506	jnz     short loc_4048CB
0x004048c5	FF15E8A24000	call    ds:__imp_?AfxThrowInvalidArgException@@YGXXZ; AfxThrowInvalidArgException(void)
0x004048cb	8B08	mov     ecx, [eax]
0x004048cd	8B5508	mov     edx, [ebp+arg_0]
0x004048d0	894E10	mov     [esi+10h], ecx
0x004048d3	897804	mov     [eax+4], edi
0x004048d6	C70000000000	mov     dword ptr [eax], 0
0x004048dc	FF460C	inc     dword ptr [esi+0Ch]
0x004048df	895008	mov     [eax+8], edx
0x004048e2	8B4E08	mov     ecx, [esi+8]
0x004048e5	5F	pop     edi
0x004048e6	85C9	test    ecx, ecx
0x004048e8	7409	jz      short loc_4048F3
0x004048ea	8901	mov     [ecx], eax
0x004048ec	894608	mov     [esi+8], eax
0x004048ef	5D	pop     ebp
0x004048f0	C20400	retn    4
0x004048f3	894604	mov     [esi+4], eax
0x004048f6	894608	mov     [esi+8], eax
0x004048f9	5D	pop     ebp
0x004048fa	C20400	retn    4
CList_unsigned_int_unsigned_int_::Serialize:0x00404900-0x004049ef
0x00404900	55	push    ebp
0x00404901	8BEC	mov     ebp, esp
0x00404903	83EC08	sub     esp, 8
0x00404906	56	push    esi
0x00404907	57	push    edi
0x00404908	8B7D08	mov     edi, [ebp+arg_0]
0x0040490b	8B4718	mov     eax, [edi+18h]
0x0040490e	F7D0	not     eax
0x00404910	8BF1	mov     esi, ecx
0x00404912	A801	test    al, 1
0x00404914	7431	jz      short loc_404947
0x00404916	8B4E0C	mov     ecx, [esi+0Ch]
0x00404919	51	push    ecx
0x0040491a	8BCF	mov     ecx, edi
0x0040491c	FF1540A74000	call    ds:__imp_?WriteCount@CArchive@@QAEXK@Z; CArchive::WriteCount(ulong)
0x00404922	8B7604	mov     esi, [esi+4]
0x00404925	85F6	test    esi, esi
0x00404927	7416	jz      short loc_40493F
0x00404929	8DA42400000000	lea     esp, [esp+0]
0x00404930	8D4608	lea     eax, [esi+8]
0x00404933	57	push    edi
0x00404934	E897FEFFFF	call    SerializeElements_unsigned_int_
0x00404939	8B36	mov     esi, [esi]
0x0040493b	85F6	test    esi, esi
0x0040493d	75F1	jnz     short loc_404930
0x0040493f	5F	pop     edi
0x00404940	5E	pop     esi
0x00404941	8BE5	mov     esp, ebp
0x00404943	5D	pop     ebp
0x00404944	C20400	retn    4
0x00404947	8BCF	mov     ecx, edi
0x00404949	FF153CA74000	call    ds:__imp_?ReadCount@CArchive@@QAEKXZ; CArchive::ReadCount(void)
0x0040494f	8945FC	mov     [ebp+var_4], eax
0x00404952	85C0	test    eax, eax
0x00404954	74E9	jz      short loc_40493F
0x00404956	53	push    ebx
0x00404957	EB0A	jmp     short loc_404963
0x00404959	8DA42400000000	align 10h
0x00404960	8B7D08	mov     edi, [ebp+arg_0]
0x00404963	FF4DFC	dec     [ebp+var_4]
0x00404966	57	push    edi
0x00404967	8D45F8	lea     eax, [ebp+var_8]
0x0040496a	E861FEFFFF	call    SerializeElements_unsigned_int_
0x0040496f	8B4610	mov     eax, [esi+10h]
0x00404972	8B7DF8	mov     edi, [ebp+var_8]
0x00404975	8B5E08	mov     ebx, [esi+8]
0x00404978	85C0	test    eax, eax
0x0040497a	7539	jnz     short loc_4049B5
0x0040497c	8B5618	mov     edx, [esi+18h]
0x0040497f	6A0C	push    0Ch
0x00404981	52	push    edx
0x00404982	8D4614	lea     eax, [esi+14h]
0x00404985	50	push    eax
0x00404986	FF152CA74000	call    ds:__imp_?Create@CPlex@@SGPAU1@AAPAU1@II@Z; CPlex::Create(CPlex * &,uint,uint)
0x0040498c	8B4E18	mov     ecx, [esi+18h]
0x0040498f	8D1449	lea     edx, [ecx+ecx*2]
0x00404992	49	dec     ecx
0x00404993	8D4490F8	lea     eax, [eax+edx*4-8]
0x00404997	7815	js      short loc_4049AE
0x00404999	8DA42400000000	lea     esp, [esp+0]
0x004049a0	8B5610	mov     edx, [esi+10h]
0x004049a3	8910	mov     [eax], edx
0x004049a5	894610	mov     [esi+10h], eax
0x004049a8	83E80C	sub     eax, 0Ch
0x004049ab	49	dec     ecx
0x004049ac	79F2	jns     short loc_4049A0
0x004049ae	8B4610	mov     eax, [esi+10h]
0x004049b1	85C0	test    eax, eax
0x004049b3	7434	jz      short loc_4049E9
0x004049b5	8B08	mov     ecx, [eax]
0x004049b7	894E10	mov     [esi+10h], ecx
0x004049ba	895804	mov     [eax+4], ebx
0x004049bd	C70000000000	mov     dword ptr [eax], 0
0x004049c3	FF460C	inc     dword ptr [esi+0Ch]
0x004049c6	897808	mov     [eax+8], edi
0x004049c9	8B4E08	mov     ecx, [esi+8]
0x004049cc	85C9	test    ecx, ecx
0x004049ce	7404	jz      short loc_4049D4
0x004049d0	8901	mov     [ecx], eax
0x004049d2	EB03	jmp     short loc_4049D7
0x004049d4	894604	mov     [esi+4], eax
0x004049d7	837DFC00	cmp     [ebp+var_4], 0
0x004049db	894608	mov     [esi+8], eax
0x004049de	7580	jnz     short loc_404960
0x004049e0	5B	pop     ebx
0x004049e1	5F	pop     edi
0x004049e2	5E	pop     esi
0x004049e3	8BE5	mov     esp, ebp
0x004049e5	5D	pop     ebp
0x004049e6	C20400	retn    4
0x004049e9	FF15E8A24000	call    ds:__imp_?AfxThrowInvalidArgException@@YGXXZ; AfxThrowInvalidArgException(void)
CList_unsigned_int_unsigned_int_::_CList_unsigned_int_unsigned_int_:0x004049f0-0x00404a20
0x004049f0	8B4604	mov     eax, [esi+4]
0x004049f3	57	push    edi
0x004049f4	33FF	xor     edi, edi
0x004049f6	C70648CE4000	mov     dword ptr [esi], offset ??_7?$CList@II@@6B@; const CList<uint,uint>::`vftable'
0x004049fc	3BC7	cmp     eax, edi
0x004049fe	7406	jz      short loc_404A06
0x00404a00	8B00	mov     eax, [eax]
0x00404a02	3BC7	cmp     eax, edi
0x00404a04	75FA	jnz     short loc_404A00
0x00404a06	8B4E14	mov     ecx, [esi+14h]
0x00404a09	897E0C	mov     [esi+0Ch], edi
0x00404a0c	897E10	mov     [esi+10h], edi
0x00404a0f	897E08	mov     [esi+8], edi
0x00404a12	897E04	mov     [esi+4], edi
0x00404a15	FF1528A74000	call    ds:__imp_?FreeDataChain@CPlex@@QAEXXZ; CPlex::FreeDataChain(void)
0x00404a1b	897E14	mov     [esi+14h], edi
0x00404a1e	5F	pop     edi
0x00404a1f	C3	retn
CnotepadApp::GetMessageMap:0x00404a20-0x00404a26
0x00404a20	B8F0CE4000	mov     eax, offset off_40CEF0
0x00404a25	C3	retn
CnotepadApp::_scalar_deleting_destructor_:0x00404a30-0x00404a53
0x00404a30	55	push    ebp
0x00404a31	8BEC	mov     ebp, esp
0x00404a33	56	push    esi
0x00404a34	8BF1	mov     esi, ecx
0x00404a36	FF1550A84000	call    ds:__imp_??1CWinAppEx@@UAE@XZ; CWinAppEx::~CWinAppEx(void)
0x00404a3c	F6450801	test    [ebp+arg_0], 1
0x00404a40	740A	jz      short loc_404A4C
0x00404a42	56	push    esi
0x00404a43	FF15CCAD4000	call    ds:__imp_??3@YAXPAX@Z; operator delete(void *)
0x00404a49	83C404	add     esp, 4
0x00404a4c	8BC6	mov     eax, esi
0x00404a4e	5E	pop     esi
0x00404a4f	5D	pop     ebp
0x00404a50	C20400	retn    4
CnotepadApp::InitInstance:0x00404a60-0x00404d16
0x00404a60	55	push    ebp
0x00404a61	8BEC	mov     ebp, esp
0x00404a63	6AFF	push    0FFFFFFFFh
0x00404a65	68629C4000	push    offset CnotepadApp__InitInstance_SEH
0x00404a6a	64A100000000	mov     eax, large fs:0
0x00404a70	50	push    eax
0x00404a71	64892500000000	mov     large fs:0, esp
0x00404a78	83EC70	sub     esp, 70h
0x00404a7b	53	push    ebx
0x00404a7c	56	push    esi
0x00404a7d	57	push    edi
0x00404a7e	8D45E4	lea     eax, [ebp+picce]
0x00404a81	50	push    eax; picce
0x00404a82	8BF1	mov     esi, ecx
0x00404a84	C745E408000000	mov     [ebp+picce.dwSize], 8
0x00404a8b	C745E8FF000000	mov     [ebp+picce.dwICC], 0FFh
0x00404a92	FF1500A04000	call    ds:__imp__InitCommonControlsEx@4; InitCommonControlsEx(x)
0x00404a98	8BCE	mov     ecx, esi
0x00404a9a	FF1558A84000	call    ds:__imp_?InitInstance@CWinApp@@UAEHXZ; CWinApp::InitInstance(void)
0x00404aa0	FF155CA84000	call    ds:__imp_?AfxOleInit@@YGHXZ; AfxOleInit(void)
0x00404aa6	85C0	test    eax, eax
0x00404aa8	751E	jnz     short loc_404AC8
0x00404aaa	6AFF	push    0FFFFFFFFh
0x00404aac	50	push    eax
0x00404aad	6A64	push    64h
0x00404aaf	FF1560A84000	call    ds:__imp_?AfxMessageBox@@YGHIII@Z; AfxMessageBox(uint,uint,uint)
0x00404ab5	33C0	xor     eax, eax
0x00404ab7	8B4DF4	mov     ecx, [ebp+var_C]
0x00404aba	64890D00000000	mov     large fs:0, ecx
0x00404ac1	5F	pop     edi
0x00404ac2	5E	pop     esi
0x00404ac3	5B	pop     ebx
0x00404ac4	8BE5	mov     esp, ebp
0x00404ac6	5D	pop     ebp
0x00404ac7	C3	retn
0x00404ac8	33DB	xor     ebx, ebx
0x00404aca	53	push    ebx
0x00404acb	FF1564A84000	call    ds:__imp_?AfxEnableControlContainer@@YAXPAVCOccManager@@@Z; AfxEnableControlContainer(COccManager *)
0x00404ad1	83C404	add     esp, 4
0x00404ad4	BF01000000	mov     edi, 1
0x00404ad9	57	push    edi
0x00404ada	8BCE	mov     ecx, esi
0x00404adc	FF1568A84000	call    ds:__imp_?EnableTaskbarInteraction@CWinApp@@QAEHH@Z; CWinApp::EnableTaskbarInteraction(int)
0x00404ae2	6828CF4000	push    offset unk_40CF28
0x00404ae7	8BCE	mov     ecx, esi
0x00404ae9	FF156CA84000	call    ds:__imp_?SetRegistryKey@CWinApp@@IAEXPB_W@Z; CWinApp::SetRegistryKey(wchar_t const *)
0x00404aef	6A04	push    4
0x00404af1	8BCE	mov     ecx, esi
0x00404af3	FF1570A84000	call    ds:__imp_?LoadStdProfileSettings@CWinApp@@IAEXI@Z; CWinApp::LoadStdProfileSettings(uint)
0x00404af9	8BCE	mov     ecx, esi
0x00404afb	FF1574A84000	call    ds:__imp_?InitContextMenuManager@CWinAppEx@@QAEHXZ; CWinAppEx::InitContextMenuManager(void)
0x00404b01	8BCE	mov     ecx, esi
0x00404b03	FF1578A84000	call    ds:__imp_?InitKeyboardManager@CWinAppEx@@QAEHXZ; CWinAppEx::InitKeyboardManager(void)
0x00404b09	8BCE	mov     ecx, esi
0x00404b0b	FF157CA84000	call    ds:__imp_?InitTooltipManager@CWinAppEx@@QAEHXZ; CWinAppEx::InitTooltipManager(void)
0x00404b11	895D84	mov     [ebp+var_7C], ebx
0x00404b14	895D90	mov     [ebp+var_70], ebx
0x00404b17	83CBFF	or      ebx, 0FFFFFFFFh
0x00404b1a	8D4D84	lea     ecx, [ebp+var_7C]
0x00404b1d	51	push    ecx
0x00404b1e	897D88	mov     [ebp+var_78], edi
0x00404b21	897D8C	mov     [ebp+var_74], edi
0x00404b24	897D94	mov     [ebp+var_6C], edi
0x00404b27	897D98	mov     [ebp+var_68], edi
0x00404b2a	C745A0C8000000	mov     [ebp+var_60], 0C8h
0x00404b31	895DA4	mov     [ebp+var_5C], ebx
0x00404b34	895DA8	mov     [ebp+var_58], ebx
0x00404b37	895DAC	mov     [ebp+var_54], ebx
0x00404b3a	895DB0	mov     [ebp+var_50], ebx
0x00404b3d	895DB4	mov     [ebp+var_4C], ebx
0x00404b40	897D9C	mov     [ebp+var_64], edi
0x00404b43	FF1588A84000	call    ds:__imp_?GetThisClass@CMFCToolTipCtrl@@SGPAUCRuntimeClass@@XZ; CMFCToolTipCtrl::GetThisClass(void)
0x00404b49	50	push    eax
0x00404b4a	68FFFF0000	push    0FFFFh
0x00404b4f	B9202A4100	mov     ecx, offset theApp
0x00404b54	FF1584A84000	call    ds:__imp_?GetTooltipManager@CWinAppEx@@QAEPAVCTooltipManager@@XZ; CWinAppEx::GetTooltipManager(void)
0x00404b5a	8BC8	mov     ecx, eax
0x00404b5c	FF1580A84000	call    ds:__imp_?SetTooltipParams@CTooltipManager@@QAEXIPAUCRuntimeClass@@PAVCMFCToolTipInfo@@@Z; CTooltipManager::SetTooltipParams(uint,CRuntimeClass *,CMFCToolTipInfo *)
0x00404b62	8B3DACAD4000	mov     edi, ds:__imp_??2@YAPAXI@Z; operator new(uint)
0x00404b68	68B0000000	push    0B0h
0x00404b6d	FFD7	call    edi ; operator new(uint); operator new(uint)
0x00404b6f	83C404	add     esp, 4
0x00404b72	8945EC	mov     [ebp+var_14], eax
0x00404b75	C745FC00000000	mov     [ebp+var_4], 0
0x00404b7c	85C0	test    eax, eax
0x00404b7e	741E	jz      short loc_404B9E
0x00404b80	68BCD44000	push    offset CnotepadView__classCnotepadView
0x00404b85	689CAE4000	push    offset CChildFrame__classCChildFrame
0x00404b8a	68F8D24000	push    offset CnotepadDoc__classCnotepadDoc
0x00404b8f	6882000000	push    82h
0x00404b94	8BC8	mov     ecx, eax
0x00404b96	FF158CA84000	call    ds:__imp_??0CMultiDocTemplate@@QAE@IPAUCRuntimeClass@@00@Z; CMultiDocTemplate::CMultiDocTemplate(uint,CRuntimeClass *,CRuntimeClass *,CRuntimeClass *)
0x00404b9c	EB02	jmp     short loc_404BA0
0x00404b9e	33C0	xor     eax, eax
0x00404ba0	895DFC	mov     [ebp+var_4], ebx
0x00404ba3	85C0	test    eax, eax
0x00404ba5	0F8458010000	jz      loc_404D03
0x00404bab	50	push    eax
0x00404bac	8BCE	mov     ecx, esi
0x00404bae	FF1590A84000	call    ds:__imp_?AddDocTemplate@CWinApp@@QAEXPAVCDocTemplate@@@Z; CWinApp::AddDocTemplate(CDocTemplate *)
0x00404bb4	6894AD0000	push    0AD94h
0x00404bb9	FFD7	call    edi ; operator new(uint); operator new(uint)
0x00404bbb	83C404	add     esp, 4
0x00404bbe	8945EC	mov     [ebp+var_14], eax
0x00404bc1	C745FC01000000	mov     [ebp+var_4], 1
0x00404bc8	85C0	test    eax, eax
0x00404bca	740A	jz      short loc_404BD6
0x00404bcc	50	push    eax
0x00404bcd	E85EEAFFFF	call    CMainFrame__CMainFrame
0x00404bd2	8BF8	mov     edi, eax
0x00404bd4	EB02	jmp     short loc_404BD8
0x00404bd6	33FF	xor     edi, edi
0x00404bd8	895DFC	mov     [ebp+var_4], ebx
0x00404bdb	85FF	test    edi, edi
0x00404bdd	0F8420010000	jz      loc_404D03
0x00404be3	8B17	mov     edx, [edi]
0x00404be5	8B826C010000	mov     eax, [edx+16Ch]
0x00404beb	6A00	push    0
0x00404bed	6A00	push    0
0x00404bef	680080CF00	push    0CF8000h
0x00404bf4	6880000000	push    80h
0x00404bf9	8BCF	mov     ecx, edi
0x00404bfb	FFD0	call    eax
0x00404bfd	85C0	test    eax, eax
0x00404bff	0F84F3000000	jz      loc_404CF8
0x00404c05	8D4DB8	lea     ecx, [ebp+var_48]
0x00404c08	897E20	mov     [esi+20h], edi
0x00404c0b	FF1594A84000	call    ds:__imp_??0CCommandLineInfo@@QAE@XZ; CCommandLineInfo::CCommandLineInfo(void)
0x00404c11	8D4DB8	lea     ecx, [ebp+var_48]
0x00404c14	51	push    ecx
0x00404c15	8BCE	mov     ecx, esi
0x00404c17	C745FC02000000	mov     [ebp+var_4], 2
0x00404c1e	FF159CA84000	call    ds:__imp_?ParseCommandLine@CWinApp@@QAEXAAVCCommandLineInfo@@@Z; CWinApp::ParseCommandLine(CCommandLineInfo &)
0x00404c24	8D55B8	lea     edx, [ebp+var_48]
0x00404c27	52	push    edx
0x00404c28	8BCE	mov     ecx, esi
0x00404c2a	FF15A0A84000	call    ds:__imp_?ProcessShellCommand@CWinApp@@QAEHAAVCCommandLineInfo@@@Z; CWinApp::ProcessShellCommand(CCommandLineInfo &)
0x00404c30	85C0	test    eax, eax
0x00404c32	751F	jnz     short loc_404C53
0x00404c34	8D4DB8	lea     ecx, [ebp+var_48]
0x00404c37	895DFC	mov     [ebp+var_4], ebx
0x00404c3a	FF1598A84000	call    ds:__imp_??1CCommandLineInfo@@UAE@XZ; CCommandLineInfo::~CCommandLineInfo(void)
0x00404c40	33C0	xor     eax, eax
0x00404c42	8B4DF4	mov     ecx, [ebp+var_C]
0x00404c45	64890D00000000	mov     large fs:0, ecx
0x00404c4c	5F	pop     edi
0x00404c4d	5E	pop     esi
0x00404c4e	5B	pop     ebx
0x00404c4f	8BE5	mov     esp, ebp
0x00404c51	5D	pop     ebp
0x00404c52	C3	retn
0x00404c53	8B464C	mov     eax, [esi+4Ch]
0x00404c56	50	push    eax
0x00404c57	8BCF	mov     ecx, edi
0x00404c59	FF15A4A84000	call    ds:__imp_?ShowWindow@CWnd@@QAEHH@Z; CWnd::ShowWindow(int)
0x00404c5f	8B4F20	mov     ecx, [edi+20h]
0x00404c62	51	push    ecx; hWnd
0x00404c63	FF154CA14000	call    ds:__imp__UpdateWindow@4; UpdateWindow(x)
0x00404c69	8D4DF0	lea     ecx, [ebp+pszPath]
0x00404c6c	FF15D0A24000	call    ds:__imp_??0?$CStringT@_WV?$StrTraitMFC_DLL@_WV?$ChTraitsCRT@_W@ATL@@@@@ATL@@QAE@XZ; ATL::CStringT<wchar_t,StrTraitMFC_DLL<wchar_t,ATL::ChTraitsCRT<wchar_t>>>::CStringT<wchar_t,StrTraitMFC_DLL<wchar_t,ATL::ChTraitsCRT<wchar_t>>>(void)
0x00404c72	C645FC03	mov     byte ptr [ebp+var_4], 3
0x00404c76	8B1500A14000	mov     edx, ds:_imp____argc
0x00404c7c	833A02	cmp     dword ptr [edx], 2
0x00404c7f	7C4C	jl      short loc_404CCD
0x00404c81	A1FCA04000	mov     eax, ds:_imp____wargv
0x00404c86	8B08	mov     ecx, [eax]
0x00404c88	8B5104	mov     edx, [ecx+4]
0x00404c8b	52	push    edx
0x00404c8c	8D4DF0	lea     ecx, [ebp+pszPath]
0x00404c8f	FF15A8A84000	call    ds:__imp_??4?$CStringT@_WV?$StrTraitMFC_DLL@_WV?$ChTraitsCRT@_W@ATL@@@@@ATL@@QAEAAV01@PB_W@Z; ATL::CStringT<wchar_t,StrTraitMFC_DLL<wchar_t,ATL::ChTraitsCRT<wchar_t>>>::operator=(wchar_t const *)
0x00404c95	8B45F0	mov     eax, [ebp+pszPath]
0x00404c98	50	push    eax; pszPath
0x00404c99	FF1518A14000	call    ds:__imp__PathFileExistsW@4; PathFileExistsW(x)
0x00404c9f	85C0	test    eax, eax
0x00404ca1	7417	jz      short loc_404CBA
0x00404ca3	51	push    ecx; lpCaption
0x00404ca4	8D55F0	lea     edx, [ebp+pszPath]
0x00404ca7	8BCC	mov     ecx, esp
0x00404ca9	8965EC	mov     [ebp+var_14], esp
0x00404cac	52	push    edx
0x00404cad	FF15ACA84000	call    ds:__imp_??0?$CStringT@_WV?$StrTraitMFC_DLL@_WV?$ChTraitsCRT@_W@ATL@@@@@ATL@@QAE@ABV01@@Z; ATL::CStringT<wchar_t,StrTraitMFC_DLL<wchar_t,ATL::ChTraitsCRT<wchar_t>>>::CStringT<wchar_t,StrTraitMFC_DLL<wchar_t,ATL::ChTraitsCRT<wchar_t>>>(ATL::CStringT<wchar_t,StrTraitMFC_DLL<wchar_t,ATL::ChTraitsCRT<wchar_t>>> const &)
0x00404cb3	E868000000	call    CnotepadApp__ParseFile
0x00404cb8	EB13	jmp     short loc_404CCD
0x00404cba	8B45F0	mov     eax, [ebp+pszPath]
0x00404cbd	6A00	push    0; uType
0x00404cbf	6848CF4000	push    offset Caption; "File not exists"
0x00404cc4	50	push    eax; lpText
0x00404cc5	6A00	push    0; hWnd
0x00404cc7	FF1520A14000	call    ds:__imp__MessageBoxW@16; MessageBoxW(x,x,x,x)
0x00404ccd	8D4DF0	lea     ecx, [ebp+pszPath]
0x00404cd0	FF15CCA24000	call    ds:__imp_??1?$CStringT@_WV?$StrTraitMFC_DLL@_WV?$ChTraitsCRT@_W@ATL@@@@@ATL@@QAE@XZ; ATL::CStringT<wchar_t,StrTraitMFC_DLL<wchar_t,ATL::ChTraitsCRT<wchar_t>>>::~CStringT<wchar_t,StrTraitMFC_DLL<wchar_t,ATL::ChTraitsCRT<wchar_t>>>(void)
0x00404cd6	8D4DB8	lea     ecx, [ebp+var_48]
0x00404cd9	895DFC	mov     [ebp+var_4], ebx
0x00404cdc	FF1598A84000	call    ds:__imp_??1CCommandLineInfo@@UAE@XZ; CCommandLineInfo::~CCommandLineInfo(void)
0x00404ce2	B801000000	mov     eax, 1
0x00404ce7	8B4DF4	mov     ecx, [ebp+var_C]
0x00404cea	64890D00000000	mov     large fs:0, ecx
0x00404cf1	5F	pop     edi
0x00404cf2	5E	pop     esi
0x00404cf3	5B	pop     ebx
0x00404cf4	8BE5	mov     esp, ebp
0x00404cf6	5D	pop     ebp
0x00404cf7	C3	retn
0x00404cf8	8B17	mov     edx, [edi]
0x00404cfa	8B4204	mov     eax, [edx+4]
0x00404cfd	6A01	push    1
0x00404cff	8BCF	mov     ecx, edi
0x00404d01	FFD0	call    eax
0x00404d03	8B4DF4	mov     ecx, [ebp+var_C]
0x00404d06	5F	pop     edi
0x00404d07	5E	pop     esi
0x00404d08	33C0	xor     eax, eax
0x00404d0a	64890D00000000	mov     large fs:0, ecx
0x00404d11	5B	pop     ebx
0x00404d12	8BE5	mov     esp, ebp
0x00404d14	5D	pop     ebp
0x00404d15	C3	retn
CnotepadApp::InitInstance:0x00409c40-0x00409c62
0x00409c40	8B45EC	mov     eax, [ebp+var_14]
0x00409c43	E9A874FFFF	jmp     CObject__operator_delete
0x00409c48	8B45EC	mov     eax, [ebp+var_14]
0x00409c4b	E9A074FFFF	jmp     CObject__operator_delete
0x00409c50	8D4DB8	lea     ecx, [ebp+var_48]
0x00409c53	FF2598A84000	jmp     ds:__imp_??1CCommandLineInfo@@UAE@XZ; CCommandLineInfo::~CCommandLineInfo(void)
0x00409c59	8D4DF0	lea     ecx, [ebp+pszPath]
0x00409c5c	FF25CCA24000	jmp     ds:__imp_??1?$CStringT@_WV?$StrTraitMFC_DLL@_WV?$ChTraitsCRT@_W@ATL@@@@@ATL@@QAE@XZ; ATL::CStringT<wchar_t,StrTraitMFC_DLL<wchar_t,ATL::ChTraitsCRT<wchar_t>>>::~CStringT<wchar_t,StrTraitMFC_DLL<wchar_t,ATL::ChTraitsCRT<wchar_t>>>(void)
CnotepadApp::ParseFile:0x00404d20-0x00404e30
0x00404d20	55	push    ebp
0x00404d21	8BEC	mov     ebp, esp
0x00404d23	6AFF	push    0FFFFFFFFh
0x00404d25	687B914000	push    offset CnotepadApp__ParseFile_SEH
0x00404d2a	64A100000000	mov     eax, large fs:0
0x00404d30	50	push    eax
0x00404d31	64892500000000	mov     large fs:0, esp
0x00404d38	83EC18	sub     esp, 18h
0x00404d3b	56	push    esi
0x00404d3c	57	push    edi
0x00404d3d	8D4DDC	lea     ecx, [ebp+var_24]
0x00404d40	C745FC00000000	mov     [ebp+var_4], 0
0x00404d47	FF15B4A84000	call    ds:__imp_??0CFile@@QAE@XZ; CFile::CFile(void)
0x00404d4d	6A00	push    0
0x00404d4f	C645FC01	mov     byte ptr [ebp+var_4], 1
0x00404d53	8B4508	mov     eax, [ebp+lpCaption]
0x00404d56	6A00	push    0
0x00404d58	50	push    eax
0x00404d59	8D4DDC	lea     ecx, [ebp+var_24]
0x00404d5c	FF15BCA84000	call    ds:__imp_?Open@CFile@@UAEHPB_WIPAVCFileException@@@Z; CFile::Open(wchar_t const *,uint,CFileException *)
0x00404d62	8D4DDC	lea     ecx, [ebp+var_24]
0x00404d65	FF15C0A84000	call    ds:__imp_?GetLength@CFile@@UBE_KXZ; CFile::GetLength(void)
0x00404d6b	8BF8	mov     edi, eax
0x00404d6d	8D4F01	lea     ecx, [edi+1]
0x00404d70	51	push    ecx
0x00404d71	FF15B0A84000	call    ds:__imp_??_U@YAPAXI@Z; operator new[](uint)
0x00404d77	83C404	add     esp, 4
0x00404d7a	8BF0	mov     esi, eax
0x00404d7c	57	push    edi
0x00404d7d	56	push    esi
0x00404d7e	8D4DDC	lea     ecx, [ebp+var_24]
0x00404d81	C6043E00	mov     byte ptr [esi+edi], 0
0x00404d85	FF15C4A84000	call    ds:__imp_?Read@CFile@@UAEIPAXI@Z; CFile::Read(void *,uint)
0x00404d8b	83FF08	cmp     edi, 8
0x00404d8e	7C34	jl      short loc_404DC4
0x00404d90	803E70	cmp     byte ptr [esi], 70h
0x00404d93	752F	jnz     short loc_404DC4
0x00404d95	807E0161	cmp     byte ptr [esi+1], 61h
0x00404d99	7529	jnz     short loc_404DC4
0x00404d9b	B073	mov     al, 73h
0x00404d9d	384602	cmp     [esi+2], al
0x00404da0	7522	jnz     short loc_404DC4
0x00404da2	384603	cmp     [esi+3], al
0x00404da5	751D	jnz     short loc_404DC4
0x00404da7	807E0477	cmp     byte ptr [esi+4], 77h
0x00404dab	7517	jnz     short loc_404DC4
0x00404dad	807E056F	cmp     byte ptr [esi+5], 6Fh
0x00404db1	7511	jnz     short loc_404DC4
0x00404db3	807E0672	cmp     byte ptr [esi+6], 72h
0x00404db7	750B	jnz     short loc_404DC4
0x00404db9	807E0764	cmp     byte ptr [esi+7], 64h
0x00404dbd	7505	jnz     short loc_404DC4
0x00404dbf	33C0	xor     eax, eax
0x00404dc1	C60001	mov     byte ptr [eax], 1
0x00404dc4	8D4DF0	lea     ecx, [ebp+lpText]
0x00404dc7	FF15D0A24000	call    ds:__imp_??0?$CStringT@_WV?$StrTraitMFC_DLL@_WV?$ChTraitsCRT@_W@ATL@@@@@ATL@@QAE@XZ; ATL::CStringT<wchar_t,StrTraitMFC_DLL<wchar_t,ATL::ChTraitsCRT<wchar_t>>>::CStringT<wchar_t,StrTraitMFC_DLL<wchar_t,ATL::ChTraitsCRT<wchar_t>>>(void)
0x00404dcd	57	push    edi
0x00404dce	8D55F0	lea     edx, [ebp+lpText]
0x00404dd1	6868CF4000	push    offset unk_40CF68
0x00404dd6	52	push    edx
0x00404dd7	C645FC02	mov     byte ptr [ebp+var_4], 2
0x00404ddb	FF15C8A24000	call    ds:__imp_?Format@?$CStringT@_WV?$StrTraitMFC_DLL@_WV?$ChTraitsCRT@_W@ATL@@@@@ATL@@QAAXPB_WZZ; ATL::CStringT<wchar_t,StrTraitMFC_DLL<wchar_t,ATL::ChTraitsCRT<wchar_t>>>::Format(wchar_t const *,...)
0x00404de1	8B4508	mov     eax, [ebp+lpCaption]
0x00404de4	8B4DF0	mov     ecx, [ebp+lpText]
0x00404de7	83C40C	add     esp, 0Ch
0x00404dea	6A00	push    0; uType
0x00404dec	50	push    eax; lpCaption
0x00404ded	51	push    ecx; lpText
0x00404dee	6A00	push    0; hWnd
0x00404df0	FF1520A14000	call    ds:__imp__MessageBoxW@16; MessageBoxW(x,x,x,x)
0x00404df6	8D4DDC	lea     ecx, [ebp+var_24]
0x00404df9	FF15C8A84000	call    ds:__imp_?Close@CFile@@UAEXXZ; CFile::Close(void)
0x00404dff	8D4DF0	lea     ecx, [ebp+lpText]
0x00404e02	FF15CCA24000	call    ds:__imp_??1?$CStringT@_WV?$StrTraitMFC_DLL@_WV?$ChTraitsCRT@_W@ATL@@@@@ATL@@QAE@XZ; ATL::CStringT<wchar_t,StrTraitMFC_DLL<wchar_t,ATL::ChTraitsCRT<wchar_t>>>::~CStringT<wchar_t,StrTraitMFC_DLL<wchar_t,ATL::ChTraitsCRT<wchar_t>>>(void)
0x00404e08	8D4DDC	lea     ecx, [ebp+var_24]
0x00404e0b	C645FC00	mov     byte ptr [ebp+var_4], 0
0x00404e0f	FF15B8A84000	call    ds:__imp_??1CFile@@UAE@XZ; CFile::~CFile(void)
0x00404e15	8D4D08	lea     ecx, [ebp+lpCaption]
0x00404e18	FF15CCA24000	call    ds:__imp_??1?$CStringT@_WV?$StrTraitMFC_DLL@_WV?$ChTraitsCRT@_W@ATL@@@@@ATL@@QAE@XZ; ATL::CStringT<wchar_t,StrTraitMFC_DLL<wchar_t,ATL::ChTraitsCRT<wchar_t>>>::~CStringT<wchar_t,StrTraitMFC_DLL<wchar_t,ATL::ChTraitsCRT<wchar_t>>>(void)
0x00404e1e	8B4DF4	mov     ecx, [ebp+var_C]
0x00404e21	5F	pop     edi
0x00404e22	5E	pop     esi
0x00404e23	64890D00000000	mov     large fs:0, ecx
0x00404e2a	8BE5	mov     esp, ebp
0x00404e2c	5D	pop     ebp
0x00404e2d	C20400	retn    4
CnotepadApp::ParseFile:0x00409160-0x0040917b
0x00409160	8D4D08	lea     ecx, [ebp+lpCaption]
0x00409163	FF25CCA24000	jmp     ds:__imp_??1?$CStringT@_WV?$StrTraitMFC_DLL@_WV?$ChTraitsCRT@_W@ATL@@@@@ATL@@QAE@XZ; ATL::CStringT<wchar_t,StrTraitMFC_DLL<wchar_t,ATL::ChTraitsCRT<wchar_t>>>::~CStringT<wchar_t,StrTraitMFC_DLL<wchar_t,ATL::ChTraitsCRT<wchar_t>>>(void)
0x00409169	8D4DDC	lea     ecx, [ebp+var_24]
0x0040916c	FF25B8A84000	jmp     ds:__imp_??1CFile@@UAE@XZ; CFile::~CFile(void)
0x00409172	8D4DF0	lea     ecx, [ebp+lpText]
0x00409175	FF25CCA24000	jmp     ds:__imp_??1?$CStringT@_WV?$StrTraitMFC_DLL@_WV?$ChTraitsCRT@_W@ATL@@@@@ATL@@QAE@XZ; ATL::CStringT<wchar_t,StrTraitMFC_DLL<wchar_t,ATL::ChTraitsCRT<wchar_t>>>::~CStringT<wchar_t,StrTraitMFC_DLL<wchar_t,ATL::ChTraitsCRT<wchar_t>>>(void)
CnotepadApp::OnMyFileOpen:0x00404e30-0x00404f28
0x00404e30	55	push    ebp
0x00404e31	8BEC	mov     ebp, esp
0x00404e33	83E4F8	and     esp, 0FFFFFFF8h
0x00404e36	6AFF	push    0FFFFFFFFh
0x00404e38	6818934000	push    offset CnotepadApp__OnMyFileOpen_SEH
0x00404e3d	64A100000000	mov     eax, large fs:0
0x00404e43	50	push    eax
0x00404e44	64892500000000	mov     large fs:0, esp
0x00404e4b	81EC54030000	sub     esp, 354h
0x00404e51	6A01	push    1
0x00404e53	6A00	push    0
0x00404e55	6A00	push    0
0x00404e57	6A00	push    0
0x00404e59	6A06	push    6
0x00404e5b	6A00	push    0
0x00404e5d	6A00	push    0
0x00404e5f	6A01	push    1
0x00404e61	8D4C2428	lea     ecx, [esp+380h+var_358]
0x00404e65	FF15CCA84000	call    ds:__imp_??0CFileDialog@@QAE@HPB_W0K0PAVCWnd@@KH@Z; CFileDialog::CFileDialog(int,wchar_t const *,wchar_t const *,ulong,wchar_t const *,CWnd *,ulong,int)
0x00404e6b	8D4C2408	lea     ecx, [esp+360h+var_358]
0x00404e6f	C784245C03000000000000	mov     [esp+360h+var_4], 0
0x00404e7a	FF15D4A84000	call    ds:__imp_?GetOFN@CFileDialog@@QAEAAUtagOFNW@@XZ; CFileDialog::GetOFN(void)
0x00404e80	8D4C2408	lea     ecx, [esp+360h+var_358]
0x00404e84	C7400C80CF4000	mov     dword ptr [eax+0Ch], offset aAllFiles; "All files(*.*)"
0x00404e8b	FF15D8A84000	call    ds:__imp_?DoModal@CFileDialog@@UAEHXZ; CFileDialog::DoModal(void)
0x00404e91	83F801	cmp     eax, 1
0x00404e94	756B	jnz     short loc_404F01
0x00404e96	8D0424	lea     eax, [esp+360h+pszPath]
0x00404e99	50	push    eax
0x00404e9a	8D4C240C	lea     ecx, [esp+364h+var_358]
0x00404e9e	FF15DCA84000	call    ds:__imp_?GetPathName@CFileDialog@@QBE?AV?$CStringT@_WV?$StrTraitMFC_DLL@_WV?$ChTraitsCRT@_W@ATL@@@@@ATL@@XZ; CFileDialog::GetPathName(void)
0x00404ea4	C684245C03000001	mov     byte ptr [esp+360h+var_4], 1
0x00404eac	8B0C24	mov     ecx, [esp+360h+pszPath]
0x00404eaf	51	push    ecx; pszPath
0x00404eb0	FF1518A14000	call    ds:__imp__PathFileExistsW@4; PathFileExistsW(x)
0x00404eb6	6A00	push    0; uType
0x00404eb8	85C0	test    eax, eax
0x00404eba	7513	jnz     short loc_404ECF
0x00404ebc	8B542404	mov     edx, [esp+364h+pszPath]
0x00404ec0	52	push    edx; lpCaption
0x00404ec1	68A0CF4000	push    offset Text; lpText
0x00404ec6	50	push    eax; hWnd
0x00404ec7	FF1520A14000	call    ds:__imp__MessageBoxW@16; MessageBoxW(x,x,x,x)
0x00404ecd	EB29	jmp     short loc_404EF8
0x00404ecf	8B442404	mov     eax, [esp+364h+pszPath]
0x00404ed3	68B0CF4000	push    offset word_40CFB0; lpCaption
0x00404ed8	50	push    eax; lpText
0x00404ed9	6A00	push    0; hWnd
0x00404edb	FF1520A14000	call    ds:__imp__MessageBoxW@16; MessageBoxW(x,x,x,x)
0x00404ee1	51	push    ecx; lpCaption
0x00404ee2	8D542404	lea     edx, [esp+364h+pszPath]
0x00404ee6	8BCC	mov     ecx, esp
0x00404ee8	89642408	mov     [esp+364h+var_35C], esp
0x00404eec	52	push    edx
0x00404eed	FF15ACA84000	call    ds:__imp_??0?$CStringT@_WV?$StrTraitMFC_DLL@_WV?$ChTraitsCRT@_W@ATL@@@@@ATL@@QAE@ABV01@@Z; ATL::CStringT<wchar_t,StrTraitMFC_DLL<wchar_t,ATL::ChTraitsCRT<wchar_t>>>::CStringT<wchar_t,StrTraitMFC_DLL<wchar_t,ATL::ChTraitsCRT<wchar_t>>>(ATL::CStringT<wchar_t,StrTraitMFC_DLL<wchar_t,ATL::ChTraitsCRT<wchar_t>>> const &)
0x00404ef3	E828FEFFFF	call    CnotepadApp__ParseFile
0x00404ef8	8D0C24	lea     ecx, [esp+360h+pszPath]
0x00404efb	FF15CCA24000	call    ds:__imp_??1?$CStringT@_WV?$StrTraitMFC_DLL@_WV?$ChTraitsCRT@_W@ATL@@@@@ATL@@QAE@XZ; ATL::CStringT<wchar_t,StrTraitMFC_DLL<wchar_t,ATL::ChTraitsCRT<wchar_t>>>::~CStringT<wchar_t,StrTraitMFC_DLL<wchar_t,ATL::ChTraitsCRT<wchar_t>>>(void)
0x00404f01	8D4C2408	lea     ecx, [esp+360h+var_358]
0x00404f05	C784245C030000FFFFFFFF	mov     [esp+360h+var_4], 0FFFFFFFFh
0x00404f10	FF15D0A84000	call    ds:__imp_??1CFileDialog@@UAE@XZ; CFileDialog::~CFileDialog(void)
0x00404f16	8B8C2454030000	mov     ecx, [esp+360h+var_C]
0x00404f1d	64890D00000000	mov     large fs:0, ecx
0x00404f24	8BE5	mov     esp, ebp
0x00404f26	5D	pop     ebp
0x00404f27	C3	retn
CnotepadApp::OnMyFileOpen:0x00409300-0x00409318
0x00409300	8D8DA8FCFFFF	lea     ecx, [ebp+var_358]
0x00409306	FF25D0A84000	jmp     ds:__imp_??1CFileDialog@@UAE@XZ; CFileDialog::~CFileDialog(void)
0x0040930c	8D8DA0FCFFFF	lea     ecx, [ebp+pszPath]
0x00409312	FF25CCA24000	jmp     ds:__imp_??1?$CStringT@_WV?$StrTraitMFC_DLL@_WV?$ChTraitsCRT@_W@ATL@@@@@ATL@@QAE@XZ; ATL::CStringT<wchar_t,StrTraitMFC_DLL<wchar_t,ATL::ChTraitsCRT<wchar_t>>>::~CStringT<wchar_t,StrTraitMFC_DLL<wchar_t,ATL::ChTraitsCRT<wchar_t>>>(void)
CnotepadApp::OnMyFileOpenAndParse:0x00404f30-0x004050f5
0x00404f30	55	push    ebp
0x00404f31	8BEC	mov     ebp, esp
0x00404f33	83E4F8	and     esp, 0FFFFFFF8h
0x00404f36	6AFF	push    0FFFFFFFFh
0x00404f38	6850914000	push    offset CnotepadApp__OnMyFileOpenAndParse_SEH
0x00404f3d	64A100000000	mov     eax, large fs:0
0x00404f43	50	push    eax
0x00404f44	64892500000000	mov     large fs:0, esp
0x00404f4b	81EC6C030000	sub     esp, 36Ch
0x00404f51	56	push    esi
0x00404f52	57	push    edi
0x00404f53	6A01	push    1
0x00404f55	6A00	push    0
0x00404f57	6A00	push    0
0x00404f59	6A00	push    0
0x00404f5b	6A06	push    6
0x00404f5d	6A00	push    0
0x00404f5f	6A00	push    0
0x00404f61	6A01	push    1
0x00404f63	8D4C2448	lea     ecx, [esp+3A0h+var_358]
0x00404f67	FF15CCA84000	call    ds:__imp_??0CFileDialog@@QAE@HPB_W0K0PAVCWnd@@KH@Z; CFileDialog::CFileDialog(int,wchar_t const *,wchar_t const *,ulong,wchar_t const *,CWnd *,ulong,int)
0x00404f6d	8D4C2428	lea     ecx, [esp+380h+var_358]
0x00404f71	C784247C03000000000000	mov     [esp+380h+var_4], 0
0x00404f7c	FF15D4A84000	call    ds:__imp_?GetOFN@CFileDialog@@QAEAAUtagOFNW@@XZ; CFileDialog::GetOFN(void)
0x00404f82	8D4C2428	lea     ecx, [esp+380h+var_358]
0x00404f86	C7400C80CF4000	mov     dword ptr [eax+0Ch], offset aAllFiles; "All files(*.*)"
0x00404f8d	FF15D8A84000	call    ds:__imp_?DoModal@CFileDialog@@UAEHXZ; CFileDialog::DoModal(void)
0x00404f93	83F801	cmp     eax, 1
0x00404f96	0F8530010000	jnz     loc_4050CC
0x00404f9c	8D44240C	lea     eax, [esp+380h+pszPath]
0x00404fa0	50	push    eax
0x00404fa1	8D4C242C	lea     ecx, [esp+384h+var_358]
0x00404fa5	FF15DCA84000	call    ds:__imp_?GetPathName@CFileDialog@@QBE?AV?$CStringT@_WV?$StrTraitMFC_DLL@_WV?$ChTraitsCRT@_W@ATL@@@@@ATL@@XZ; CFileDialog::GetPathName(void)
0x00404fab	C684247C03000001	mov     byte ptr [esp+380h+var_4], 1
0x00404fb3	8B4C240C	mov     ecx, [esp+380h+pszPath]
0x00404fb7	51	push    ecx; pszPath
0x00404fb8	FF1518A14000	call    ds:__imp__PathFileExistsW@4; PathFileExistsW(x)
0x00404fbe	85C0	test    eax, eax
0x00404fc0	7517	jnz     short loc_404FD9
0x00404fc2	8B54240C	mov     edx, [esp+380h+pszPath]
0x00404fc6	50	push    eax; uType
0x00404fc7	68BCCF4000	push    offset aMFilepath; "m_FilePath"
0x00404fcc	52	push    edx; lpText
0x00404fcd	50	push    eax; hWnd
0x00404fce	FF1520A14000	call    ds:__imp__MessageBoxW@16; MessageBoxW(x,x,x,x)
0x00404fd4	E9E9000000	jmp     loc_4050C2
0x00404fd9	8D4C2414	lea     ecx, [esp+380h+var_36C]
0x00404fdd	FF15B4A84000	call    ds:__imp_??0CFile@@QAE@XZ; CFile::CFile(void)
0x00404fe3	6A00	push    0
0x00404fe5	C684248003000002	mov     byte ptr [esp+384h+var_4], 2
0x00404fed	8B442410	mov     eax, [esp+384h+pszPath]
0x00404ff1	6A00	push    0
0x00404ff3	50	push    eax
0x00404ff4	8D4C2420	lea     ecx, [esp+38Ch+var_36C]
0x00404ff8	FF15BCA84000	call    ds:__imp_?Open@CFile@@UAEHPB_WIPAVCFileException@@@Z; CFile::Open(wchar_t const *,uint,CFileException *)
0x00404ffe	8D4C2414	lea     ecx, [esp+380h+var_36C]
0x00405002	FF15C0A84000	call    ds:__imp_?GetLength@CFile@@UBE_KXZ; CFile::GetLength(void)
0x00405008	8BF8	mov     edi, eax
0x0040500a	8D4F01	lea     ecx, [edi+1]
0x0040500d	51	push    ecx
0x0040500e	FF15B0A84000	call    ds:__imp_??_U@YAPAXI@Z; operator new[](uint)
0x00405014	83C404	add     esp, 4
0x00405017	8BF0	mov     esi, eax
0x00405019	57	push    edi
0x0040501a	56	push    esi
0x0040501b	8D4C241C	lea     ecx, [esp+388h+var_36C]
0x0040501f	C6043E00	mov     byte ptr [esi+edi], 0
0x00405023	FF15C4A84000	call    ds:__imp_?Read@CFile@@UAEIPAXI@Z; CFile::Read(void *,uint)
0x00405029	83FF08	cmp     edi, 8
0x0040502c	7C34	jl      short loc_405062
0x0040502e	803E70	cmp     byte ptr [esi], 70h
0x00405031	752F	jnz     short loc_405062
0x00405033	807E0161	cmp     byte ptr [esi+1], 61h
0x00405037	7529	jnz     short loc_405062
0x00405039	B073	mov     al, 73h
0x0040503b	384602	cmp     [esi+2], al
0x0040503e	7522	jnz     short loc_405062
0x00405040	384603	cmp     [esi+3], al
0x00405043	751D	jnz     short loc_405062
0x00405045	807E0477	cmp     byte ptr [esi+4], 77h
0x00405049	7517	jnz     short loc_405062
0x0040504b	807E056F	cmp     byte ptr [esi+5], 6Fh
0x0040504f	7511	jnz     short loc_405062
0x00405051	807E0672	cmp     byte ptr [esi+6], 72h
0x00405055	750B	jnz     short loc_405062
0x00405057	807E0764	cmp     byte ptr [esi+7], 64h
0x0040505b	7505	jnz     short loc_405062
0x0040505d	33C0	xor     eax, eax
0x0040505f	C60001	mov     byte ptr [eax], 1
0x00405062	8D4C2410	lea     ecx, [esp+380h+lpText]
0x00405066	FF15D0A24000	call    ds:__imp_??0?$CStringT@_WV?$StrTraitMFC_DLL@_WV?$ChTraitsCRT@_W@ATL@@@@@ATL@@QAE@XZ; ATL::CStringT<wchar_t,StrTraitMFC_DLL<wchar_t,ATL::ChTraitsCRT<wchar_t>>>::CStringT<wchar_t,StrTraitMFC_DLL<wchar_t,ATL::ChTraitsCRT<wchar_t>>>(void)
0x0040506c	57	push    edi
0x0040506d	8D542414	lea     edx, [esp+384h+lpText]
0x00405071	6868CF4000	push    offset unk_40CF68
0x00405076	52	push    edx
0x00405077	C684248803000003	mov     byte ptr [esp+38Ch+var_4], 3
0x0040507f	FF15C8A24000	call    ds:__imp_?Format@?$CStringT@_WV?$StrTraitMFC_DLL@_WV?$ChTraitsCRT@_W@ATL@@@@@ATL@@QAAXPB_WZZ; ATL::CStringT<wchar_t,StrTraitMFC_DLL<wchar_t,ATL::ChTraitsCRT<wchar_t>>>::Format(wchar_t const *,...)
0x00405085	8B442418	mov     eax, [esp+38Ch+pszPath]
0x00405089	8B4C241C	mov     ecx, [esp+38Ch+lpText]
0x0040508d	83C40C	add     esp, 0Ch
0x00405090	6A00	push    0; uType
0x00405092	50	push    eax; lpCaption
0x00405093	51	push    ecx; lpText
0x00405094	6A00	push    0; hWnd
0x00405096	FF1520A14000	call    ds:__imp__MessageBoxW@16; MessageBoxW(x,x,x,x)
0x0040509c	56	push    esi
0x0040509d	FF15CCAD4000	call    ds:__imp_??3@YAXPAX@Z; operator delete(void *)
0x004050a3	83C404	add     esp, 4
0x004050a6	8D4C2410	lea     ecx, [esp+380h+lpText]
0x004050aa	FF15CCA24000	call    ds:__imp_??1?$CStringT@_WV?$StrTraitMFC_DLL@_WV?$ChTraitsCRT@_W@ATL@@@@@ATL@@QAE@XZ; ATL::CStringT<wchar_t,StrTraitMFC_DLL<wchar_t,ATL::ChTraitsCRT<wchar_t>>>::~CStringT<wchar_t,StrTraitMFC_DLL<wchar_t,ATL::ChTraitsCRT<wchar_t>>>(void)
0x004050b0	8D4C2414	lea     ecx, [esp+380h+var_36C]
0x004050b4	C684247C03000001	mov     byte ptr [esp+380h+var_4], 1
0x004050bc	FF15B8A84000	call    ds:__imp_??1CFile@@UAE@XZ; CFile::~CFile(void)
0x004050c2	8D4C240C	lea     ecx, [esp+380h+pszPath]
0x004050c6	FF15CCA24000	call    ds:__imp_??1?$CStringT@_WV?$StrTraitMFC_DLL@_WV?$ChTraitsCRT@_W@ATL@@@@@ATL@@QAE@XZ; ATL::CStringT<wchar_t,StrTraitMFC_DLL<wchar_t,ATL::ChTraitsCRT<wchar_t>>>::~CStringT<wchar_t,StrTraitMFC_DLL<wchar_t,ATL::ChTraitsCRT<wchar_t>>>(void)
0x004050cc	8D4C2428	lea     ecx, [esp+380h+var_358]
0x004050d0	C784247C030000FFFFFFFF	mov     [esp+380h+var_4], 0FFFFFFFFh
0x004050db	FF15D0A84000	call    ds:__imp_??1CFileDialog@@UAE@XZ; CFileDialog::~CFileDialog(void)
0x004050e1	8B8C2474030000	mov     ecx, [esp+380h+var_C]
0x004050e8	5F	pop     edi
0x004050e9	64890D00000000	mov     large fs:0, ecx
0x004050f0	5E	pop     esi
0x004050f1	8BE5	mov     esp, ebp
0x004050f3	5D	pop     ebp
0x004050f4	C3	retn
CnotepadApp::OnMyFileOpenAndParse:0x00409120-0x00409150
0x00409120	8D8DA8FCFFFF	lea     ecx, [ebp+var_358]
0x00409126	FF25D0A84000	jmp     ds:__imp_??1CFileDialog@@UAE@XZ; CFileDialog::~CFileDialog(void)
0x0040912c	8D8D8CFCFFFF	lea     ecx, [ebp+pszPath]
0x00409132	FF25CCA24000	jmp     ds:__imp_??1?$CStringT@_WV?$StrTraitMFC_DLL@_WV?$ChTraitsCRT@_W@ATL@@@@@ATL@@QAE@XZ; ATL::CStringT<wchar_t,StrTraitMFC_DLL<wchar_t,ATL::ChTraitsCRT<wchar_t>>>::~CStringT<wchar_t,StrTraitMFC_DLL<wchar_t,ATL::ChTraitsCRT<wchar_t>>>(void)
0x00409138	8D8D94FCFFFF	lea     ecx, [ebp+var_36C]
0x0040913e	FF25B8A84000	jmp     ds:__imp_??1CFile@@UAE@XZ; CFile::~CFile(void)
0x00409144	8D8D90FCFFFF	lea     ecx, [ebp+lpText]
0x0040914a	FF25CCA24000	jmp     ds:__imp_??1?$CStringT@_WV?$StrTraitMFC_DLL@_WV?$ChTraitsCRT@_W@ATL@@@@@ATL@@QAE@XZ; ATL::CStringT<wchar_t,StrTraitMFC_DLL<wchar_t,ATL::ChTraitsCRT<wchar_t>>>::~CStringT<wchar_t,StrTraitMFC_DLL<wchar_t,ATL::ChTraitsCRT<wchar_t>>>(void)
CnotepadApp::ExitInstance:0x00405100-0x00405114
0x00405100	56	push    esi
0x00405101	6A00	push    0
0x00405103	8BF1	mov     esi, ecx
0x00405105	FF15E0A84000	call    ds:__imp_?AfxOleTerm@@YGXH@Z; AfxOleTerm(int)
0x0040510b	8BCE	mov     ecx, esi
0x0040510d	5E	pop     esi
0x0040510e	FF25E4A84000	jmp     ds:__imp_?ExitInstance@CWinAppEx@@UAEHXZ; CWinAppEx::ExitInstance(void)
CAboutDlg::_scalar_deleting_destructor_:0x00405120-0x00405199
0x00405120	55	push    ebp
0x00405121	8BEC	mov     ebp, esp
0x00405123	6AFF	push    0FFFFFFFFh
0x00405125	68B7994000	push    offset CAboutDlg___scalar_deleting_destructor__SEH
0x0040512a	64A100000000	mov     eax, large fs:0
0x00405130	50	push    eax
0x00405131	64892500000000	mov     large fs:0, esp
0x00405138	51	push    ecx
0x00405139	56	push    esi
0x0040513a	8BF1	mov     esi, ecx
0x0040513c	8975F0	mov     [ebp+var_10], esi
0x0040513f	8D8EAC000000	lea     ecx, [esi+0ACh]
0x00405145	C745FC01000000	mov     [ebp+var_4], 1
0x0040514c	FF15F4A84000	call    ds:__imp_??1CDialogImpl@@MAE@XZ; CDialogImpl::~CDialogImpl(void)
0x00405152	8D8EA0000000	lea     ecx, [esi+0A0h]
0x00405158	C645FC00	mov     byte ptr [ebp+var_4], 0
0x0040515c	C701D8D24000	mov     dword ptr [ecx], offset ??_7CBrush@@6B@; const CBrush::`vftable'
0x00405162	E889D8FFFF	call    CGdiObject___CGdiObject
0x00405167	8BCE	mov     ecx, esi
0x00405169	C745FCFFFFFFFF	mov     [ebp+var_4], 0FFFFFFFFh
0x00405170	FF15ECA84000	call    ds:__imp_??1CDialog@@UAE@XZ; CDialog::~CDialog(void)
0x00405176	F6450801	test    [ebp+arg_0], 1
0x0040517a	740A	jz      short loc_405186
0x0040517c	56	push    esi
0x0040517d	FF15CCAD4000	call    ds:__imp_??3@YAXPAX@Z; operator delete(void *)
0x00405183	83C404	add     esp, 4
0x00405186	8B4DF4	mov     ecx, [ebp+var_C]
0x00405189	8BC6	mov     eax, esi
0x0040518b	5E	pop     esi
0x0040518c	64890D00000000	mov     large fs:0, ecx
0x00405193	8BE5	mov     esp, ebp
0x00405195	5D	pop     ebp
0x00405196	C20400	retn    4
CAboutDlg::_scalar_deleting_destructor_:0x004099a0-0x004099b7
0x004099a0	8B4DF0	mov     ecx, [ebp+var_10]
0x004099a3	FF25ECA84000	jmp     ds:__imp_??1CDialog@@UAE@XZ; CDialog::~CDialog(void)
0x004099a9	8B4DF0	mov     ecx, [ebp+var_10]
0x004099ac	81C1A0000000	add     ecx, 0A0h
0x004099b2	E969BAFFFF	jmp     CBrush___CBrush
CAboutDlg::_CAboutDlg:0x004051a0-0x00405204
0x004051a0	55	push    ebp
0x004051a1	8BEC	mov     ebp, esp
0x004051a3	64A100000000	mov     eax, large fs:0
0x004051a9	6AFF	push    0FFFFFFFFh
0x004051ab	6887994000	push    offset CAboutDlg___CAboutDlg_SEH
0x004051b0	50	push    eax
0x004051b1	64892500000000	mov     large fs:0, esp
0x004051b8	56	push    esi
0x004051b9	8B7508	mov     esi, [ebp+arg_0]
0x004051bc	8D8EAC000000	lea     ecx, [esi+0ACh]
0x004051c2	C745FC01000000	mov     [ebp+var_4], 1
0x004051c9	FF15F4A84000	call    ds:__imp_??1CDialogImpl@@MAE@XZ; CDialogImpl::~CDialogImpl(void)
0x004051cf	8D8EA0000000	lea     ecx, [esi+0A0h]
0x004051d5	C645FC00	mov     byte ptr [ebp+var_4], 0
0x004051d9	C701D8D24000	mov     dword ptr [ecx], offset ??_7CBrush@@6B@; const CBrush::`vftable'
0x004051df	E80CD8FFFF	call    CGdiObject___CGdiObject
0x004051e4	8BCE	mov     ecx, esi
0x004051e6	C745FCFFFFFFFF	mov     [ebp+var_4], 0FFFFFFFFh
0x004051ed	FF15ECA84000	call    ds:__imp_??1CDialog@@UAE@XZ; CDialog::~CDialog(void)
0x004051f3	8B4DF4	mov     ecx, [ebp+var_C]
0x004051f6	64890D00000000	mov     large fs:0, ecx
0x004051fd	5E	pop     esi
0x004051fe	8BE5	mov     esp, ebp
0x00405200	5D	pop     ebp
0x00405201	C20400	retn    4
CAboutDlg::_CAboutDlg:0x00409970-0x00409987
0x00409970	8B4D08	mov     ecx, [ebp+arg_0]
0x00409973	FF25ECA84000	jmp     ds:__imp_??1CDialog@@UAE@XZ; CDialog::~CDialog(void)
0x00409979	8B4D08	mov     ecx, [ebp+arg_0]
0x0040997c	81C1A0000000	add     ecx, 0A0h
0x00409982	E999BAFFFF	jmp     CBrush___CBrush
CAboutDlg::GetMessageMap:0x00405210-0x00405216
0x00405210	B8E0CF4000	mov     eax, offset off_40CFE0
0x00405215	C3	retn
CnotepadApp::OnAppAbout:0x00405220-0x004052c7
0x00405220	55	push    ebp
0x00405221	8BEC	mov     ebp, esp
0x00405223	83E4F8	and     esp, 0FFFFFFF8h
0x00405226	6AFF	push    0FFFFFFFFh
0x00405228	68319C4000	push    offset CnotepadApp__OnAppAbout_SEH
0x0040522d	64A100000000	mov     eax, large fs:0
0x00405233	50	push    eax
0x00405234	64892500000000	mov     large fs:0, esp
0x0040523b	81ECBC000000	sub     esp, 0BCh
0x00405241	6A00	push    0
0x00405243	6A64	push    64h
0x00405245	8D4C2408	lea     ecx, [esp+0D0h+var_C8]
0x00405249	FF15E8A84000	call    ds:__imp_??0CDialogEx@@QAE@IPAVCWnd@@@Z; CDialogEx::CDialogEx(uint,CWnd *)
0x0040524f	C7042444D14000	mov     dword ptr [esp+0C8h+var_C8], offset ??_7CAboutDlg@@6B@; const CAboutDlg::`vftable'
0x00405256	8D0C24	lea     ecx, [esp+0C8h+var_C8]
0x00405259	C78424C400000000000000	mov     [esp+0C8h+var_4], 0
0x00405264	FF15FCA84000	call    ds:__imp_?DoModal@CDialog@@UAEHXZ; CDialog::DoModal(void)
0x0040526a	8D8C24AC000000	lea     ecx, [esp+0C8h+var_1C]
0x00405271	C78424C400000002000000	mov     [esp+0C8h+var_4], 2
0x0040527c	FF15F4A84000	call    ds:__imp_??1CDialogImpl@@MAE@XZ; CDialogImpl::~CDialogImpl(void)
0x00405282	C68424C400000001	mov     byte ptr [esp+0C8h+var_4], 1
0x0040528a	8D8C24A0000000	lea     ecx, [esp+0C8h+var_28]
0x00405291	C78424A0000000D8D24000	mov     dword ptr [esp+0C8h+var_28], offset ??_7CBrush@@6B@; const CBrush::`vftable'
0x0040529c	E84FD7FFFF	call    CGdiObject___CGdiObject
0x004052a1	8D0C24	lea     ecx, [esp+0C8h+var_C8]
0x004052a4	C78424C4000000FFFFFFFF	mov     [esp+0C8h+var_4], 0FFFFFFFFh
0x004052af	FF15ECA84000	call    ds:__imp_??1CDialog@@UAE@XZ; CDialog::~CDialog(void)
0x004052b5	8B8C24BC000000	mov     ecx, [esp+0C8h+var_C]
0x004052bc	64890D00000000	mov     large fs:0, ecx
0x004052c3	8BE5	mov     esp, ebp
0x004052c5	5D	pop     ebp
0x004052c6	C3	retn
CnotepadApp::OnAppAbout:0x00409c10-0x00409c31
0x00409c10	8D8538FFFFFF	lea     eax, [ebp+var_C8]
0x00409c16	50	push    eax
0x00409c17	E884B5FFFF	call    CAboutDlg___CAboutDlg
0x00409c1c	C3	retn
0x00409c1d	8D8D38FFFFFF	lea     ecx, [ebp+var_C8]
0x00409c23	FF25ECA84000	jmp     ds:__imp_??1CDialog@@UAE@XZ; CDialog::~CDialog(void)
0x00409c29	8D4DD8	lea     ecx, [ebp+var_28]
0x00409c2c	E9EFB7FFFF	jmp     CBrush___CBrush
CnotepadApp::PreLoadState:0x004052d0-0x0040535f
0x004052d0	55	push    ebp
0x004052d1	8BEC	mov     ebp, esp
0x004052d3	6AFF	push    0FFFFFFFFh
0x004052d5	6809914000	push    offset CnotepadApp__PreLoadState_SEH
0x004052da	64A100000000	mov     eax, large fs:0
0x004052e0	50	push    eax
0x004052e1	64892500000000	mov     large fs:0, esp
0x004052e8	51	push    ecx
0x004052e9	53	push    ebx
0x004052ea	56	push    esi
0x004052eb	8BF1	mov     esi, ecx
0x004052ed	57	push    edi
0x004052ee	8D4DF0	lea     ecx, [ebp+var_10]
0x004052f1	FF15D0A24000	call    ds:__imp_??0?$CStringT@_WV?$StrTraitMFC_DLL@_WV?$ChTraitsCRT@_W@ATL@@@@@ATL@@QAE@XZ; ATL::CStringT<wchar_t,StrTraitMFC_DLL<wchar_t,ATL::ChTraitsCRT<wchar_t>>>::CStringT<wchar_t,StrTraitMFC_DLL<wchar_t,ATL::ChTraitsCRT<wchar_t>>>(void)
0x004052f7	6832010000	push    132h
0x004052fc	8D4DF0	lea     ecx, [ebp+var_10]
0x004052ff	C745FC00000000	mov     [ebp+var_4], 0
0x00405306	FF15E4A64000	call    ds:__imp_?LoadStringW@?$CStringT@_WV?$StrTraitMFC_DLL@_WV?$ChTraitsCRT@_W@ATL@@@@@ATL@@QAEHI@Z; ATL::CStringT<wchar_t,StrTraitMFC_DLL<wchar_t,ATL::ChTraitsCRT<wchar_t>>>::LoadStringW(uint)
0x0040530c	8B45F0	mov     eax, [ebp+var_10]
0x0040530f	8B3DA4A64000	mov     edi, ds:__imp_?GetContextMenuManager@CWinAppEx@@QAEPAVCContextMenuManager@@XZ; CWinAppEx::GetContextMenuManager(void)
0x00405315	6A77	push    77h
0x00405317	50	push    eax
0x00405318	8BCE	mov     ecx, esi
0x0040531a	FFD7	call    edi ; CWinAppEx::GetContextMenuManager(void); CWinAppEx::GetContextMenuManager(void)
0x0040531c	8B1D00A94000	mov     ebx, ds:__imp_?AddMenu@CContextMenuManager@@QAEHPB_WI@Z; CContextMenuManager::AddMenu(wchar_t const *,uint)
0x00405322	8BC8	mov     ecx, eax
0x00405324	FFD3	call    ebx ; CContextMenuManager::AddMenu(wchar_t const *,uint); CContextMenuManager::AddMenu(wchar_t const *,uint)
0x00405326	6831010000	push    131h
0x0040532b	8D4DF0	lea     ecx, [ebp+var_10]
0x0040532e	FF15E4A64000	call    ds:__imp_?LoadStringW@?$CStringT@_WV?$StrTraitMFC_DLL@_WV?$ChTraitsCRT@_W@ATL@@@@@ATL@@QAEHI@Z; ATL::CStringT<wchar_t,StrTraitMFC_DLL<wchar_t,ATL::ChTraitsCRT<wchar_t>>>::LoadStringW(uint)
0x00405334	8B4DF0	mov     ecx, [ebp+var_10]
0x00405337	68AE000000	push    0AEh
0x0040533c	51	push    ecx
0x0040533d	8BCE	mov     ecx, esi
0x0040533f	FFD7	call    edi ; CWinAppEx::GetContextMenuManager(void); CWinAppEx::GetContextMenuManager(void)
0x00405341	8BC8	mov     ecx, eax
0x00405343	FFD3	call    ebx ; CContextMenuManager::AddMenu(wchar_t const *,uint); CContextMenuManager::AddMenu(wchar_t const *,uint)
0x00405345	8D4DF0	lea     ecx, [ebp+var_10]
0x00405348	FF15CCA24000	call    ds:__imp_??1?$CStringT@_WV?$StrTraitMFC_DLL@_WV?$ChTraitsCRT@_W@ATL@@@@@ATL@@QAE@XZ; ATL::CStringT<wchar_t,StrTraitMFC_DLL<wchar_t,ATL::ChTraitsCRT<wchar_t>>>::~CStringT<wchar_t,StrTraitMFC_DLL<wchar_t,ATL::ChTraitsCRT<wchar_t>>>(void)
0x0040534e	8B4DF4	mov     ecx, [ebp+var_C]
0x00405351	5F	pop     edi
0x00405352	5E	pop     esi
0x00405353	5B	pop     ebx
0x00405354	64890D00000000	mov     large fs:0, ecx
0x0040535b	8BE5	mov     esp, ebp
0x0040535d	5D	pop     ebp
0x0040535e	C3	retn
CnotepadApp::PreLoadState:0x00409100-0x00409109
0x00409100	8D4DF0	lea     ecx, [ebp+var_10]
0x00409103	FF25CCA24000	jmp     ds:__imp_??1?$CStringT@_WV?$StrTraitMFC_DLL@_WV?$ChTraitsCRT@_W@ATL@@@@@ATL@@QAE@XZ; ATL::CStringT<wchar_t,StrTraitMFC_DLL<wchar_t,ATL::ChTraitsCRT<wchar_t>>>::~CStringT<wchar_t,StrTraitMFC_DLL<wchar_t,ATL::ChTraitsCRT<wchar_t>>>(void)
CDialog::Create:0x00405360-0x00405376
0x00405360	55	push    ebp
0x00405361	8BEC	mov     ebp, esp
0x00405363	8B450C	mov     eax, [ebp+arg_4]
0x00405366	0FB75508	movzx   edx, [ebp+arg_0]
0x0040536a	50	push    eax
0x0040536b	52	push    edx
0x0040536c	FF15E8A94000	call    ds:__imp_?Create@CDialog@@UAEHPB_WPAVCWnd@@@Z; CDialog::Create(wchar_t const *,CWnd *)
0x00405372	5D	pop     ebp
0x00405373	C20800	retn    8
CWinApp::GetApplicationRecoveryPingInterval:0x00405380-0x00405386
0x00405380	B888130000	mov     eax, 1388h
0x00405385	C3	retn
CWinApp::RestoreAutosavedFilesAtRestart:0x00405390-0x0040539a
0x00405390	8B81AC000000	mov     eax, [ecx+0ACh]
0x00405396	83E020	and     eax, 20h
0x00405399	C3	retn
CWinApp::ReopenPreviousFilesAtRestart:0x004053a0-0x004053aa
0x004053a0	8B81AC000000	mov     eax, [ecx+0ACh]
0x004053a6	83E010	and     eax, 10h
0x004053a9	C3	retn
CWinApp::SupportsAutosaveAtInterval:0x004053b0-0x004053ba
0x004053b0	8B81AC000000	mov     eax, [ecx+0ACh]
0x004053b6	83E008	and     eax, 8
0x004053b9	C3	retn
CWinApp::SupportsAutosaveAtRestart:0x004053c0-0x004053ca
0x004053c0	8B81AC000000	mov     eax, [ecx+0ACh]
0x004053c6	83E004	and     eax, 4
0x004053c9	C3	retn
CWinApp::SupportsApplicationRecovery:0x004053d0-0x004053da
0x004053d0	8B81AC000000	mov     eax, [ecx+0ACh]
0x004053d6	83E002	and     eax, 2
0x004053d9	C3	retn
CWinApp::SupportsRestartManager:0x004053e0-0x004053ea
0x004053e0	8B81AC000000	mov     eax, [ecx+0ACh]
0x004053e6	83E001	and     eax, 1
0x004053e9	C3	retn
CBrush::_scalar_deleting_destructor_:0x004053f0-0x00405418
0x004053f0	55	push    ebp
0x004053f1	8BEC	mov     ebp, esp
0x004053f3	56	push    esi
0x004053f4	8BF1	mov     esi, ecx
0x004053f6	C706D8D24000	mov     dword ptr [esi], offset ??_7CBrush@@6B@; const CBrush::`vftable'
0x004053fc	E8EFD5FFFF	call    CGdiObject___CGdiObject
0x00405401	F6450801	test    [ebp+arg_0], 1
0x00405405	740A	jz      short loc_405411
0x00405407	56	push    esi
0x00405408	FF15CCAD4000	call    ds:__imp_??3@YAXPAX@Z; operator delete(void *)
0x0040540e	83C404	add     esp, 4
0x00405411	8BC6	mov     eax, esi
0x00405413	5E	pop     esi
0x00405414	5D	pop     ebp
0x00405415	C20400	retn    4
CBrush::_CBrush:0x00405420-0x0040542b
0x00405420	C701D8D24000	mov     dword ptr [ecx], offset ??_7CBrush@@6B@; const CBrush::`vftable'
0x00405426	E9C5D5FFFF	jmp     CGdiObject___CGdiObject
CnotepadDoc::CreateObject:0x00405430-0x00405485
0x00405430	55	push    ebp
0x00405431	8BEC	mov     ebp, esp
0x00405433	6AFF	push    0FFFFFFFFh
0x00405435	68E8924000	push    offset CnotepadView__CreateObject_SEH
0x0040543a	64A100000000	mov     eax, large fs:0
0x00405440	50	push    eax
0x00405441	64892500000000	mov     large fs:0, esp
0x00405448	51	push    ecx
0x00405449	56	push    esi
0x0040544a	68D8000000	push    0D8h
0x0040544f	FF15ACAD4000	call    ds:__imp_??2@YAPAXI@Z; operator new(uint)
0x00405455	8BF0	mov     esi, eax
0x00405457	83C404	add     esp, 4
0x0040545a	8975F0	mov     [ebp+var_10], esi
0x0040545d	33C0	xor     eax, eax
0x0040545f	8945FC	mov     [ebp+var_4], eax
0x00405462	3BF0	cmp     esi, eax
0x00405464	7410	jz      short loc_405476
0x00405466	8BCE	mov     ecx, esi
0x00405468	FF1510AA4000	call    ds:__imp_??0CDocument@@QAE@XZ; CDocument::CDocument(void)
0x0040546e	C70624D34000	mov     dword ptr [esi], offset ??_7CnotepadDoc@@6B@; const CnotepadDoc::`vftable'
0x00405474	8BC6	mov     eax, esi
0x00405476	8B4DF4	mov     ecx, [ebp+var_C]
0x00405479	5E	pop     esi
0x0040547a	64890D00000000	mov     large fs:0, ecx
0x00405481	8BE5	mov     esp, ebp
0x00405483	5D	pop     ebp
0x00405484	C3	retn
CnotepadDoc::CreateObject:0x004092e0-0x004092e8
0x004092e0	8B45F0	mov     eax, [ebp+var_10]
0x004092e3	E9087EFFFF	jmp     CObject__operator_delete
CnotepadDoc::_GetBaseClass:0x00405490-0x00405496
0x00405490	FF2508AA4000	jmp     ds:__imp_?GetThisClass@CDocument@@SGPAUCRuntimeClass@@XZ; CDocument::GetThisClass(void)
CnotepadDoc::GetRuntimeClass:0x004054a0-0x004054a6
0x004054a0	B8F8D24000	mov     eax, offset CnotepadDoc__classCnotepadDoc
0x004054a5	C3	retn
CnotepadDoc::GetMessageMap:0x004054b0-0x004054b6
0x004054b0	B814D34000	mov     eax, offset off_40D314
0x004054b5	C3	retn
CnotepadDoc::_scalar_deleting_destructor_:0x004054c0-0x004054e9
0x004054c0	55	push    ebp
0x004054c1	8BEC	mov     ebp, esp
0x004054c3	56	push    esi
0x004054c4	8BF1	mov     esi, ecx
0x004054c6	C70624D34000	mov     dword ptr [esi], offset ??_7CnotepadDoc@@6B@; const CnotepadDoc::`vftable'
0x004054cc	FF1514AA4000	call    ds:__imp_??1CDocument@@UAE@XZ; CDocument::~CDocument(void)
0x004054d2	F6450801	test    [ebp+arg_0], 1
0x004054d6	740A	jz      short loc_4054E2
0x004054d8	56	push    esi
0x004054d9	FF15CCAD4000	call    ds:__imp_??3@YAXPAX@Z; operator delete(void *)
0x004054df	83C404	add     esp, 4
0x004054e2	8BC6	mov     eax, esi
0x004054e4	5E	pop     esi
0x004054e5	5D	pop     ebp
0x004054e6	C20400	retn    4
CnotepadDoc::OnNewDocument:0x004054f0-0x004054fd
0x004054f0	FF1518AA4000	call    ds:__imp_?OnNewDocument@CDocument@@UAEHXZ; CDocument::OnNewDocument(void)
0x004054f6	F7D8	neg     eax
0x004054f8	1BC0	sbb     eax, eax
0x004054fa	F7D8	neg     eax
0x004054fc	C3	retn
CDocument::SetModifiedFlag:0x00405500-0x0040550d
0x00405500	55	push    ebp
0x00405501	8BEC	mov     ebp, esp
0x00405503	8B4508	mov     eax, [ebp+arg_0]
0x00405506	894148	mov     [ecx+48h], eax
0x00405509	5D	pop     ebp
0x0040550a	C20400	retn    4
CDocument::CDocumentAdapter::_scalar_deleting_destructor_:0x00405510-0x00405583
0x00405510	55	push    ebp
0x00405511	8BEC	mov     ebp, esp
0x00405513	6AFF	push    0FFFFFFFFh
0x00405515	68E8904000	push    offset CDocument__CDocumentAdapter___scalar_deleting_destructor__SEH
0x0040551a	64A100000000	mov     eax, large fs:0
0x00405520	50	push    eax
0x00405521	64892500000000	mov     large fs:0, esp
0x00405528	51	push    ecx
0x00405529	56	push    esi
0x0040552a	8BF1	mov     esi, ecx
0x0040552c	8975F0	mov     [ebp+var_10], esi
0x0040552f	C70678D44000	mov     dword ptr [esi], offset ??_7CDocumentAdapter@CDocument@@6B@; const CDocument::CDocumentAdapter::`vftable'
0x00405535	C745FC00000000	mov     [ebp+var_4], 0
0x0040553c	8B4E08	mov     ecx, [esi+8]
0x0040553f	85C9	test    ecx, ecx
0x00405541	7410	jz      short loc_405553
0x00405543	8B01	mov     eax, [ecx]
0x00405545	8B5004	mov     edx, [eax+4]
0x00405548	6A01	push    1
0x0040554a	FFD2	call    edx
0x0040554c	C7460800000000	mov     dword ptr [esi+8], 0
0x00405553	F6450801	test    [ebp+arg_0], 1
0x00405557	C745FCFFFFFFFF	mov     [ebp+var_4], 0FFFFFFFFh
0x0040555e	C70640D44000	mov     dword ptr [esi], offset ??_7IDocument@ATL@@6B@; const ATL::IDocument::`vftable'
0x00405564	740A	jz      short loc_405570
0x00405566	56	push    esi
0x00405567	FF15CCAD4000	call    ds:__imp_??3@YAXPAX@Z; operator delete(void *)
0x0040556d	83C404	add     esp, 4
0x00405570	8B4DF4	mov     ecx, [ebp+var_C]
0x00405573	8BC6	mov     eax, esi
0x00405575	5E	pop     esi
0x00405576	64890D00000000	mov     large fs:0, ecx
0x0040557d	8BE5	mov     esp, ebp
0x0040557f	5D	pop     ebp
0x00405580	C20400	retn    4
CDocument::CDocumentAdapter::_scalar_deleting_destructor_:0x004090e0-0x004090e8
0x004090e0	8B4DF0	mov     ecx, [ebp+var_10]
0x004090e3	E9D8C4FFFF	jmp     ATL__IDocument___IDocument
ATL::IDocument::_scalar_deleting_destructor_:0x00405590-0x004055b3
0x00405590	55	push    ebp
0x00405591	8BEC	mov     ebp, esp
0x00405593	F6450801	test    [ebp+arg_0], 1
0x00405597	56	push    esi
0x00405598	8BF1	mov     esi, ecx
0x0040559a	C70640D44000	mov     dword ptr [esi], offset ??_7IDocument@ATL@@6B@; const ATL::IDocument::`vftable'
0x004055a0	740A	jz      short loc_4055AC
0x004055a2	56	push    esi
0x004055a3	FF15CCAD4000	call    ds:__imp_??3@YAXPAX@Z; operator delete(void *)
0x004055a9	83C404	add     esp, 4
0x004055ac	8BC6	mov     eax, esi
0x004055ae	5E	pop     esi
0x004055af	5D	pop     ebp
0x004055b0	C20400	retn    4
ATL::IDocument::_IDocument:0x004055c0-0x004055c7
0x004055c0	C70140D44000	mov     dword ptr [ecx], offset ??_7IDocument@ATL@@6B@; const ATL::IDocument::`vftable'
0x004055c6	C3	retn
ATL::IDocument::Release:0x004055d0-0x004055fa
0x004055d0	56	push    esi
0x004055d1	57	push    edi
0x004055d2	8BF1	mov     esi, ecx
0x004055d4	8D7E04	lea     edi, [esi+4]
0x004055d7	57	push    edi; lpAddend
0x004055d8	FF1574A04000	call    ds:__imp__InterlockedDecrement@4; InterlockedDecrement(x)
0x004055de	85C0	test    eax, eax
0x004055e0	7513	jnz     short loc_4055F5
0x004055e2	85F6	test    esi, esi
0x004055e4	740A	jz      short loc_4055F0
0x004055e6	8B06	mov     eax, [esi]
0x004055e8	8B10	mov     edx, [eax]
0x004055ea	6A01	push    1
0x004055ec	8BCE	mov     ecx, esi
0x004055ee	FFD2	call    edx
0x004055f0	5F	pop     edi
0x004055f1	33C0	xor     eax, eax
0x004055f3	5E	pop     esi
0x004055f4	C3	retn
0x004055f5	8B07	mov     eax, [edi]
0x004055f7	5F	pop     edi
0x004055f8	5E	pop     esi
0x004055f9	C3	retn
CDocument::CDocumentAdapter::LoadFromStream:0x00405600-0x00405649
0x00405600	55	push    ebp
0x00405601	8BEC	mov     ebp, esp
0x00405603	56	push    esi
0x00405604	8BF1	mov     esi, ecx
0x00405606	837E0800	cmp     dword ptr [esi+8], 0
0x0040560a	750A	jnz     short loc_405616
0x0040560c	B803400080	mov     eax, 80004003h
0x00405611	5E	pop     esi
0x00405612	5D	pop     ebp
0x00405613	C20800	retn    8
0x00405616	8B4E08	mov     ecx, [esi+8]
0x00405619	B801000000	mov     eax, 1
0x0040561e	8981A8000000	mov     [ecx+0A8h], eax
0x00405624	8B5608	mov     edx, [esi+8]
0x00405627	8982A0000000	mov     [edx+0A0h], eax
0x0040562d	8B4E08	mov     ecx, [esi+8]
0x00405630	8B01	mov     eax, [ecx]
0x00405632	8B9080000000	mov     edx, [eax+80h]
0x00405638	FFD2	call    edx
0x0040563a	8B4E08	mov     ecx, [esi+8]
0x0040563d	8B01	mov     eax, [ecx]
0x0040563f	8B80B4000000	mov     eax, [eax+0B4h]
0x00405645	5E	pop     esi
0x00405646	5D	pop     ebp
0x00405647	FFE0	jmp     eax
CDocument::CDocumentAdapter::InitializeSearchContent:0x00405650-0x00405664
0x00405650	83790800	cmp     dword ptr [ecx+8], 0
0x00405654	740D	jz      short locret_405663
0x00405656	8B4908	mov     ecx, [ecx+8]
0x00405659	8B01	mov     eax, [ecx]
0x0040565b	8B90BC000000	mov     edx, [eax+0BCh]
0x00405661	FFE2	jmp     edx
0x00405663	C3	retn
CDocument::CDocumentAdapter::BeginReadChunks:0x00405670-0x00405684
0x00405670	83790800	cmp     dword ptr [ecx+8], 0
0x00405674	740D	jz      short locret_405683
0x00405676	8B4908	mov     ecx, [ecx+8]
0x00405679	8B01	mov     eax, [ecx]
0x0040567b	8B90C8000000	mov     edx, [eax+0C8h]
0x00405681	FFE2	jmp     edx
0x00405683	C3	retn
CDocument::CDocumentAdapter::GetThumbnail:0x00405690-0x004056ad
0x00405690	55	push    ebp
0x00405691	8BEC	mov     ebp, esp
0x00405693	83790800	cmp     dword ptr [ecx+8], 0
0x00405697	7506	jnz     short loc_40569F
0x00405699	33C0	xor     eax, eax
0x0040569b	5D	pop     ebp
0x0040569c	C20C00	retn    0Ch
0x0040569f	8B4908	mov     ecx, [ecx+8]
0x004056a2	8B01	mov     eax, [ecx]
0x004056a4	8B80B8000000	mov     eax, [eax+0B8h]
0x004056aa	5D	pop     ebp
0x004056ab	FFE0	jmp     eax
CDocument::CDocumentAdapter::ClearChunkList:0x004056b0-0x004056c4
0x004056b0	83790800	cmp     dword ptr [ecx+8], 0
0x004056b4	740D	jz      short locret_4056C3
0x004056b6	8B4908	mov     ecx, [ecx+8]
0x004056b9	8B01	mov     eax, [ecx]
0x004056bb	8B90C0000000	mov     edx, [eax+0C0h]
0x004056c1	FFE2	jmp     edx
0x004056c3	C3	retn
CDocument::CDocumentAdapter::SetChunkValue:0x004056d0-0x004056ed
0x004056d0	55	push    ebp
0x004056d1	8BEC	mov     ebp, esp
0x004056d3	83790800	cmp     dword ptr [ecx+8], 0
0x004056d7	7506	jnz     short loc_4056DF
0x004056d9	33C0	xor     eax, eax
0x004056db	5D	pop     ebp
0x004056dc	C20400	retn    4
0x004056df	8B4908	mov     ecx, [ecx+8]
0x004056e2	8B01	mov     eax, [ecx]
0x004056e4	8B80C4000000	mov     eax, [eax+0C4h]
0x004056ea	5D	pop     ebp
0x004056eb	FFE0	jmp     eax
CDocument::CDocumentAdapter::ReadNextChunkValue:0x004056f0-0x0040570d
0x004056f0	55	push    ebp
0x004056f1	8BEC	mov     ebp, esp
0x004056f3	83790800	cmp     dword ptr [ecx+8], 0
0x004056f7	7506	jnz     short loc_4056FF
0x004056f9	33C0	xor     eax, eax
0x004056fb	5D	pop     ebp
0x004056fc	C20400	retn    4
0x004056ff	8B4908	mov     ecx, [ecx+8]
0x00405702	8B01	mov     eax, [ecx]
0x00405704	8B80CC000000	mov     eax, [eax+0CCh]
0x0040570a	5D	pop     ebp
0x0040570b	FFE0	jmp     eax
CDocument::CDocumentAdapter::RemoveChunk:0x00405710-0x0040572b
0x00405710	55	push    ebp
0x00405711	8BEC	mov     ebp, esp
0x00405713	83790800	cmp     dword ptr [ecx+8], 0
0x00405717	740E	jz      short loc_405727
0x00405719	8B4908	mov     ecx, [ecx+8]
0x0040571c	8B01	mov     eax, [ecx]
0x0040571e	8B80D0000000	mov     eax, [eax+0D0h]
0x00405724	5D	pop     ebp
0x00405725	FFE0	jmp     eax
0x00405727	5D	pop     ebp
0x00405728	C20800	retn    8
CDocument::CDocumentAdapter::FindChunk:0x00405730-0x0040574d
0x00405730	55	push    ebp
0x00405731	8BEC	mov     ebp, esp
0x00405733	83790800	cmp     dword ptr [ecx+8], 0
0x00405737	7506	jnz     short loc_40573F
0x00405739	33C0	xor     eax, eax
0x0040573b	5D	pop     ebp
0x0040573c	C20800	retn    8
0x0040573f	8B4908	mov     ecx, [ecx+8]
0x00405742	8B01	mov     eax, [ecx]
0x00405744	8B80D4000000	mov     eax, [eax+0D4h]
0x0040574a	5D	pop     ebp
0x0040574b	FFE0	jmp     eax
CDocument::CDocumentAdapter::GetContainer:0x00405750-0x00405754
0x00405750	8B4108	mov     eax, [ecx+8]
0x00405753	C3	retn
ATL::IDocument::AddRef:0x00405760-0x0040576b
0x00405760	83C104	add     ecx, 4
0x00405763	51	push    ecx; lpAddend
0x00405764	FF1578A04000	call    ds:__imp__InterlockedIncrement@4; InterlockedIncrement(x)
0x0040576a	C3	retn
CDocument::GetAdapter:0x00405770-0x00405838
0x00405770	55	push    ebp
0x00405771	8BEC	mov     ebp, esp
0x00405773	6AFF	push    0FFFFFFFFh
0x00405775	6860994000	push    offset CDocument__GetAdapter_SEH
0x0040577a	64A100000000	mov     eax, large fs:0
0x00405780	50	push    eax
0x00405781	64892500000000	mov     large fs:0, esp
0x00405788	83EC0C	sub     esp, 0Ch
0x0040578b	53	push    ebx
0x0040578c	56	push    esi
0x0040578d	57	push    edi
0x0040578e	8BF1	mov     esi, ecx
0x00405790	33FF	xor     edi, edi
0x00405792	8965F0	mov     [ebp+var_10], esp
0x00405795	8975EC	mov     [ebp+var_14], esi
0x00405798	39BE98000000	cmp     [esi+98h], edi
0x0040579e	755D	jnz     short loc_4057FD
0x004057a0	6A0C	push    0Ch
0x004057a2	897DFC	mov     [ebp+var_4], edi
0x004057a5	FF15ACAD4000	call    ds:__imp_??2@YAPAXI@Z; operator new(uint)
0x004057ab	83C404	add     esp, 4
0x004057ae	3BC7	cmp     eax, edi
0x004057b0	7421	jz      short loc_4057D3
0x004057b2	C70040D44000	mov     dword ptr [eax], offset ??_7IDocument@ATL@@6B@; const ATL::IDocument::`vftable'
0x004057b8	897804	mov     [eax+4], edi
0x004057bb	C70078D44000	mov     dword ptr [eax], offset ??_7CDocumentAdapter@CDocument@@6B@; const CDocument::CDocumentAdapter::`vftable'
0x004057c1	897008	mov     [eax+8], esi
0x004057c4	898698000000	mov     [esi+98h], eax
0x004057ca	C745FCFFFFFFFF	mov     [ebp+var_4], 0FFFFFFFFh
0x004057d1	EB2A	jmp     short loc_4057FD
0x004057d3	33C0	xor     eax, eax
0x004057d5	898698000000	mov     [esi+98h], eax
0x004057db	C745FCFFFFFFFF	mov     [ebp+var_4], 0FFFFFFFFh
0x004057e2	EB19	jmp     short loc_4057FD
0x004057e4	8B4DE8	mov     ecx, [ebp+var_18]
0x004057e7	FF1528AA4000	call    ds:__imp_?Delete@CException@@QAEXXZ; CException::Delete(void)
0x004057ed	C745FCFFFFFFFF	mov     [ebp+var_4], 0FFFFFFFFh
0x004057f4	B8FA574000	mov     eax, offset loc_4057FA
0x004057f9	C3	retn
0x004057fa	8B75EC	mov     esi, [ebp+var_14]
0x004057fd	8B8E98000000	mov     ecx, [esi+98h]
0x00405803	85C9	test    ecx, ecx
0x00405805	741E	jz      short loc_405825
0x00405807	8B01	mov     eax, [ecx]
0x00405809	8B5004	mov     edx, [eax+4]
0x0040580c	FFD2	call    edx
0x0040580e	8B8698000000	mov     eax, [esi+98h]
0x00405814	8B4DF4	mov     ecx, [ebp+var_C]
0x00405817	64890D00000000	mov     large fs:0, ecx
0x0040581e	5F	pop     edi
0x0040581f	5E	pop     esi
0x00405820	5B	pop     ebx
0x00405821	8BE5	mov     esp, ebp
0x00405823	5D	pop     ebp
0x00405824	C3	retn
0x00405825	5F	pop     edi
0x00405826	8BC1	mov     eax, ecx
0x00405828	8B4DF4	mov     ecx, [ebp+var_C]
0x0040582b	5E	pop     esi
0x0040582c	64890D00000000	mov     large fs:0, ecx
0x00405833	5B	pop     ebx
0x00405834	8BE5	mov     esp, ebp
0x00405836	5D	pop     ebp
0x00405837	C3	retn
CnotepadView::CreateObject:0x00405840-0x00405892
0x00405840	55	push    ebp
0x00405841	8BEC	mov     ebp, esp
0x00405843	6AFF	push    0FFFFFFFFh
0x00405845	68E8924000	push    offset CnotepadView__CreateObject_SEH
0x0040584a	64A100000000	mov     eax, large fs:0
0x00405850	50	push    eax
0x00405851	64892500000000	mov     large fs:0, esp
0x00405858	51	push    ecx
0x00405859	56	push    esi
0x0040585a	6A7C	push    7Ch
0x0040585c	FF15ACAD4000	call    ds:__imp_??2@YAPAXI@Z; operator new(uint)
0x00405862	8BF0	mov     esi, eax
0x00405864	83C404	add     esp, 4
0x00405867	8975F0	mov     [ebp+var_10], esi
0x0040586a	33C0	xor     eax, eax
0x0040586c	8945FC	mov     [ebp+var_4], eax
0x0040586f	3BF0	cmp     esi, eax
0x00405871	7410	jz      short loc_405883
0x00405873	8BCE	mov     ecx, esi
0x00405875	FF15D0AA4000	call    ds:__imp_??0CView@@IAE@XZ; CView::CView(void)
0x0040587b	C70674D54000	mov     dword ptr [esi], offset ??_7CnotepadView@@6B@; const CnotepadView::`vftable'
0x00405881	8BC6	mov     eax, esi
0x00405883	8B4DF4	mov     ecx, [ebp+var_C]
0x00405886	5E	pop     esi
0x00405887	64890D00000000	mov     large fs:0, ecx
0x0040588e	8BE5	mov     esp, ebp
0x00405890	5D	pop     ebp
0x00405891	C3	retn
CnotepadView::CreateObject:0x004092e0-0x004092e8
0x004092e0	8B45F0	mov     eax, [ebp+var_10]
0x004092e3	E9087EFFFF	jmp     CObject__operator_delete
CnotepadView::_GetBaseClass:0x004058a0-0x004058a6
0x004058a0	FF25C4AA4000	jmp     ds:__imp_?GetThisClass@CView@@SGPAUCRuntimeClass@@XZ; CView::GetThisClass(void)
CnotepadView::GetRuntimeClass:0x004058b0-0x004058b6
0x004058b0	B8BCD44000	mov     eax, offset CnotepadView__classCnotepadView
0x004058b5	C3	retn
CnotepadView::GetMessageMap:0x004058c0-0x004058c6
0x004058c0	B868D54000	mov     eax, offset off_40D568
0x004058c5	C3	retn
CnotepadView::_scalar_deleting_destructor_:0x004058d0-0x004058f9
0x004058d0	55	push    ebp
0x004058d1	8BEC	mov     ebp, esp
0x004058d3	56	push    esi
0x004058d4	8BF1	mov     esi, ecx
0x004058d6	C70674D54000	mov     dword ptr [esi], offset ??_7CnotepadView@@6B@; const CnotepadView::`vftable'
0x004058dc	FF15D4AA4000	call    ds:__imp_??1CView@@UAE@XZ; CView::~CView(void)
0x004058e2	F6450801	test    [ebp+arg_0], 1
0x004058e6	740A	jz      short loc_4058F2
0x004058e8	56	push    esi
0x004058e9	FF15CCAD4000	call    ds:__imp_??3@YAXPAX@Z; operator delete(void *)
0x004058ef	83C404	add     esp, 4
0x004058f2	8BC6	mov     eax, esi
0x004058f4	5E	pop     esi
0x004058f5	5D	pop     ebp
0x004058f6	C20400	retn    4
CnotepadView::PreCreateWindow:0x00405900-0x0040590a
0x00405900	55	push    ebp
0x00405901	8BEC	mov     ebp, esp
0x00405903	5D	pop     ebp
0x00405904	FF25D8AA4000	jmp     ds:__imp_?PreCreateWindow@CView@@MAEHAAUtagCREATESTRUCTW@@@Z; CView::PreCreateWindow(tagCREATESTRUCTW &)
CnotepadView::OnFilePrintPreview:0x00405910-0x00405919
0x00405910	51	push    ecx
0x00405911	FF15DCAA4000	call    ds:__imp_?AFXPrintPreview@@YAXPAVCView@@@Z; AFXPrintPreview(CView *)
0x00405917	59	pop     ecx
0x00405918	C3	retn
CnotepadView::OnPreparePrinting:0x00405920-0x0040592a
0x00405920	55	push    ebp
0x00405921	8BEC	mov     ebp, esp
0x00405923	5D	pop     ebp
0x00405924	FF25E0AA4000	jmp     ds:__imp_?DoPreparePrinting@CView@@QAEHPAUCPrintInfo@@@Z; CView::DoPreparePrinting(CPrintInfo *)
CnotepadView::OnRButtonUp:0x00405930-0x00405970
0x00405930	55	push    ebp
0x00405931	8BEC	mov     ebp, esp
0x00405933	53	push    ebx
0x00405934	56	push    esi
0x00405935	57	push    edi
0x00405936	8BF1	mov     esi, ecx
0x00405938	8B4E20	mov     ecx, [esi+20h]
0x0040593b	8D450C	lea     eax, [ebp+Point]
0x0040593e	50	push    eax; lpPoint
0x0040593f	51	push    ecx; hWnd
0x00405940	FF1570A14000	call    ds:__imp__ClientToScreen@8; ClientToScreen(x,x)
0x00405946	8B7D0C	mov     edi, [ebp+Point.x]
0x00405949	8B5D10	mov     ebx, [ebp+Point.y]
0x0040594c	B9202A4100	mov     ecx, offset theApp
0x00405951	FF15A4A64000	call    ds:__imp_?GetContextMenuManager@CWinAppEx@@QAEPAVCContextMenuManager@@XZ; CWinAppEx::GetContextMenuManager(void)
0x00405957	8B10	mov     edx, [eax]
0x00405959	6A00	push    0
0x0040595b	6A01	push    1
0x0040595d	56	push    esi
0x0040595e	53	push    ebx
0x0040595f	57	push    edi
0x00405960	8BC8	mov     ecx, eax
0x00405962	8B4218	mov     eax, [edx+18h]
0x00405965	6A77	push    77h
0x00405967	FFD0	call    eax
0x00405969	5F	pop     edi
0x0040596a	5E	pop     esi
0x0040596b	5B	pop     ebx
0x0040596c	5D	pop     ebp
0x0040596d	C20C00	retn    0Ch
CnotepadView::OnContextMenu:0x00405970-0x0040599e
0x00405970	55	push    ebp
0x00405971	8BEC	mov     ebp, esp
0x00405973	56	push    esi
0x00405974	8BF1	mov     esi, ecx
0x00405976	B9202A4100	mov     ecx, offset theApp
0x0040597b	FF15A4A64000	call    ds:__imp_?GetContextMenuManager@CWinAppEx@@QAEPAVCContextMenuManager@@XZ; CWinAppEx::GetContextMenuManager(void)
0x00405981	8B4D10	mov     ecx, [ebp+arg_8]
0x00405984	8B10	mov     edx, [eax]
0x00405986	8B5218	mov     edx, [edx+18h]
0x00405989	6A00	push    0
0x0040598b	6A01	push    1
0x0040598d	56	push    esi
0x0040598e	51	push    ecx
0x0040598f	8B4D0C	mov     ecx, [ebp+arg_4]
0x00405992	51	push    ecx
0x00405993	6A77	push    77h
0x00405995	8BC8	mov     ecx, eax
0x00405997	FFD2	call    edx
0x00405999	5E	pop     esi
0x0040599a	5D	pop     ebp
0x0040599b	C20C00	retn    0Ch
COutputWnd::_scalar_deleting_destructor_:0x004059a0-0x004059c2
0x004059a0	55	push    ebp
0x004059a1	8BEC	mov     ebp, esp
0x004059a3	56	push    esi
0x004059a4	8BF1	mov     esi, ecx
0x004059a6	E825000000	call    COutputWnd___COutputWnd
0x004059ab	F6450801	test    [ebp+arg_0], 1
0x004059af	740A	jz      short loc_4059BB
0x004059b1	56	push    esi
0x004059b2	FF15CCAD4000	call    ds:__imp_??3@YAXPAX@Z; operator delete(void *)
0x004059b8	83C404	add     esp, 4
0x004059bb	8BC6	mov     eax, esi
0x004059bd	5E	pop     esi
0x004059be	5D	pop     ebp
0x004059bf	C20400	retn    4
COutputWnd::_COutputWnd:0x004059d0-0x00405a64
0x004059d0	55	push    ebp
0x004059d1	8BEC	mov     ebp, esp
0x004059d3	6AFF	push    0FFFFFFFFh
0x004059d5	68D4904000	push    offset COutputWnd___COutputWnd_SEH
0x004059da	64A100000000	mov     eax, large fs:0
0x004059e0	50	push    eax
0x004059e1	64892500000000	mov     large fs:0, esp
0x004059e8	51	push    ecx
0x004059e9	56	push    esi
0x004059ea	8BF1	mov     esi, ecx
0x004059ec	57	push    edi
0x004059ed	8975F0	mov     [ebp+var_10], esi
0x004059f0	C7064CDA4000	mov     dword ptr [esi], offset ??_7COutputWnd@@6B@; const COutputWnd::`vftable'
0x004059f6	C745FC03000000	mov     [ebp+var_4], 3
0x004059fd	8B3D70AB4000	mov     edi, ds:__imp_??1CListBox@@UAE@XZ; CListBox::~CListBox(void)
0x00405a03	8D8E3C2C0000	lea     ecx, [esi+2C3Ch]
0x00405a09	C701C4D84000	mov     dword ptr [ecx], offset ??_7COutputList@@6B@; const COutputList::`vftable'
0x00405a0f	FFD7	call    edi ; CListBox::~CListBox(void); CListBox::~CListBox(void)
0x00405a11	8D8EC82B0000	lea     ecx, [esi+2BC8h]
0x00405a17	C645FC02	mov     byte ptr [ebp+var_4], 2
0x00405a1b	C701C4D84000	mov     dword ptr [ecx], offset ??_7COutputList@@6B@; const COutputList::`vftable'
0x00405a21	FFD7	call    edi ; CListBox::~CListBox(void); CListBox::~CListBox(void)
0x00405a23	8D8E542B0000	lea     ecx, [esi+2B54h]
0x00405a29	C645FC01	mov     byte ptr [ebp+var_4], 1
0x00405a2d	C701C4D84000	mov     dword ptr [ecx], offset ??_7COutputList@@6B@; const COutputList::`vftable'
0x00405a33	FFD7	call    edi ; CListBox::~CListBox(void); CListBox::~CListBox(void)
0x00405a35	8D8E50030000	lea     ecx, [esi+350h]
0x00405a3b	C645FC00	mov     byte ptr [ebp+var_4], 0
0x00405a3f	FF153CAB4000	call    ds:__imp_??1CMFCTabCtrl@@UAE@XZ; CMFCTabCtrl::~CMFCTabCtrl(void)
0x00405a45	8BCE	mov     ecx, esi
0x00405a47	C745FCFFFFFFFF	mov     [ebp+var_4], 0FFFFFFFFh
0x00405a4e	FF1510A24000	call    ds:__imp_??1CDockablePane@@UAE@XZ; CDockablePane::~CDockablePane(void)
0x00405a54	8B4DF4	mov     ecx, [ebp+var_C]
0x00405a57	5F	pop     edi
0x00405a58	5E	pop     esi
0x00405a59	64890D00000000	mov     large fs:0, ecx
0x00405a60	8BE5	mov     esp, ebp
0x00405a62	5D	pop     ebp
0x00405a63	C3	retn
COutputWnd::_COutputWnd:0x004090a0-0x004090d4
0x004090a0	8B4DF0	mov     ecx, [ebp+var_10]
0x004090a3	FF2510A24000	jmp     ds:__imp_??1CDockablePane@@UAE@XZ; CDockablePane::~CDockablePane(void)
0x004090a9	8B4DF0	mov     ecx, [ebp+var_10]
0x004090ac	81C150030000	add     ecx, 350h
0x004090b2	FF253CAB4000	jmp     ds:__imp_??1CMFCTabCtrl@@UAE@XZ; CMFCTabCtrl::~CMFCTabCtrl(void)
0x004090b8	8B4DF0	mov     ecx, [ebp+var_10]
0x004090bb	81C1542B0000	add     ecx, 2B54h
0x004090c1	E95ACDFFFF	jmp     COutputList___COutputList
0x004090c6	8B4DF0	mov     ecx, [ebp+var_10]
0x004090c9	81C1C82B0000	add     ecx, 2BC8h
0x004090cf	E94CCDFFFF	jmp     COutputList___COutputList
COutputWnd::GetMessageMap:0x00405a70-0x00405a76
0x00405a70	B878D74000	mov     eax, offset off_40D778
0x00405a75	C3	retn
COutputWnd::OnCreate:0x00405a80-0x00405c4c
0x00405a80	55	push    ebp
0x00405a81	8BEC	mov     ebp, esp
0x00405a83	83E4F8	and     esp, 0FFFFFFF8h
0x00405a86	64A100000000	mov     eax, large fs:0
0x00405a8c	6AFF	push    0FFFFFFFFh
0x00405a8e	68C9924000	push    offset COutputWnd__OnCreate_SEH
0x00405a93	50	push    eax
0x00405a94	8B4508	mov     eax, [ebp+arg_0]
0x00405a97	64892500000000	mov     large fs:0, esp
0x00405a9e	83EC18	sub     esp, 18h
0x00405aa1	53	push    ebx
0x00405aa2	56	push    esi
0x00405aa3	57	push    edi
0x00405aa4	50	push    eax
0x00405aa5	8BF9	mov     edi, ecx
0x00405aa7	FF1528A24000	call    ds:__imp_?OnCreate@CDockablePane@@IAEHPAUtagCREATESTRUCTW@@@Z; CDockablePane::OnCreate(tagCREATESTRUCTW *)
0x00405aad	83F8FF	cmp     eax, 0FFFFFFFFh
0x00405ab0	0F847F010000	jz      loc_405C35
0x00405ab6	33F6	xor     esi, esi
0x00405ab8	8D4C2410	lea     ecx, [esp+30h+rc]
0x00405abc	51	push    ecx; lprc
0x00405abd	89742414	mov     [esp+34h+rc.left], esi
0x00405ac1	89742418	mov     [esp+34h+rc.top], esi
0x00405ac5	8974241C	mov     [esp+34h+rc.right], esi
0x00405ac9	89742420	mov     [esp+34h+rc.bottom], esi
0x00405acd	FF1568A14000	call    ds:__imp__SetRectEmpty@4; SetRectEmpty(x)
0x00405ad3	56	push    esi
0x00405ad4	56	push    esi
0x00405ad5	6A01	push    1
0x00405ad7	57	push    edi
0x00405ad8	8D542420	lea     edx, [esp+40h+rc]
0x00405adc	52	push    edx
0x00405add	8D9F50030000	lea     ebx, [edi+350h]
0x00405ae3	6A01	push    1
0x00405ae5	8BCB	mov     ecx, ebx
0x00405ae7	FF1540AB4000	call    ds:__imp_?Create@CMFCTabCtrl@@QAEHW4Style@1@ABUtagRECT@@PAVCWnd@@IW4Location@CMFCBaseTabCtrl@@H@Z; CMFCTabCtrl::Create(CMFCTabCtrl::Style,tagRECT const &,CWnd *,uint,CMFCBaseTabCtrl::Location,int)
0x00405aed	85C0	test    eax, eax
0x00405aef	0F8440010000	jz      loc_405C35
0x00405af5	8B87542B0000	mov     eax, [edi+2B54h]
0x00405afb	8B8068010000	mov     eax, [eax+168h]
0x00405b01	6A02	push    2
0x00405b03	53	push    ebx
0x00405b04	8D8F542B0000	lea     ecx, [edi+2B54h]
0x00405b0a	8D542418	lea     edx, [esp+38h+rc]
0x00405b0e	52	push    edx
0x00405b0f	6800013050	push    50300100h
0x00405b14	FFD0	call    eax
0x00405b16	85C0	test    eax, eax
0x00405b18	0F8417010000	jz      loc_405C35
0x00405b1e	8B97C82B0000	mov     edx, [edi+2BC8h]
0x00405b24	8B9268010000	mov     edx, [edx+168h]
0x00405b2a	6A03	push    3
0x00405b2c	53	push    ebx
0x00405b2d	8D8FC82B0000	lea     ecx, [edi+2BC8h]
0x00405b33	8D442418	lea     eax, [esp+38h+rc]
0x00405b37	50	push    eax
0x00405b38	6800013050	push    50300100h
0x00405b3d	FFD2	call    edx
0x00405b3f	85C0	test    eax, eax
0x00405b41	0F84EE000000	jz      loc_405C35
0x00405b47	8B873C2C0000	mov     eax, [edi+2C3Ch]
0x00405b4d	8B9068010000	mov     edx, [eax+168h]
0x00405b53	6A04	push    4
0x00405b55	53	push    ebx
0x00405b56	8DB73C2C0000	lea     esi, [edi+2C3Ch]
0x00405b5c	8D4C2418	lea     ecx, [esp+38h+rc]
0x00405b60	51	push    ecx
0x00405b61	6800013050	push    50300100h
0x00405b66	8BCE	mov     ecx, esi
0x00405b68	FFD2	call    edx
0x00405b6a	85C0	test    eax, eax
0x00405b6c	0F84C3000000	jz      loc_405C35
0x00405b72	E809020000	call    COutputWnd__UpdateFonts
0x00405b77	8D4C240C	lea     ecx, [esp+30h+var_24]
0x00405b7b	FF15D0A24000	call    ds:__imp_??0?$CStringT@_WV?$StrTraitMFC_DLL@_WV?$ChTraitsCRT@_W@ATL@@@@@ATL@@QAE@XZ; ATL::CStringT<wchar_t,StrTraitMFC_DLL<wchar_t,ATL::ChTraitsCRT<wchar_t>>>::CStringT<wchar_t,StrTraitMFC_DLL<wchar_t,ATL::ChTraitsCRT<wchar_t>>>(void)
0x00405b81	682C010000	push    12Ch
0x00405b86	8D4C2410	lea     ecx, [esp+34h+var_24]
0x00405b8a	C744243000000000	mov     [esp+34h+var_4], 0
0x00405b92	FF15E4A64000	call    ds:__imp_?LoadStringW@?$CStringT@_WV?$StrTraitMFC_DLL@_WV?$ChTraitsCRT@_W@ATL@@@@@ATL@@QAEHI@Z; ATL::CStringT<wchar_t,StrTraitMFC_DLL<wchar_t,ATL::ChTraitsCRT<wchar_t>>>::LoadStringW(uint)
0x00405b98	8B44240C	mov     eax, [esp+30h+var_24]
0x00405b9c	8B13	mov     edx, [ebx]
0x00405b9e	8B9290010000	mov     edx, [edx+190h]
0x00405ba4	6A01	push    1
0x00405ba6	6A00	push    0
0x00405ba8	50	push    eax
0x00405ba9	8D87542B0000	lea     eax, [edi+2B54h]
0x00405baf	50	push    eax
0x00405bb0	8BCB	mov     ecx, ebx
0x00405bb2	FFD2	call    edx
0x00405bb4	682D010000	push    12Dh
0x00405bb9	8D4C2410	lea     ecx, [esp+34h+var_24]
0x00405bbd	FF15E4A64000	call    ds:__imp_?LoadStringW@?$CStringT@_WV?$StrTraitMFC_DLL@_WV?$ChTraitsCRT@_W@ATL@@@@@ATL@@QAEHI@Z; ATL::CStringT<wchar_t,StrTraitMFC_DLL<wchar_t,ATL::ChTraitsCRT<wchar_t>>>::LoadStringW(uint)
0x00405bc3	8B44240C	mov     eax, [esp+30h+var_24]
0x00405bc7	8B13	mov     edx, [ebx]
0x00405bc9	8B9290010000	mov     edx, [edx+190h]
0x00405bcf	6A01	push    1
0x00405bd1	6A01	push    1
0x00405bd3	50	push    eax
0x00405bd4	8D87C82B0000	lea     eax, [edi+2BC8h]
0x00405bda	50	push    eax
0x00405bdb	8BCB	mov     ecx, ebx
0x00405bdd	FFD2	call    edx
0x00405bdf	682E010000	push    12Eh
0x00405be4	8D4C2410	lea     ecx, [esp+34h+var_24]
0x00405be8	FF15E4A64000	call    ds:__imp_?LoadStringW@?$CStringT@_WV?$StrTraitMFC_DLL@_WV?$ChTraitsCRT@_W@ATL@@@@@ATL@@QAEHI@Z; ATL::CStringT<wchar_t,StrTraitMFC_DLL<wchar_t,ATL::ChTraitsCRT<wchar_t>>>::LoadStringW(uint)
0x00405bee	8B4C240C	mov     ecx, [esp+30h+var_24]
0x00405bf2	8B03	mov     eax, [ebx]
0x00405bf4	8B9090010000	mov     edx, [eax+190h]
0x00405bfa	6A01	push    1
0x00405bfc	6A02	push    2
0x00405bfe	51	push    ecx
0x00405bff	56	push    esi
0x00405c00	8BCB	mov     ecx, ebx
0x00405c02	FFD2	call    edx
0x00405c04	8BF7	mov     esi, edi
0x00405c06	E885000000	call    COutputWnd__FillBuildWindow
0x00405c0b	E8D0000000	call    COutputWnd__FillDebugWindow
0x00405c10	E81B010000	call    COutputWnd__FillFindWindow
0x00405c15	8D4C240C	lea     ecx, [esp+30h+var_24]
0x00405c19	FF15CCA24000	call    ds:__imp_??1?$CStringT@_WV?$StrTraitMFC_DLL@_WV?$ChTraitsCRT@_W@ATL@@@@@ATL@@QAE@XZ; ATL::CStringT<wchar_t,StrTraitMFC_DLL<wchar_t,ATL::ChTraitsCRT<wchar_t>>>::~CStringT<wchar_t,StrTraitMFC_DLL<wchar_t,ATL::ChTraitsCRT<wchar_t>>>(void)
0x00405c1f	33C0	xor     eax, eax
0x00405c21	8B4C2424	mov     ecx, [esp+30h+var_C]
0x00405c25	64890D00000000	mov     large fs:0, ecx
0x00405c2c	5F	pop     edi
0x00405c2d	5E	pop     esi
0x00405c2e	5B	pop     ebx
0x00405c2f	8BE5	mov     esp, ebp
0x00405c31	5D	pop     ebp
0x00405c32	C20400	retn    4
0x00405c35	8B4C2424	mov     ecx, [esp+30h+var_C]
0x00405c39	5F	pop     edi
0x00405c3a	5E	pop     esi
0x00405c3b	83C8FF	or      eax, 0FFFFFFFFh
0x00405c3e	64890D00000000	mov     large fs:0, ecx
0x00405c45	5B	pop     ebx
0x00405c46	8BE5	mov     esp, ebp
0x00405c48	5D	pop     ebp
0x00405c49	C20400	retn    4
COutputWnd::OnCreate:0x004092c0-0x004092c9
0x004092c0	8D4DDC	lea     ecx, [ebp+var_24]
0x004092c3	FF25CCA24000	jmp     ds:__imp_??1?$CStringT@_WV?$StrTraitMFC_DLL@_WV?$ChTraitsCRT@_W@ATL@@@@@ATL@@QAE@XZ; ATL::CStringT<wchar_t,StrTraitMFC_DLL<wchar_t,ATL::ChTraitsCRT<wchar_t>>>::~CStringT<wchar_t,StrTraitMFC_DLL<wchar_t,ATL::ChTraitsCRT<wchar_t>>>(void)
COutputWnd::OnSize:0x00405c50-0x00405c87
0x00405c50	55	push    ebp
0x00405c51	8BEC	mov     ebp, esp
0x00405c53	8B4508	mov     eax, [ebp+arg_0]
0x00405c56	53	push    ebx
0x00405c57	8B5D0C	mov     ebx, [ebp+arg_4]
0x00405c5a	56	push    esi
0x00405c5b	57	push    edi
0x00405c5c	8B7D10	mov     edi, [ebp+arg_8]
0x00405c5f	57	push    edi
0x00405c60	53	push    ebx
0x00405c61	50	push    eax
0x00405c62	8BF1	mov     esi, ecx
0x00405c64	FF156CA24000	call    ds:__imp_?OnSize@CBasePane@@IAEXIHH@Z; CBasePane::OnSize(uint,int,int)
0x00405c6a	6A16	push    16h
0x00405c6c	57	push    edi
0x00405c6d	53	push    ebx
0x00405c6e	6AFF	push    0FFFFFFFFh
0x00405c70	6AFF	push    0FFFFFFFFh
0x00405c72	6A00	push    0
0x00405c74	8D8E50030000	lea     ecx, [esi+350h]
0x00405c7a	FF15A0A24000	call    ds:__imp_?SetWindowPos@CWnd@@QAEHPBV1@HHHHI@Z; CWnd::SetWindowPos(CWnd const *,int,int,int,int,uint)
0x00405c80	5F	pop     edi
0x00405c81	5E	pop     esi
0x00405c82	5B	pop     ebx
0x00405c83	5D	pop     ebp
0x00405c84	C20C00	retn    0Ch
COutputWnd::FillBuildWindow:0x00405c90-0x00405cd8
0x00405c90	8B86742B0000	mov     eax, [esi+2B74h]
0x00405c96	57	push    edi
0x00405c97	8B3D5CA14000	mov     edi, ds:__imp__SendMessageW@16; SendMessageW(x,x,x,x)
0x00405c9d	6880D74000	push    offset unk_40D780; lParam
0x00405ca2	6A00	push    0; wParam
0x00405ca4	6880010000	push    180h; Msg
0x00405ca9	50	push    eax; hWnd
0x00405caa	FFD7	call    edi ; SendMessageW(x,x,x,x); SendMessageW(x,x,x,x)
0x00405cac	8B8E742B0000	mov     ecx, [esi+2B74h]
0x00405cb2	6898D74000	push    offset unk_40D798; lParam
0x00405cb7	6A00	push    0; wParam
0x00405cb9	6880010000	push    180h; Msg
0x00405cbe	51	push    ecx; hWnd
0x00405cbf	FFD7	call    edi ; SendMessageW(x,x,x,x); SendMessageW(x,x,x,x)
0x00405cc1	8B96742B0000	mov     edx, [esi+2B74h]
0x00405cc7	68B4D74000	push    offset unk_40D7B4; lParam
0x00405ccc	6A00	push    0; wParam
0x00405cce	6880010000	push    180h; Msg
0x00405cd3	52	push    edx; hWnd
0x00405cd4	FFD7	call    edi ; SendMessageW(x,x,x,x); SendMessageW(x,x,x,x)
0x00405cd6	5F	pop     edi
0x00405cd7	C3	retn
COutputWnd::FillDebugWindow:0x00405ce0-0x00405d28
0x00405ce0	8B86E82B0000	mov     eax, [esi+2BE8h]
0x00405ce6	57	push    edi
0x00405ce7	8B3D5CA14000	mov     edi, ds:__imp__SendMessageW@16; SendMessageW(x,x,x,x)
0x00405ced	68DCD74000	push    offset unk_40D7DC; lParam
0x00405cf2	6A00	push    0; wParam
0x00405cf4	6880010000	push    180h; Msg
0x00405cf9	50	push    eax; hWnd
0x00405cfa	FFD7	call    edi ; SendMessageW(x,x,x,x); SendMessageW(x,x,x,x)
0x00405cfc	8B8EE82B0000	mov     ecx, [esi+2BE8h]
0x00405d02	6898D74000	push    offset unk_40D798; lParam
0x00405d07	6A00	push    0; wParam
0x00405d09	6880010000	push    180h; Msg
0x00405d0e	51	push    ecx; hWnd
0x00405d0f	FFD7	call    edi ; SendMessageW(x,x,x,x); SendMessageW(x,x,x,x)
0x00405d11	8B96E82B0000	mov     edx, [esi+2BE8h]
0x00405d17	68B4D74000	push    offset unk_40D7B4; lParam
0x00405d1c	6A00	push    0; wParam
0x00405d1e	6880010000	push    180h; Msg
0x00405d23	52	push    edx; hWnd
0x00405d24	FFD7	call    edi ; SendMessageW(x,x,x,x); SendMessageW(x,x,x,x)
0x00405d26	5F	pop     edi
0x00405d27	C3	retn
COutputWnd::FillFindWindow:0x00405d30-0x00405d78
0x00405d30	8B865C2C0000	mov     eax, [esi+2C5Ch]
0x00405d36	57	push    edi
0x00405d37	8B3D5CA14000	mov     edi, ds:__imp__SendMessageW@16; SendMessageW(x,x,x,x)
0x00405d3d	68F4D74000	push    offset unk_40D7F4; lParam
0x00405d42	6A00	push    0; wParam
0x00405d44	6880010000	push    180h; Msg
0x00405d49	50	push    eax; hWnd
0x00405d4a	FFD7	call    edi ; SendMessageW(x,x,x,x); SendMessageW(x,x,x,x)
0x00405d4c	8B8E5C2C0000	mov     ecx, [esi+2C5Ch]
0x00405d52	6898D74000	push    offset unk_40D798; lParam
0x00405d57	6A00	push    0; wParam
0x00405d59	6880010000	push    180h; Msg
0x00405d5e	51	push    ecx; hWnd
0x00405d5f	FFD7	call    edi ; SendMessageW(x,x,x,x); SendMessageW(x,x,x,x)
0x00405d61	8B965C2C0000	mov     edx, [esi+2C5Ch]
0x00405d67	68B4D74000	push    offset unk_40D7B4; lParam
0x00405d6c	6A00	push    0; wParam
0x00405d6e	6880010000	push    180h; Msg
0x00405d73	52	push    edx; hWnd
0x00405d74	FFD7	call    edi ; SendMessageW(x,x,x,x); SendMessageW(x,x,x,x)
0x00405d76	5F	pop     edi
0x00405d77	C3	retn
COutputWnd::UpdateFonts:0x00405d80-0x00405df0
0x00405d80	A1B0A44000	mov     eax, ds:__imp_?afxGlobalData@@3UAFX_GLOBAL_DATA@@A; AFX_GLOBAL_DATA afxGlobalData
0x00405d85	0514010000	add     eax, 114h
0x00405d8a	7403	jz      short loc_405D8F
0x00405d8c	8B4004	mov     eax, [eax+4]
0x00405d8f	56	push    esi
0x00405d90	8B355CA14000	mov     esi, ds:__imp__SendMessageW@16; SendMessageW(x,x,x,x)
0x00405d96	6A01	push    1; lParam
0x00405d98	50	push    eax; wParam
0x00405d99	8B87742B0000	mov     eax, [edi+2B74h]
0x00405d9f	6A30	push    30h; Msg
0x00405da1	50	push    eax; hWnd
0x00405da2	FFD6	call    esi ; SendMessageW(x,x,x,x); SendMessageW(x,x,x,x)
0x00405da4	A1B0A44000	mov     eax, ds:__imp_?afxGlobalData@@3UAFX_GLOBAL_DATA@@A; AFX_GLOBAL_DATA afxGlobalData
0x00405da9	0514010000	add     eax, 114h
0x00405dae	7403	jz      short loc_405DB3
0x00405db0	8B4004	mov     eax, [eax+4]
0x00405db3	8B8FE82B0000	mov     ecx, [edi+2BE8h]
0x00405db9	6A01	push    1; lParam
0x00405dbb	50	push    eax; wParam
0x00405dbc	6A30	push    30h; Msg
0x00405dbe	51	push    ecx; hWnd
0x00405dbf	FFD6	call    esi ; SendMessageW(x,x,x,x); SendMessageW(x,x,x,x)
0x00405dc1	A1B0A44000	mov     eax, ds:__imp_?afxGlobalData@@3UAFX_GLOBAL_DATA@@A; AFX_GLOBAL_DATA afxGlobalData
0x00405dc6	0514010000	add     eax, 114h
0x00405dcb	7510	jnz     short loc_405DDD
0x00405dcd	8B975C2C0000	mov     edx, [edi+2C5Ch]
0x00405dd3	6A01	push    1; lParam
0x00405dd5	50	push    eax; wParam
0x00405dd6	6A30	push    30h; Msg
0x00405dd8	52	push    edx; hWnd
0x00405dd9	FFD6	call    esi ; SendMessageW(x,x,x,x); SendMessageW(x,x,x,x)
0x00405ddb	5E	pop     esi
0x00405ddc	C3	retn
0x00405ddd	8B4004	mov     eax, [eax+4]
0x00405de0	8B975C2C0000	mov     edx, [edi+2C5Ch]
0x00405de6	6A01	push    1; lParam
0x00405de8	50	push    eax; wParam
0x00405de9	6A30	push    30h; Msg
0x00405deb	52	push    edx; hWnd
0x00405dec	FFD6	call    esi ; SendMessageW(x,x,x,x); SendMessageW(x,x,x,x)
0x00405dee	5E	pop     esi
0x00405def	C3	retn
COutputList::_scalar_deleting_destructor_:0x00405df0-0x00405e19
0x00405df0	55	push    ebp
0x00405df1	8BEC	mov     ebp, esp
0x00405df3	56	push    esi
0x00405df4	8BF1	mov     esi, ecx
0x00405df6	C706C4D84000	mov     dword ptr [esi], offset ??_7COutputList@@6B@; const COutputList::`vftable'
0x00405dfc	FF1570AB4000	call    ds:__imp_??1CListBox@@UAE@XZ; CListBox::~CListBox(void)
0x00405e02	F6450801	test    [ebp+arg_0], 1
0x00405e06	740A	jz      short loc_405E12
0x00405e08	56	push    esi
0x00405e09	FF15CCAD4000	call    ds:__imp_??3@YAXPAX@Z; operator delete(void *)
0x00405e0f	83C404	add     esp, 4
0x00405e12	8BC6	mov     eax, esi
0x00405e14	5E	pop     esi
0x00405e15	5D	pop     ebp
0x00405e16	C20400	retn    4
COutputList::_COutputList:0x00405e20-0x00405e2c
0x00405e20	C701C4D84000	mov     dword ptr [ecx], offset ??_7COutputList@@6B@; const COutputList::`vftable'
0x00405e26	FF2570AB4000	jmp     ds:__imp_??1CListBox@@UAE@XZ; CListBox::~CListBox(void)
COutputList::GetMessageMap:0x00405e30-0x00405e36
0x00405e30	B8A0D84000	mov     eax, offset off_40D8A0
0x00405e35	C3	retn
COutputList::OnContextMenu:0x00405e40-0x00405f7b
0x00405e40	55	push    ebp
0x00405e41	8BEC	mov     ebp, esp
0x00405e43	6AFF	push    0FFFFFFFFh
0x00405e45	6850994000	push    offset COutputList__OnContextMenu_SEH
0x00405e4a	64A100000000	mov     eax, large fs:0
0x00405e50	50	push    eax
0x00405e51	64892500000000	mov     large fs:0, esp
0x00405e58	83EC0C	sub     esp, 0Ch
0x00405e5b	53	push    ebx
0x00405e5c	56	push    esi
0x00405e5d	33F6	xor     esi, esi
0x00405e5f	57	push    edi; lpMenuName
0x00405e60	8BF9	mov     edi, ecx
0x00405e62	C745E85CBF4000	mov     [ebp+var_18], offset ??_7CMenu@@6B@; const CMenu::`vftable'
0x00405e69	8975EC	mov     [ebp+hMenu], esi
0x00405e6c	68B6000000	push    0B6h
0x00405e71	6A04	push    4
0x00405e73	68B6000000	push    0B6h
0x00405e78	8975FC	mov     [ebp+var_4], esi
0x00405e7b	FF1548A24000	call    ds:__imp_?AfxFindResourceHandle@@YGPAUHINSTANCE__@@PB_W0@Z; AfxFindResourceHandle(wchar_t const *,wchar_t const *)
0x00405e81	50	push    eax; hInstance
0x00405e82	FF1564A14000	call    ds:__imp__LoadMenuW@8; LoadMenuW(x,x)
0x00405e88	50	push    eax
0x00405e89	8D4DE8	lea     ecx, [ebp+var_18]
0x00405e8c	FF154CA24000	call    ds:__imp_?Attach@CMenu@@QAEHPAUHMENU__@@@Z; CMenu::Attach(HMENU__ *)
0x00405e92	8B45EC	mov     eax, [ebp+hMenu]
0x00405e95	56	push    esi; nPos
0x00405e96	50	push    eax; hMenu
0x00405e97	FF1560A14000	call    ds:__imp__GetSubMenu@8; GetSubMenu(x,x)
0x00405e9d	50	push    eax
0x00405e9e	FF1554A24000	call    ds:__imp_?FromHandle@CMenu@@SGPAV1@PAUHMENU__@@@Z; CMenu::FromHandle(HMENU__ *)
0x00405ea4	8BD8	mov     ebx, eax
0x00405ea6	FF1588A24000	call    ds:__imp_?AfxGetThread@@YGPAVCWinThread@@XZ; AfxGetThread(void)
0x00405eac	3BC6	cmp     eax, esi
0x00405eae	740B	jz      short loc_405EBB
0x00405eb0	8B10	mov     edx, [eax]
0x00405eb2	8BC8	mov     ecx, eax
0x00405eb4	8B427C	mov     eax, [edx+7Ch]
0x00405eb7	FFD0	call    eax
0x00405eb9	8BF0	mov     esi, eax
0x00405ebb	FF158CA24000	call    ds:__imp_?GetThisClass@CMDIFrameWndEx@@SGPAUCRuntimeClass@@XZ; CMDIFrameWndEx::GetThisClass(void)
0x00405ec1	50	push    eax
0x00405ec2	8BCE	mov     ecx, esi
0x00405ec4	FF1584A24000	call    ds:__imp_?IsKindOf@CObject@@QBEHPBUCRuntimeClass@@@Z; CObject::IsKindOf(CRuntimeClass const *)
0x00405eca	85C0	test    eax, eax
0x00405ecc	747B	jz      short loc_405F49
0x00405ece	68C4100000	push    10C4h
0x00405ed3	FF15ACAD4000	call    ds:__imp_??2@YAPAXI@Z; operator new(uint)
0x00405ed9	83C404	add     esp, 4
0x00405edc	8945F0	mov     [ebp+var_10], eax
0x00405edf	C645FC01	mov     byte ptr [ebp+var_4], 1
0x00405ee3	85C0	test    eax, eax
0x00405ee5	740C	jz      short loc_405EF3
0x00405ee7	8BC8	mov     ecx, eax
0x00405ee9	FF1590A24000	call    ds:__imp_??0CMFCPopupMenu@@QAE@XZ; CMFCPopupMenu::CMFCPopupMenu(void)
0x00405eef	8BF0	mov     esi, eax
0x00405ef1	EB02	jmp     short loc_405EF5
0x00405ef3	33F6	xor     esi, esi
0x00405ef5	6A01	push    1
0x00405ef7	C645FC00	mov     byte ptr [ebp+var_4], 0
0x00405efb	8B4304	mov     eax, [ebx+4]
0x00405efe	8B4D10	mov     ecx, [ebp+arg_8]
0x00405f01	8B16	mov     edx, [esi]
0x00405f03	8B9210020000	mov     edx, [edx+210h]
0x00405f09	6A00	push    0
0x00405f0b	50	push    eax
0x00405f0c	8B450C	mov     eax, [ebp+arg_4]
0x00405f0f	51	push    ecx
0x00405f10	50	push    eax
0x00405f11	57	push    edi
0x00405f12	8BCE	mov     ecx, esi
0x00405f14	FFD2	call    edx
0x00405f16	85C0	test    eax, eax
0x00405f18	7437	jz      short loc_405F51
0x00405f1a	FF1588A24000	call    ds:__imp_?AfxGetThread@@YGPAVCWinThread@@XZ; AfxGetThread(void)
0x00405f20	85C0	test    eax, eax
0x00405f22	740B	jz      short loc_405F2F
0x00405f24	8B10	mov     edx, [eax]
0x00405f26	8BC8	mov     ecx, eax
0x00405f28	8B427C	mov     eax, [edx+7Ch]
0x00405f2b	FFD0	call    eax
0x00405f2d	EB02	jmp     short loc_405F31
0x00405f2f	33C0	xor     eax, eax
0x00405f31	8B10	mov     edx, [eax]
0x00405f33	8BC8	mov     ecx, eax
0x00405f35	8B82E4010000	mov     eax, [edx+1E4h]
0x00405f3b	56	push    esi
0x00405f3c	FFD0	call    eax
0x00405f3e	6A00	push    0
0x00405f40	57	push    edi
0x00405f41	8BCF	mov     ecx, edi
0x00405f43	FF1594A24000	call    ds:__imp_?UpdateDialogControls@CWnd@@QAEXPAVCCmdTarget@@H@Z; CWnd::UpdateDialogControls(CCmdTarget *,int)
0x00405f49	8BCF	mov     ecx, edi
0x00405f4b	FF1580A24000	call    ds:__imp_?SetFocus@CWnd@@QAEPAV1@XZ; CWnd::SetFocus(void)
0x00405f51	C745FCFFFFFFFF	mov     [ebp+var_4], 0FFFFFFFFh
0x00405f58	8D4DE8	lea     ecx, [ebp+var_18]
0x00405f5b	C745E85CBF4000	mov     [ebp+var_18], offset ??_7CMenu@@6B@; const CMenu::`vftable'
0x00405f62	FF1544A24000	call    ds:__imp_?DestroyMenu@CMenu@@QAEHXZ; CMenu::DestroyMenu(void)
0x00405f68	8B4DF4	mov     ecx, [ebp+var_C]
0x00405f6b	5F	pop     edi
0x00405f6c	5E	pop     esi
0x00405f6d	5B	pop     ebx
0x00405f6e	64890D00000000	mov     large fs:0, ecx
0x00405f75	8BE5	mov     esp, ebp
0x00405f77	5D	pop     ebp
0x00405f78	C20C00	retn    0Ch
COutputList::OnContextMenu:0x00409940-0x00409950
0x00409940	8D4DE8	lea     ecx, [ebp+var_18]
0x00409943	E9C891FFFF	jmp     CMenu___CMenu
0x00409948	8B45F0	mov     eax, [ebp+var_10]
0x0040994b	E9A077FFFF	jmp     CObject__operator_delete
COutputList::OnEditCopy:0x00405f80-0x00405f90
0x00405f80	6A00	push    0
0x00405f82	6A00	push    0
0x00405f84	68A8D84000	push    offset unk_40D8A8
0x00405f89	FF157CAB4000	call    ds:__imp_?MessageBoxW@CWnd@@QAEHPB_W0I@Z; CWnd::MessageBoxW(wchar_t const *,wchar_t const *,uint)
0x00405f8f	C3	retn
COutputList::OnEditClear:0x00405f90-0x00405fa0
0x00405f90	6A00	push    0
0x00405f92	6A00	push    0
0x00405f94	68B4D84000	push    offset unk_40D8B4
0x00405f99	FF157CAB4000	call    ds:__imp_?MessageBoxW@CWnd@@QAEHPB_W0I@Z; CWnd::MessageBoxW(wchar_t const *,wchar_t const *,uint)
0x00405f9f	C3	retn
COutputList::OnViewOutput:0x00405fa0-0x0040601a
0x00405fa0	53	push    ebx
0x00405fa1	56	push    esi
0x00405fa2	8BF1	mov     esi, ecx
0x00405fa4	8B4654	mov     eax, [esi+54h]
0x00405fa7	57	push    edi
0x00405fa8	85C0	test    eax, eax
0x00405faa	750A	jnz     short loc_405FB6
0x00405fac	8B4620	mov     eax, [esi+20h]
0x00405faf	50	push    eax; hWnd
0x00405fb0	FF156CA14000	call    ds:__imp__GetParent@4; GetParent(x)
0x00405fb6	50	push    eax
0x00405fb7	FF15E8A14000	call    ds:__imp_?FromHandle@CWnd@@SGPAV1@PAUHWND__@@@Z; CWnd::FromHandle(HWND__ *)
0x00405fbd	50	push    eax
0x00405fbe	FF156CA54000	call    ds:__imp_?GetThisClass@CDockablePane@@SGPAUCRuntimeClass@@XZ; CDockablePane::GetThisClass(void)
0x00405fc4	8B3D58A24000	mov     edi, ds:__imp_?AfxDynamicDownCast@@YAPAVCObject@@PAUCRuntimeClass@@PAV1@@Z; AfxDynamicDownCast(CRuntimeClass *,CObject *)
0x00405fca	50	push    eax
0x00405fcb	FFD7	call    edi ; AfxDynamicDownCast(CRuntimeClass *,CObject *); AfxDynamicDownCast(CRuntimeClass *,CObject *)
0x00405fcd	83C408	add     esp, 8
0x00405fd0	8BCE	mov     ecx, esi
0x00405fd2	8BD8	mov     ebx, eax
0x00405fd4	FF1580AB4000	call    ds:__imp_?GetTopLevelFrame@CWnd@@QBEPAVCFrameWnd@@XZ; CWnd::GetTopLevelFrame(void)
0x00405fda	50	push    eax
0x00405fdb	FF158CA24000	call    ds:__imp_?GetThisClass@CMDIFrameWndEx@@SGPAUCRuntimeClass@@XZ; CMDIFrameWndEx::GetThisClass(void)
0x00405fe1	50	push    eax
0x00405fe2	FFD7	call    edi ; AfxDynamicDownCast(CRuntimeClass *,CObject *); AfxDynamicDownCast(CRuntimeClass *,CObject *)
0x00405fe4	8BF0	mov     esi, eax
0x00405fe6	83C408	add     esp, 8
0x00405fe9	85F6	test    esi, esi
0x00405feb	7429	jz      short loc_406016
0x00405fed	85DB	test    ebx, ebx
0x00405fef	7425	jz      short loc_406016
0x00405ff1	8BCE	mov     ecx, esi
0x00405ff3	FF1580A24000	call    ds:__imp_?SetFocus@CWnd@@QAEPAV1@XZ; CWnd::SetFocus(void)
0x00405ff9	6A00	push    0
0x00405ffb	6A00	push    0
0x00405ffd	6A00	push    0
0x00405fff	53	push    ebx
0x00406000	8BCE	mov     ecx, esi
0x00406002	FF1584AB4000	call    ds:__imp_?ShowPane@CMDIFrameWndEx@@QAEXPAVCBasePane@@HHH@Z; CMDIFrameWndEx::ShowPane(CBasePane *,int,int,int)
0x00406008	8B16	mov     edx, [esi]
0x0040600a	8B827C010000	mov     eax, [edx+17Ch]
0x00406010	6A01	push    1
0x00406012	8BCE	mov     ecx, esi
0x00406014	FFD0	call    eax
0x00406016	5F	pop     edi
0x00406017	5E	pop     esi
0x00406018	5B	pop     ebx
0x00406019	C3	retn
CWnd::OnWindowPosChanging:0x00406020-0x00406029
0x00406020	FF1574AB4000	call    ds:__imp_?Default@CWnd@@IAEJXZ; CWnd::Default(void)
0x00406026	C20400	retn    4
CPropertiesWnd::CPropertiesWnd:0x00406030-0x004060c8
0x00406030	55	push    ebp
0x00406031	8BEC	mov     ebp, esp
0x00406033	64A100000000	mov     eax, large fs:0
0x00406039	6AFF	push    0FFFFFFFFh
0x0040603b	68B4924000	push    offset CPropertiesWnd__CPropertiesWnd_SEH
0x00406040	50	push    eax
0x00406041	64892500000000	mov     large fs:0, esp
0x00406048	56	push    esi
0x00406049	8B7508	mov     esi, [ebp+arg_0]
0x0040604c	57	push    edi
0x0040604d	8BCE	mov     ecx, esi
0x0040604f	FF150CA24000	call    ds:__imp_??0CDockablePane@@QAE@XZ; CDockablePane::CDockablePane(void)
0x00406055	33C0	xor     eax, eax
0x00406057	8945FC	mov     [ebp+var_4], eax
0x0040605a	C7065CE64000	mov     dword ptr [esi], offset ??_7CPropertiesWnd@@6B@; const CPropertiesWnd::`vftable'
0x00406060	898654030000	mov     [esi+354h], eax
0x00406066	C7865003000010EA4000	mov     dword ptr [esi+350h], offset ??_7CFont@@6B@; const CFont::`vftable'
0x00406070	8D8E58030000	lea     ecx, [esi+358h]
0x00406076	C645FC01	mov     byte ptr [ebp+var_4], 1
0x0040607a	FF156CAB4000	call    ds:__imp_??0CWnd@@QAE@XZ; CWnd::CWnd(void)
0x00406080	C786580300002CEA4000	mov     dword ptr [esi+358h], offset ??_7CComboBox@@6B@; const CComboBox::`vftable'
0x0040608a	8D8ECC030000	lea     ecx, [esi+3CCh]
0x00406090	C645FC02	mov     byte ptr [ebp+var_4], 2
0x00406094	FF151CA24000	call    ds:__imp_??0CMFCToolBar@@QAE@XZ; CMFCToolBar::CMFCToolBar(void)
0x0040609a	C786CC0300001CE24000	mov     dword ptr [esi+3CCh], offset ??_7CPropertiesToolBar@@6B@; const CPropertiesToolBar::`vftable'
0x004060a4	8D8E94100000	lea     ecx, [esi+1094h]
0x004060aa	C645FC03	mov     byte ptr [ebp+var_4], 3
0x004060ae	FF15B0AB4000	call    ds:__imp_??0CMFCPropertyGridCtrl@@QAE@XZ; CMFCPropertyGridCtrl::CMFCPropertyGridCtrl(void)
0x004060b4	8B4DF4	mov     ecx, [ebp+var_C]
0x004060b7	5F	pop     edi
0x004060b8	8BC6	mov     eax, esi
0x004060ba	64890D00000000	mov     large fs:0, ecx
0x004060c1	5E	pop     esi
0x004060c2	8BE5	mov     esp, ebp
0x004060c4	5D	pop     ebp
0x004060c5	C20400	retn    4
CPropertiesWnd::CPropertiesWnd:0x00409280-0x004092b4
0x00409280	8B4D08	mov     ecx, [ebp+arg_0]
0x00409283	FF2510A24000	jmp     ds:__imp_??1CDockablePane@@UAE@XZ; CDockablePane::~CDockablePane(void)
0x00409289	8B4D08	mov     ecx, [ebp+arg_0]
0x0040928c	81C150030000	add     ecx, 350h
0x00409292	E9F9E4FFFF	jmp     CFont___CFont
0x00409297	8B4D08	mov     ecx, [ebp+arg_0]
0x0040929a	81C158030000	add     ecx, 358h
0x004092a0	FF25ACAB4000	jmp     ds:__imp_??1CComboBox@@UAE@XZ; CComboBox::~CComboBox(void)
0x004092a6	8B4D08	mov     ecx, [ebp+arg_0]
0x004092a9	81C1CC030000	add     ecx, 3CCh
0x004092af	E9BCCEFFFF	jmp     CPropertiesToolBar___CPropertiesToolBar
CPropertiesWnd::_scalar_deleting_destructor_:0x004060d0-0x0040616f
0x004060d0	55	push    ebp
0x004060d1	8BEC	mov     ebp, esp
0x004060d3	6AFF	push    0FFFFFFFFh
0x004060d5	6874924000	push    offset CPropertiesWnd___CPropertiesWnd_SEH
0x004060da	64A100000000	mov     eax, large fs:0
0x004060e0	50	push    eax
0x004060e1	64892500000000	mov     large fs:0, esp
0x004060e8	51	push    ecx
0x004060e9	56	push    esi
0x004060ea	8BF1	mov     esi, ecx
0x004060ec	8975F0	mov     [ebp+var_10], esi
0x004060ef	C7065CE64000	mov     dword ptr [esi], offset ??_7CPropertiesWnd@@6B@; const CPropertiesWnd::`vftable'
0x004060f5	8D8E94100000	lea     ecx, [esi+1094h]
0x004060fb	C745FC03000000	mov     [ebp+var_4], 3
0x00406102	FF15B4AB4000	call    ds:__imp_??1CMFCPropertyGridCtrl@@UAE@XZ; CMFCPropertyGridCtrl::~CMFCPropertyGridCtrl(void)
0x00406108	8D8ECC030000	lea     ecx, [esi+3CCh]
0x0040610e	C645FC02	mov     byte ptr [ebp+var_4], 2
0x00406112	FF1520A24000	call    ds:__imp_??1CMFCToolBar@@UAE@XZ; CMFCToolBar::~CMFCToolBar(void)
0x00406118	8D8E58030000	lea     ecx, [esi+358h]
0x0040611e	C645FC01	mov     byte ptr [ebp+var_4], 1
0x00406122	FF15ACAB4000	call    ds:__imp_??1CComboBox@@UAE@XZ; CComboBox::~CComboBox(void)
0x00406128	8D8E50030000	lea     ecx, [esi+350h]
0x0040612e	C645FC00	mov     byte ptr [ebp+var_4], 0
0x00406132	C70110EA4000	mov     dword ptr [ecx], offset ??_7CFont@@6B@; const CFont::`vftable'
0x00406138	E8B3C8FFFF	call    CGdiObject___CGdiObject
0x0040613d	8BCE	mov     ecx, esi
0x0040613f	C745FCFFFFFFFF	mov     [ebp+var_4], 0FFFFFFFFh
0x00406146	FF1510A24000	call    ds:__imp_??1CDockablePane@@UAE@XZ; CDockablePane::~CDockablePane(void)
0x0040614c	F6450801	test    [ebp+arg_0], 1
0x00406150	740A	jz      short loc_40615C
0x00406152	56	push    esi
0x00406153	FF15CCAD4000	call    ds:__imp_??3@YAXPAX@Z; operator delete(void *)
0x00406159	83C404	add     esp, 4
0x0040615c	8B4DF4	mov     ecx, [ebp+var_C]
0x0040615f	8BC6	mov     eax, esi
0x00406161	5E	pop     esi
0x00406162	64890D00000000	mov     large fs:0, ecx
0x00406169	8BE5	mov     esp, ebp
0x0040616b	5D	pop     ebp
0x0040616c	C20400	retn    4
CPropertiesWnd::_scalar_deleting_destructor_:0x00409240-0x00409274
0x00409240	8B4DF0	mov     ecx, [ebp+var_10]
0x00409243	FF2510A24000	jmp     ds:__imp_??1CDockablePane@@UAE@XZ; CDockablePane::~CDockablePane(void)
0x00409249	8B4DF0	mov     ecx, [ebp+var_10]
0x0040924c	81C150030000	add     ecx, 350h
0x00409252	E939E5FFFF	jmp     CFont___CFont
0x00409257	8B4DF0	mov     ecx, [ebp+var_10]
0x0040925a	81C158030000	add     ecx, 358h
0x00409260	FF25ACAB4000	jmp     ds:__imp_??1CComboBox@@UAE@XZ; CComboBox::~CComboBox(void)
0x00409266	8B4DF0	mov     ecx, [ebp+var_10]
0x00409269	81C1CC030000	add     ecx, 3CCh
0x0040926f	E9FCCEFFFF	jmp     CPropertiesToolBar___CPropertiesToolBar
CPropertiesToolBar::_CPropertiesToolBar:0x00406170-0x00406176
0x00406170	FF2520A24000	jmp     ds:__imp_??1CMFCToolBar@@UAE@XZ; CMFCToolBar::~CMFCToolBar(void)
CFileViewToolBar::_scalar_deleting_destructor_:0x00406180-0x004061a3
0x00406180	55	push    ebp
0x00406181	8BEC	mov     ebp, esp
0x00406183	56	push    esi
0x00406184	8BF1	mov     esi, ecx
0x00406186	FF1520A24000	call    ds:__imp_??1CMFCToolBar@@UAE@XZ; CMFCToolBar::~CMFCToolBar(void)
0x0040618c	F6450801	test    [ebp+arg_0], 1
0x00406190	740A	jz      short loc_40619C
0x00406192	56	push    esi
0x00406193	FF15CCAD4000	call    ds:__imp_??3@YAXPAX@Z; operator delete(void *)
0x00406199	83C404	add     esp, 4
0x0040619c	8BC6	mov     eax, esi
0x0040619e	5E	pop     esi
0x0040619f	5D	pop     ebp
0x004061a0	C20400	retn    4
CPropertiesWnd::_CPropertiesWnd:0x004061b0-0x0040623b
0x004061b0	55	push    ebp
0x004061b1	8BEC	mov     ebp, esp
0x004061b3	6AFF	push    0FFFFFFFFh
0x004061b5	6874924000	push    offset CPropertiesWnd___CPropertiesWnd_SEH
0x004061ba	64A100000000	mov     eax, large fs:0
0x004061c0	50	push    eax
0x004061c1	64892500000000	mov     large fs:0, esp
0x004061c8	51	push    ecx
0x004061c9	56	push    esi
0x004061ca	8BF1	mov     esi, ecx
0x004061cc	8975F0	mov     [ebp+var_10], esi
0x004061cf	C7065CE64000	mov     dword ptr [esi], offset ??_7CPropertiesWnd@@6B@; const CPropertiesWnd::`vftable'
0x004061d5	8D8E94100000	lea     ecx, [esi+1094h]
0x004061db	C745FC03000000	mov     [ebp+var_4], 3
0x004061e2	FF15B4AB4000	call    ds:__imp_??1CMFCPropertyGridCtrl@@UAE@XZ; CMFCPropertyGridCtrl::~CMFCPropertyGridCtrl(void)
0x004061e8	8D8ECC030000	lea     ecx, [esi+3CCh]
0x004061ee	C645FC02	mov     byte ptr [ebp+var_4], 2
0x004061f2	FF1520A24000	call    ds:__imp_??1CMFCToolBar@@UAE@XZ; CMFCToolBar::~CMFCToolBar(void)
0x004061f8	8D8E58030000	lea     ecx, [esi+358h]
0x004061fe	C645FC01	mov     byte ptr [ebp+var_4], 1
0x00406202	FF15ACAB4000	call    ds:__imp_??1CComboBox@@UAE@XZ; CComboBox::~CComboBox(void)
0x00406208	8D8E50030000	lea     ecx, [esi+350h]
0x0040620e	C645FC00	mov     byte ptr [ebp+var_4], 0
0x00406212	C70110EA4000	mov     dword ptr [ecx], offset ??_7CFont@@6B@; const CFont::`vftable'
0x00406218	E8D3C7FFFF	call    CGdiObject___CGdiObject
0x0040621d	8BCE	mov     ecx, esi
0x0040621f	C745FCFFFFFFFF	mov     [ebp+var_4], 0FFFFFFFFh
0x00406226	FF1510A24000	call    ds:__imp_??1CDockablePane@@UAE@XZ; CDockablePane::~CDockablePane(void)
0x0040622c	8B4DF4	mov     ecx, [ebp+var_C]
0x0040622f	5E	pop     esi
0x00406230	64890D00000000	mov     large fs:0, ecx
0x00406237	8BE5	mov     esp, ebp
0x00406239	5D	pop     ebp
0x0040623a	C3	retn
CPropertiesWnd::GetMessageMap:0x00406240-0x00406246
0x00406240	B830DF4000	mov     eax, offset off_40DF30
0x00406245	C3	retn
CPropertiesWnd::AdjustLayout:0x00406250-0x00406370
0x00406250	55	push    ebp
0x00406251	8BEC	mov     ebp, esp
0x00406253	83E4F8	and     esp, 0FFFFFFF8h
0x00406256	83EC2C	sub     esp, 2Ch
0x00406259	53	push    ebx
0x0040625a	8BD9	mov     ebx, ecx
0x0040625c	33C0	xor     eax, eax
0x0040625e	56	push    esi
0x0040625f	57	push    edi
0x00406260	3BD8	cmp     ebx, eax
0x00406262	0F8401010000	jz      loc_406369
0x00406268	8B4B20	mov     ecx, [ebx+20h]
0x0040626b	3BC8	cmp     ecx, eax
0x0040626d	0F84F6000000	jz      loc_406369
0x00406273	89442418	mov     [esp+38h+Rect.left], eax
0x00406277	8944241C	mov     [esp+38h+Rect.top], eax
0x0040627b	89442420	mov     [esp+38h+Rect.right], eax
0x0040627f	89442424	mov     [esp+38h+Rect.bottom], eax
0x00406283	89442428	mov     [esp+38h+var_10.left], eax
0x00406287	8944242C	mov     [esp+38h+var_10.top], eax
0x0040628b	89442430	mov     [esp+38h+var_10.right], eax
0x0040628f	89442434	mov     [esp+38h+var_10.bottom], eax
0x00406293	8D442418	lea     eax, [esp+38h+Rect]
0x00406297	50	push    eax; lpRect
0x00406298	51	push    ecx; hWnd
0x00406299	FF1554A14000	call    ds:__imp__GetClientRect@8; GetClientRect(x,x)
0x0040629f	8B9378030000	mov     edx, [ebx+378h]
0x004062a5	8D4C2428	lea     ecx, [esp+38h+var_10]
0x004062a9	51	push    ecx; lpRect
0x004062aa	52	push    edx; hWnd
0x004062ab	FF1548A14000	call    ds:__imp__GetWindowRect@8; GetWindowRect(x,x)
0x004062b1	8B83CC030000	mov     eax, [ebx+3CCh]
0x004062b7	8B742434	mov     esi, [esp+38h+var_10.bottom]
0x004062bb	8B9064020000	mov     edx, [eax+264h]
0x004062c1	2B74242C	sub     esi, [esp+38h+var_10.top]
0x004062c5	6A01	push    1
0x004062c7	6A00	push    0
0x004062c9	8D4C2418	lea     ecx, [esp+40h+var_28]
0x004062cd	51	push    ecx
0x004062ce	8D8BCC030000	lea     ecx, [ebx+3CCh]
0x004062d4	FFD2	call    edx
0x004062d6	8B4004	mov     eax, [eax+4]
0x004062d9	8B4C2420	mov     ecx, [esp+38h+Rect.right]
0x004062dd	8B54241C	mov     edx, [esp+38h+Rect.top]
0x004062e1	6A14	push    14h
0x004062e3	89442414	mov     [esp+3Ch+var_28], eax
0x004062e7	8B44241C	mov     eax, [esp+3Ch+Rect.left]
0x004062eb	68C8000000	push    0C8h
0x004062f0	2BC8	sub     ecx, eax
0x004062f2	51	push    ecx
0x004062f3	52	push    edx
0x004062f4	50	push    eax
0x004062f5	6A00	push    0
0x004062f7	8D8B58030000	lea     ecx, [ebx+358h]
0x004062fd	FF15A0A24000	call    ds:__imp_?SetWindowPos@CWnd@@QAEHPBV1@HHHHI@Z; CWnd::SetWindowPos(CWnd const *,int,int,int,int,uint)
0x00406303	8B442410	mov     eax, [esp+38h+var_28]
0x00406307	8B4C2420	mov     ecx, [esp+38h+Rect.right]
0x0040630b	8B93CC030000	mov     edx, [ebx+3CCh]
0x00406311	8B923C020000	mov     edx, [edx+23Ch]
0x00406317	6A00	push    0
0x00406319	6A14	push    14h
0x0040631b	50	push    eax
0x0040631c	8B442424	mov     eax, [esp+44h+Rect.left]
0x00406320	2BC8	sub     ecx, eax
0x00406322	51	push    ecx
0x00406323	8B4C242C	mov     ecx, [esp+48h+Rect.top]
0x00406327	03CE	add     ecx, esi
0x00406329	51	push    ecx
0x0040632a	50	push    eax
0x0040632b	6A00	push    0
0x0040632d	8D8BCC030000	lea     ecx, [ebx+3CCh]
0x00406333	FFD2	call    edx
0x00406335	8B44241C	mov     eax, [esp+38h+Rect.top]
0x00406339	8B4C2424	mov     ecx, [esp+38h+Rect.bottom]
0x0040633d	8B542410	mov     edx, [esp+38h+var_28]
0x00406341	8B7C2420	mov     edi, [esp+38h+Rect.right]
0x00406345	2BC8	sub     ecx, eax
0x00406347	6A14	push    14h
0x00406349	2BCA	sub     ecx, edx
0x0040634b	2BCE	sub     ecx, esi
0x0040634d	51	push    ecx
0x0040634e	8B4C2420	mov     ecx, [esp+40h+Rect.left]
0x00406352	2BF9	sub     edi, ecx
0x00406354	57	push    edi
0x00406355	03C2	add     eax, edx
0x00406357	03C6	add     eax, esi
0x00406359	50	push    eax
0x0040635a	51	push    ecx
0x0040635b	6A00	push    0
0x0040635d	8D8B94100000	lea     ecx, [ebx+1094h]
0x00406363	FF15A0A24000	call    ds:__imp_?SetWindowPos@CWnd@@QAEHPBV1@HHHHI@Z; CWnd::SetWindowPos(CWnd const *,int,int,int,int,uint)
0x00406369	5F	pop     edi
0x0040636a	5E	pop     esi
0x0040636b	5B	pop     ebx
0x0040636c	8BE5	mov     esp, ebp
0x0040636e	5D	pop     ebp
0x0040636f	C3	retn
CPropertiesWnd::OnCreate:0x00406370-0x00406537
0x00406370	55	push    ebp
0x00406371	8BEC	mov     ebp, esp
0x00406373	83E4F8	and     esp, 0FFFFFFF8h
0x00406376	8B4508	mov     eax, [ebp+arg_0]
0x00406379	83EC14	sub     esp, 14h
0x0040637c	53	push    ebx
0x0040637d	56	push    esi
0x0040637e	57	push    edi
0x0040637f	50	push    eax
0x00406380	8BF9	mov     edi, ecx
0x00406382	FF1528A24000	call    ds:__imp_?OnCreate@CDockablePane@@IAEHPAUtagCREATESTRUCTW@@@Z; CDockablePane::OnCreate(tagCREATESTRUCTW *)
0x00406388	83F8FF	cmp     eax, 0FFFFFFFFh
0x0040638b	750C	jnz     short loc_406399
0x0040638d	83C8FF	or      eax, 0FFFFFFFFh
0x00406390	5F	pop     edi
0x00406391	5E	pop     esi
0x00406392	5B	pop     ebx
0x00406393	8BE5	mov     esp, ebp
0x00406395	5D	pop     ebp
0x00406396	C20400	retn    4
0x00406399	33DB	xor     ebx, ebx
0x0040639b	8D4C2410	lea     ecx, [esp+20h+rc]
0x0040639f	51	push    ecx; lprc
0x004063a0	895C2414	mov     [esp+24h+rc.left], ebx
0x004063a4	895C2418	mov     [esp+24h+rc.top], ebx
0x004063a8	895C241C	mov     [esp+24h+rc.right], ebx
0x004063ac	895C2420	mov     [esp+24h+rc.bottom], ebx
0x004063b0	FF1568A14000	call    ds:__imp__SetRectEmpty@4; SetRectEmpty(x)
0x004063b6	8B9758030000	mov     edx, [edi+358h]
0x004063bc	8B9268010000	mov     edx, [edx+168h]
0x004063c2	6A01	push    1
0x004063c4	57	push    edi
0x004063c5	8D8F58030000	lea     ecx, [edi+358h]
0x004063cb	8D442418	lea     eax, [esp+28h+rc]
0x004063cf	50	push    eax
0x004063d0	6803018056	push    56800103h
0x004063d5	FFD2	call    edx
0x004063d7	85C0	test    eax, eax
0x004063d9	74B2	jz      short loc_40638D
0x004063db	8B8778030000	mov     eax, [edi+378h]
0x004063e1	8B355CA14000	mov     esi, ds:__imp__SendMessageW@16; SendMessageW(x,x,x,x)
0x004063e7	6838DF4000	push    offset unk_40DF38; lParam
0x004063ec	53	push    ebx; wParam
0x004063ed	6843010000	push    143h; Msg
0x004063f2	50	push    eax; hWnd
0x004063f3	FFD6	call    esi ; SendMessageW(x,x,x,x); SendMessageW(x,x,x,x)
0x004063f5	8B8F78030000	mov     ecx, [edi+378h]
0x004063fb	6844DF4000	push    offset unk_40DF44; lParam
0x00406400	53	push    ebx; wParam
0x00406401	6843010000	push    143h; Msg
0x00406406	51	push    ecx; hWnd
0x00406407	FFD6	call    esi ; SendMessageW(x,x,x,x); SendMessageW(x,x,x,x)
0x00406409	8B9778030000	mov     edx, [edi+378h]
0x0040640f	53	push    ebx; lParam
0x00406410	53	push    ebx; wParam
0x00406411	684E010000	push    14Eh; Msg
0x00406416	52	push    edx; hWnd
0x00406417	FFD6	call    esi ; SendMessageW(x,x,x,x); SendMessageW(x,x,x,x)
0x00406419	8B8794100000	mov     eax, [edi+1094h]
0x0040641f	8B807C010000	mov     eax, [eax+17Ch]
0x00406425	6A02	push    2
0x00406427	57	push    edi
0x00406428	8D8F94100000	lea     ecx, [edi+1094h]
0x0040642e	8D542418	lea     edx, [esp+28h+rc]
0x00406432	52	push    edx
0x00406433	6800000050	push    50000000h
0x00406438	FFD0	call    eax
0x0040643a	85C0	test    eax, eax
0x0040643c	0F844BFFFFFF	jz      loc_40638D
0x00406442	8BCF	mov     ecx, edi
0x00406444	E847010000	call    CPropertiesWnd__InitPropList
0x00406449	8B97CC030000	mov     edx, [edi+3CCh]
0x0040644f	8B8228030000	mov     eax, [edx+328h]
0x00406455	68B7000000	push    0B7h
0x0040645a	6808284050	push    50402808h
0x0040645f	57	push    edi
0x00406460	8D8FCC030000	lea     ecx, [edi+3CCh]
0x00406466	FFD0	call    eax
0x00406468	8B97CC030000	mov     edx, [edi+3CCh]
0x0040646e	8B8238030000	mov     eax, [edx+338h]
0x00406474	53	push    ebx
0x00406475	53	push    ebx
0x00406476	53	push    ebx
0x00406477	6A01	push    1
0x00406479	53	push    ebx
0x0040647a	53	push    ebx
0x0040647b	68B7000000	push    0B7h
0x00406480	8D8FCC030000	lea     ecx, [edi+3CCh]
0x00406486	FFD0	call    eax
0x00406488	8D8FCC030000	lea     ecx, [edi+3CCh]
0x0040648e	FF15F0A24000	call    ds:__imp_?CleanUpLockedImages@CMFCToolBar@@QAEXXZ; CMFCToolBar::CleanUpLockedImages(void)
0x00406494	8B97CC030000	mov     edx, [edi+3CCh]
0x0040649a	8B9234030000	mov     edx, [edx+334h]
0x004064a0	33C0	xor     eax, eax
0x004064a2	391D202B4100	cmp     dword_412B20, ebx
0x004064a8	53	push    ebx
0x004064a9	53	push    ebx
0x004064aa	0F95C0	setnz   al
0x004064ad	6A01	push    1
0x004064af	53	push    ebx
0x004064b0	53	push    ebx
0x004064b1	8D8FCC030000	lea     ecx, [edi+3CCh]
0x004064b7	05B7000000	add     eax, 0B7h
0x004064bc	50	push    eax
0x004064bd	FFD2	call    edx
0x004064bf	8B9FCC030000	mov     ebx, [edi+3CCh]
0x004064c5	8B83C4010000	mov     eax, [ebx+1C4h]
0x004064cb	8D8FCC030000	lea     ecx, [edi+3CCh]
0x004064d1	FFD0	call    eax
0x004064d3	8B93E8010000	mov     edx, [ebx+1E8h]
0x004064d9	83C830	or      eax, 30h
0x004064dc	50	push    eax
0x004064dd	8D8FCC030000	lea     ecx, [edi+3CCh]
0x004064e3	FFD2	call    edx
0x004064e5	8B9FCC030000	mov     ebx, [edi+3CCh]
0x004064eb	8B83C4010000	mov     eax, [ebx+1C4h]
0x004064f1	8D8FCC030000	lea     ecx, [edi+3CCh]
0x004064f7	FFD0	call    eax
0x004064f9	8B93E8010000	mov     edx, [ebx+1E8h]
0x004064ff	25FBF0BFFF	and     eax, 0FFBFF0FBh
0x00406504	50	push    eax
0x00406505	8D8FCC030000	lea     ecx, [edi+3CCh]
0x0040650b	FFD2	call    edx
0x0040650d	8B4720	mov     eax, [edi+20h]
0x00406510	8B17	mov     edx, [edi]
0x00406512	898720040000	mov     [edi+420h], eax
0x00406518	8B8210020000	mov     eax, [edx+210h]
0x0040651e	8BCF	mov     ecx, edi
0x00406520	C7870C0F000000000000	mov     dword ptr [edi+0F0Ch], 0
0x0040652a	FFD0	call    eax
0x0040652c	5F	pop     edi
0x0040652d	5E	pop     esi
0x0040652e	33C0	xor     eax, eax
0x00406530	5B	pop     ebx
0x00406531	8BE5	mov     esp, ebp
0x00406533	5D	pop     ebp
0x00406534	C20400	retn    4
CPropertiesWnd::OnExpandAllProperties:0x00406540-0x0040654f
0x00406540	6A01	push    1
0x00406542	81C194100000	add     ecx, 1094h
0x00406548	FF15B8AB4000	call    ds:__imp_?ExpandAll@CMFCPropertyGridCtrl@@QAEXH@Z; CMFCPropertyGridCtrl::ExpandAll(int)
0x0040654e	C3	retn
CPropertiesWnd::OnSortProperties:0x00406550-0x00406569
0x00406550	33C0	xor     eax, eax
0x00406552	398158130000	cmp     [ecx+1358h], eax
0x00406558	0F94C0	setz    al
0x0040655b	81C194100000	add     ecx, 1094h
0x00406561	50	push    eax
0x00406562	FF15BCAB4000	call    ds:__imp_?SetAlphabeticMode@CMFCPropertyGridCtrl@@QAEXH@Z; CMFCPropertyGridCtrl::SetAlphabeticMode(int)
0x00406568	C3	retn
CPropertiesWnd::OnUpdateSortProperties:0x00406570-0x00406588
0x00406570	55	push    ebp
0x00406571	8BEC	mov     ebp, esp
0x00406573	8B8158130000	mov     eax, [ecx+1358h]
0x00406579	8B4D08	mov     ecx, [ebp+arg_0]
0x0040657c	8B11	mov     edx, [ecx]
0x0040657e	8B5204	mov     edx, [edx+4]
0x00406581	50	push    eax
0x00406582	FFD2	call    edx
0x00406584	5D	pop     ebp
0x00406585	C20400	retn    4
CPropertiesWnd::InitPropList:0x00406590-0x0040761d
0x00406590	55	push    ebp
0x00406591	8BEC	mov     ebp, esp
0x00406593	6AFF	push    0FFFFFFFFh
0x00406595	6827994000	push    offset CPropertiesWnd__InitPropList_SEH
0x0040659a	64A100000000	mov     eax, large fs:0
0x004065a0	50	push    eax
0x004065a1	64892500000000	mov     large fs:0, esp
0x004065a8	81ECC8000000	sub     esp, 0C8h
0x004065ae	53	push    ebx
0x004065af	56	push    esi
0x004065b0	33DB	xor     ebx, ebx
0x004065b2	57	push    edi
0x004065b3	895DF0	mov     [ebp+var_10], ebx
0x004065b6	8BF9	mov     edi, ecx
0x004065b8	895DE0	mov     [ebp+var_20], ebx
0x004065bb	E8B0100000	call    CPropertiesWnd__SetPropListFont
0x004065c0	6850DF4000	push    offset aValue; "Value"
0x004065c5	81C794100000	add     edi, 1094h
0x004065cb	685CDF4000	push    offset aProperty; "Property"
0x004065d0	53	push    ebx
0x004065d1	8BCF	mov     ecx, edi
0x004065d3	897DC4	mov     [ebp+var_3C], edi
0x004065d6	FF15C0AB4000	call    ds:__imp_?EnableHeaderCtrl@CMFCPropertyGridCtrl@@QAEXHPB_W0@Z; CMFCPropertyGridCtrl::EnableHeaderCtrl(int,wchar_t const *,wchar_t const *)
0x004065dc	6A01	push    1
0x004065de	8BCF	mov     ecx, edi
0x004065e0	FF15C4AB4000	call    ds:__imp_?EnableDescriptionArea@CMFCPropertyGridCtrl@@QAEXH@Z; CMFCPropertyGridCtrl::EnableDescriptionArea(int)
0x004065e6	6A01	push    1
0x004065e8	8BCF	mov     ecx, edi
0x004065ea	FF1588AB4000	call    ds:__imp_?SetVSDotNetLook@CMFCPropertyGridCtrl@@QAEXH@Z; CMFCPropertyGridCtrl::SetVSDotNetLook(int)
0x004065f0	6A01	push    1
0x004065f2	6A01	push    1
0x004065f4	8BCF	mov     ecx, edi
0x004065f6	FF15C8AB4000	call    ds:__imp_?MarkModifiedProperties@CMFCPropertyGridCtrl@@QAEXHH@Z; CMFCPropertyGridCtrl::MarkModifiedProperties(int,int)
0x004065fc	8B35ACAD4000	mov     esi, ds:__imp_??2@YAPAXI@Z; operator new(uint)
0x00406602	68E4000000	push    0E4h
0x00406607	FFD6	call    esi ; operator new(uint); operator new(uint)
0x00406609	8BF8	mov     edi, eax
0x0040660b	83C404	add     esp, 4
0x0040660e	897DE8	mov     [ebp+var_18], edi
0x00406611	895DFC	mov     [ebp+var_4], ebx
0x00406614	85FF	test    edi, edi
0x00406616	742F	jz      short loc_406647
0x00406618	6870DF4000	push    offset unk_40DF70
0x0040661d	8D4DEC	lea     ecx, [ebp+var_14]
0x00406620	FF15D0AB4000	call    ds:__imp_??0?$CStringT@_WV?$StrTraitMFC_DLL@_WV?$ChTraitsCRT@_W@ATL@@@@@ATL@@QAE@PB_W@Z; ATL::CStringT<wchar_t,StrTraitMFC_DLL<wchar_t,ATL::ChTraitsCRT<wchar_t>>>::CStringT<wchar_t,StrTraitMFC_DLL<wchar_t,ATL::ChTraitsCRT<wchar_t>>>(wchar_t const *)
0x00406626	6A00	push    0
0x00406628	6A00	push    0
0x0040662a	8D45EC	lea     eax, [ebp+var_14]
0x0040662d	C645FC01	mov     byte ptr [ebp+var_4], 1
0x00406631	BB01000000	mov     ebx, 1
0x00406636	50	push    eax
0x00406637	8BCF	mov     ecx, edi
0x00406639	895DF0	mov     [ebp+var_10], ebx
0x0040663c	FF15CCAB4000	call    ds:__imp_??0CMFCPropertyGridProperty@@QAE@ABV?$CStringT@_WV?$StrTraitMFC_DLL@_WV?$ChTraitsCRT@_W@ATL@@@@@ATL@@KH@Z; CMFCPropertyGridProperty::CMFCPropertyGridProperty(ATL::CStringT<wchar_t,StrTraitMFC_DLL<wchar_t,ATL::ChTraitsCRT<wchar_t>>> const &,ulong,int)
0x00406642	8945DC	mov     [ebp+var_24], eax
0x00406645	EB07	jmp     short loc_40664E
0x00406647	C745DC00000000	mov     [ebp+var_24], 0
0x0040664e	C745FCFFFFFFFF	mov     [ebp+var_4], 0FFFFFFFFh
0x00406655	F6C301	test    bl, 1
0x00406658	740F	jz      short loc_406669
0x0040665a	83E3FE	and     ebx, 0FFFFFFFEh
0x0040665d	8D4DEC	lea     ecx, [ebp+var_14]
0x00406660	895DF0	mov     [ebp+var_10], ebx
0x00406663	FF15CCA24000	call    ds:__imp_??1?$CStringT@_WV?$StrTraitMFC_DLL@_WV?$ChTraitsCRT@_W@ATL@@@@@ATL@@QAE@XZ; ATL::CStringT<wchar_t,StrTraitMFC_DLL<wchar_t,ATL::ChTraitsCRT<wchar_t>>>::~CStringT<wchar_t,StrTraitMFC_DLL<wchar_t,ATL::ChTraitsCRT<wchar_t>>>(void)
0x00406669	68E4000000	push    0E4h
0x0040666e	FFD6	call    esi ; operator new(uint); operator new(uint)
0x00406670	8BF8	mov     edi, eax
0x00406672	83C404	add     esp, 4
0x00406675	897DE8	mov     [ebp+var_18], edi
0x00406678	C745FC03000000	mov     [ebp+var_4], 3
0x0040667f	85FF	test    edi, edi
0x00406681	746D	jz      short loc_4066F0
0x00406683	B90B000000	mov     ecx, 0Bh
0x00406688	33D2	xor     edx, edx
0x0040668a	66894DC8	mov     word ptr [ebp+var_38.anonymous_0], cx
0x0040668e	668955D0	mov     word ptr [ebp+var_38.anonymous_0+8], dx
0x00406692	8D45C8	lea     eax, [ebp+var_38]
0x00406695	C645FC04	mov     byte ptr [ebp+var_4], 4
0x00406699	83CB02	or      ebx, 2
0x0040669c	50	push    eax
0x0040669d	8D4DB4	lea     ecx, [ebp+pvarg]
0x004066a0	895DF0	mov     [ebp+var_10], ebx
0x004066a3	FF15DCAB4000	call    ds:__imp_??0COleVariant@@QAE@ABUtagVARIANT@@@Z; COleVariant::COleVariant(tagVARIANT const &)
0x004066a9	C745FC05000000	mov     [ebp+var_4], 5
0x004066b0	83CB04	or      ebx, 4
0x004066b3	68ACDF4000	push    offset unk_40DFAC
0x004066b8	8D4DE4	lea     ecx, [ebp+var_1C]
0x004066bb	895DF0	mov     [ebp+var_10], ebx
0x004066be	FF15D0AB4000	call    ds:__imp_??0?$CStringT@_WV?$StrTraitMFC_DLL@_WV?$ChTraitsCRT@_W@ATL@@@@@ATL@@QAE@PB_W@Z; ATL::CStringT<wchar_t,StrTraitMFC_DLL<wchar_t,ATL::ChTraitsCRT<wchar_t>>>::CStringT<wchar_t,StrTraitMFC_DLL<wchar_t,ATL::ChTraitsCRT<wchar_t>>>(wchar_t const *)
0x004066c4	6A00	push    0
0x004066c6	6A00	push    0
0x004066c8	6A00	push    0
0x004066ca	6A00	push    0
0x004066cc	6878DF4000	push    offset unk_40DF78
0x004066d1	8D4DB4	lea     ecx, [ebp+pvarg]
0x004066d4	51	push    ecx
0x004066d5	8D55E4	lea     edx, [ebp+var_1C]
0x004066d8	83CB08	or      ebx, 8
0x004066db	C745FC06000000	mov     [ebp+var_4], 6
0x004066e2	52	push    edx
0x004066e3	8BCF	mov     ecx, edi
0x004066e5	895DF0	mov     [ebp+var_10], ebx
0x004066e8	FF15D8AB4000	call    ds:__imp_??0CMFCPropertyGridProperty@@QAE@ABV?$CStringT@_WV?$StrTraitMFC_DLL@_WV?$ChTraitsCRT@_W@ATL@@@@@ATL@@ABVCOleVariant@@PB_WK222@Z; CMFCPropertyGridProperty::CMFCPropertyGridProperty(ATL::CStringT<wchar_t,StrTraitMFC_DLL<wchar_t,ATL::ChTraitsCRT<wchar_t>>> const &,COleVariant const &,wchar_t const *,ulong,wchar_t const *,wchar_t const *,wchar_t const *)
0x004066ee	EB02	jmp     short loc_4066F2
0x004066f0	33C0	xor     eax, eax
0x004066f2	C745FC09000000	mov     [ebp+var_4], 9
0x004066f9	8B4DDC	mov     ecx, [ebp+var_24]
0x004066fc	50	push    eax
0x004066fd	FF15D4AB4000	call    ds:__imp_?AddSubItem@CMFCPropertyGridProperty@@QAEHPAV1@@Z; CMFCPropertyGridProperty::AddSubItem(CMFCPropertyGridProperty *)
0x00406703	F6C308	test    bl, 8
0x00406706	740F	jz      short loc_406717
0x00406708	83E3F7	and     ebx, 0FFFFFFF7h
0x0040670b	8D4DE4	lea     ecx, [ebp+var_1C]
0x0040670e	895DF0	mov     [ebp+var_10], ebx
0x00406711	FF15CCA24000	call    ds:__imp_??1?$CStringT@_WV?$StrTraitMFC_DLL@_WV?$ChTraitsCRT@_W@ATL@@@@@ATL@@QAE@XZ; ATL::CStringT<wchar_t,StrTraitMFC_DLL<wchar_t,ATL::ChTraitsCRT<wchar_t>>>::~CStringT<wchar_t,StrTraitMFC_DLL<wchar_t,ATL::ChTraitsCRT<wchar_t>>>(void)
0x00406717	8B3D10A14000	mov     edi, ds:__imp__VariantClear@4; VariantClear(x)
0x0040671d	F6C304	test    bl, 4
0x00406720	740C	jz      short loc_40672E
0x00406722	8D45B4	lea     eax, [ebp+pvarg]
0x00406725	83E3FB	and     ebx, 0FFFFFFFBh
0x00406728	50	push    eax; pvarg
0x00406729	895DF0	mov     [ebp+var_10], ebx
0x0040672c	FFD7	call    edi ; VariantClear(x); VariantClear(x)
0x0040672e	C745FCFFFFFFFF	mov     [ebp+var_4], 0FFFFFFFFh
0x00406735	F6C302	test    bl, 2
0x00406738	740C	jz      short loc_406746
0x0040673a	8D4DC8	lea     ecx, [ebp+var_38]
0x0040673d	83E3FD	and     ebx, 0FFFFFFFDh
0x00406740	51	push    ecx; pvarg
0x00406741	895DF0	mov     [ebp+var_10], ebx
0x00406744	FFD7	call    edi ; VariantClear(x); VariantClear(x)
0x00406746	68E4000000	push    0E4h
0x0040674b	FFD6	call    esi ; operator new(uint); operator new(uint)
0x0040674d	8BF8	mov     edi, eax
0x0040674f	83C404	add     esp, 4
0x00406752	897DE8	mov     [ebp+var_18], edi
0x00406755	C745FC0A000000	mov     [ebp+var_4], 0Ah
0x0040675c	85FF	test    edi, edi
0x0040675e	745A	jz      short loc_4067BA
0x00406760	33D2	xor     edx, edx
0x00406762	68F4DF4000	push    offset unk_40DFF4
0x00406767	8D4DC8	lea     ecx, [ebp+var_38]
0x0040676a	668955C8	mov     word ptr [ebp+var_38.anonymous_0], dx
0x0040676e	FF15E0AB4000	call    ds:__imp_??4COleVariant@@QAEABV0@QB_W@Z; COleVariant::operator=(wchar_t const * const)
0x00406774	C645FC0B	mov     byte ptr [ebp+var_4], 0Bh
0x00406778	83CB10	or      ebx, 10h
0x0040677b	6800E04000	push    offset unk_40E000
0x00406780	8D4DE4	lea     ecx, [ebp+var_1C]
0x00406783	895DF0	mov     [ebp+var_10], ebx
0x00406786	FF15D0AB4000	call    ds:__imp_??0?$CStringT@_WV?$StrTraitMFC_DLL@_WV?$ChTraitsCRT@_W@ATL@@@@@ATL@@QAE@PB_W@Z; ATL::CStringT<wchar_t,StrTraitMFC_DLL<wchar_t,ATL::ChTraitsCRT<wchar_t>>>::CStringT<wchar_t,StrTraitMFC_DLL<wchar_t,ATL::ChTraitsCRT<wchar_t>>>(wchar_t const *)
0x0040678c	6A00	push    0
0x0040678e	6A00	push    0
0x00406790	6A00	push    0
0x00406792	6A00	push    0
0x00406794	68B8DF4000	push    offset aVqNkn; "vQ-NKN"
0x00406799	8D45C8	lea     eax, [ebp+var_38]
0x0040679c	50	push    eax
0x0040679d	8D4DE4	lea     ecx, [ebp+var_1C]
0x004067a0	83CB20	or      ebx, 20h
0x004067a3	51	push    ecx
0x004067a4	C745FC0C000000	mov     [ebp+var_4], 0Ch
0x004067ab	8BCF	mov     ecx, edi
0x004067ad	895DF0	mov     [ebp+var_10], ebx
0x004067b0	FF15D8AB4000	call    ds:__imp_??0CMFCPropertyGridProperty@@QAE@ABV?$CStringT@_WV?$StrTraitMFC_DLL@_WV?$ChTraitsCRT@_W@ATL@@@@@ATL@@ABVCOleVariant@@PB_WK222@Z; CMFCPropertyGridProperty::CMFCPropertyGridProperty(ATL::CStringT<wchar_t,StrTraitMFC_DLL<wchar_t,ATL::ChTraitsCRT<wchar_t>>> const &,COleVariant const &,wchar_t const *,ulong,wchar_t const *,wchar_t const *,wchar_t const *)
0x004067b6	8BF8	mov     edi, eax
0x004067b8	EB02	jmp     short loc_4067BC
0x004067ba	33FF	xor     edi, edi
0x004067bc	F6C320	test    bl, 20h
0x004067bf	740F	jz      short loc_4067D0
0x004067c1	83E3DF	and     ebx, 0FFFFFFDFh
0x004067c4	8D4DE4	lea     ecx, [ebp+var_1C]
0x004067c7	895DF0	mov     [ebp+var_10], ebx
0x004067ca	FF15CCA24000	call    ds:__imp_??1?$CStringT@_WV?$StrTraitMFC_DLL@_WV?$ChTraitsCRT@_W@ATL@@@@@ATL@@QAE@XZ; ATL::CStringT<wchar_t,StrTraitMFC_DLL<wchar_t,ATL::ChTraitsCRT<wchar_t>>>::~CStringT<wchar_t,StrTraitMFC_DLL<wchar_t,ATL::ChTraitsCRT<wchar_t>>>(void)
0x004067d0	C745FCFFFFFFFF	mov     [ebp+var_4], 0FFFFFFFFh
0x004067d7	F6C310	test    bl, 10h
0x004067da	7410	jz      short loc_4067EC
0x004067dc	8D55C8	lea     edx, [ebp+var_38]
0x004067df	83E3EF	and     ebx, 0FFFFFFEFh
0x004067e2	52	push    edx; pvarg
0x004067e3	895DF0	mov     [ebp+var_10], ebx
0x004067e6	FF1510A14000	call    ds:__imp__VariantClear@4; VariantClear(x)
0x004067ec	8B35E4AB4000	mov     esi, ds:__imp_?AddOption@CMFCPropertyGridProperty@@QAEHPB_WH@Z; CMFCPropertyGridProperty::AddOption(wchar_t const *,int)
0x004067f2	6A01	push    1
0x004067f4	6808E04000	push    offset unk_40E008
0x004067f9	8BCF	mov     ecx, edi
0x004067fb	FFD6	call    esi ; CMFCPropertyGridProperty::AddOption(wchar_t const *,int); CMFCPropertyGridProperty::AddOption(wchar_t const *,int)
0x004067fd	6A01	push    1
0x004067ff	680CE04000	push    offset unk_40E00C
0x00406804	8BCF	mov     ecx, edi
0x00406806	FFD6	call    esi ; CMFCPropertyGridProperty::AddOption(wchar_t const *,int); CMFCPropertyGridProperty::AddOption(wchar_t const *,int)
0x00406808	6A01	push    1
0x0040680a	6810E04000	push    offset unk_40E010
0x0040680f	8BCF	mov     ecx, edi
0x00406811	FFD6	call    esi ; CMFCPropertyGridProperty::AddOption(wchar_t const *,int); CMFCPropertyGridProperty::AddOption(wchar_t const *,int)
0x00406813	6A01	push    1
0x00406815	68F4DF4000	push    offset unk_40DFF4
0x0040681a	8BCF	mov     ecx, edi
0x0040681c	FFD6	call    esi ; CMFCPropertyGridProperty::AddOption(wchar_t const *,int); CMFCPropertyGridProperty::AddOption(wchar_t const *,int)
0x0040681e	8B4DDC	mov     ecx, [ebp+var_24]
0x00406821	57	push    edi
0x00406822	C7476400000000	mov     dword ptr [edi+64h], 0
0x00406829	FF15D4AB4000	call    ds:__imp_?AddSubItem@CMFCPropertyGridProperty@@QAEHPAV1@@Z; CMFCPropertyGridProperty::AddSubItem(CMFCPropertyGridProperty *)
0x0040682f	68E4000000	push    0E4h
0x00406834	FF15ACAD4000	call    ds:__imp_??2@YAPAXI@Z; operator new(uint)
0x0040683a	8BF0	mov     esi, eax
0x0040683c	83C404	add     esp, 4
0x0040683f	8975E8	mov     [ebp+var_18], esi
0x00406842	C745FC0F000000	mov     [ebp+var_4], 0Fh
0x00406849	85F6	test    esi, esi
0x0040684b	0F8489000000	jz      loc_4068DA
0x00406851	B808000000	mov     eax, 8
0x00406856	6838E04000	push    offset psz; psz
0x0040685b	668945C8	mov     word ptr [ebp+var_38.anonymous_0], ax
0x0040685f	FF150CA14000	call    ds:__imp__SysAllocString@4; SysAllocString(x)
0x00406865	8945D0	mov     dword ptr [ebp+var_38.anonymous_0+8], eax
0x00406868	85C0	test    eax, eax
0x0040686a	750A	jnz     short loc_406876
0x0040686c	680E000780	push    8007000Eh
0x00406871	E87A260000	call    _com_issue_error
0x00406876	8D4DC8	lea     ecx, [ebp+var_38]
0x00406879	51	push    ecx
0x0040687a	C645FC10	mov     byte ptr [ebp+var_4], 10h
0x0040687e	83CB40	or      ebx, 40h
0x00406881	8D4DB4	lea     ecx, [ebp+pvarg]
0x00406884	895DF0	mov     [ebp+var_10], ebx
0x00406887	FF15DCAB4000	call    ds:__imp_??0COleVariant@@QAE@ABUtagVARIANT@@@Z; COleVariant::COleVariant(tagVARIANT const &)
0x0040688d	C745FC11000000	mov     [ebp+var_4], 11h
0x00406894	81CB80000000	or      ebx, 80h
0x0040689a	6840E04000	push    offset unk_40E040
0x0040689f	8D4DE4	lea     ecx, [ebp+var_1C]
0x004068a2	895DF0	mov     [ebp+var_10], ebx
0x004068a5	FF15D0AB4000	call    ds:__imp_??0?$CStringT@_WV?$StrTraitMFC_DLL@_WV?$ChTraitsCRT@_W@ATL@@@@@ATL@@QAE@PB_W@Z; ATL::CStringT<wchar_t,StrTraitMFC_DLL<wchar_t,ATL::ChTraitsCRT<wchar_t>>>::CStringT<wchar_t,StrTraitMFC_DLL<wchar_t,ATL::ChTraitsCRT<wchar_t>>>(wchar_t const *)
0x004068ab	6A00	push    0
0x004068ad	6A00	push    0
0x004068af	6A00	push    0
0x004068b1	6A00	push    0
0x004068b3	681CE04000	push    offset unk_40E01C
0x004068b8	8D55B4	lea     edx, [ebp+pvarg]
0x004068bb	52	push    edx
0x004068bc	8D45E4	lea     eax, [ebp+var_1C]
0x004068bf	81CB00010000	or      ebx, 100h
0x004068c5	C745FC12000000	mov     [ebp+var_4], 12h
0x004068cc	50	push    eax
0x004068cd	8BCE	mov     ecx, esi
0x004068cf	895DF0	mov     [ebp+var_10], ebx
0x004068d2	FF15D8AB4000	call    ds:__imp_??0CMFCPropertyGridProperty@@QAE@ABV?$CStringT@_WV?$StrTraitMFC_DLL@_WV?$ChTraitsCRT@_W@ATL@@@@@ATL@@ABVCOleVariant@@PB_WK222@Z; CMFCPropertyGridProperty::CMFCPropertyGridProperty(ATL::CStringT<wchar_t,StrTraitMFC_DLL<wchar_t,ATL::ChTraitsCRT<wchar_t>>> const &,COleVariant const &,wchar_t const *,ulong,wchar_t const *,wchar_t const *,wchar_t const *)
0x004068d8	EB02	jmp     short loc_4068DC
0x004068da	33C0	xor     eax, eax
0x004068dc	C745FC15000000	mov     [ebp+var_4], 15h
0x004068e3	8B75DC	mov     esi, [ebp+var_24]
0x004068e6	50	push    eax
0x004068e7	8BCE	mov     ecx, esi
0x004068e9	FF15D4AB4000	call    ds:__imp_?AddSubItem@CMFCPropertyGridProperty@@QAEHPAV1@@Z; CMFCPropertyGridProperty::AddSubItem(CMFCPropertyGridProperty *)
0x004068ef	F7C300010000	test    ebx, 100h
0x004068f5	7412	jz      short loc_406909
0x004068f7	81E3FFFEFFFF	and     ebx, 0FFFFFEFFh
0x004068fd	8D4DE4	lea     ecx, [ebp+var_1C]
0x00406900	895DF0	mov     [ebp+var_10], ebx
0x00406903	FF15CCA24000	call    ds:__imp_??1?$CStringT@_WV?$StrTraitMFC_DLL@_WV?$ChTraitsCRT@_W@ATL@@@@@ATL@@QAE@XZ; ATL::CStringT<wchar_t,StrTraitMFC_DLL<wchar_t,ATL::ChTraitsCRT<wchar_t>>>::~CStringT<wchar_t,StrTraitMFC_DLL<wchar_t,ATL::ChTraitsCRT<wchar_t>>>(void)
0x00406909	84DB	test    bl, bl
0x0040690b	7913	jns     short loc_406920
0x0040690d	8D4DB4	lea     ecx, [ebp+pvarg]
0x00406910	81E37FFFFFFF	and     ebx, 0FFFFFF7Fh
0x00406916	51	push    ecx; pvarg
0x00406917	895DF0	mov     [ebp+var_10], ebx
0x0040691a	FF1510A14000	call    ds:__imp__VariantClear@4; VariantClear(x)
0x00406920	C745FCFFFFFFFF	mov     [ebp+var_4], 0FFFFFFFFh
0x00406927	F6C340	test    bl, 40h
0x0040692a	7410	jz      short loc_40693C
0x0040692c	8D55C8	lea     edx, [ebp+var_38]
0x0040692f	83E3BF	and     ebx, 0FFFFFFBFh
0x00406932	52	push    edx; pvarg
0x00406933	895DF0	mov     [ebp+var_10], ebx
0x00406936	FF1510A14000	call    ds:__imp__VariantClear@4; VariantClear(x)
0x0040693c	8B4DC4	mov     ecx, [ebp+var_3C]
0x0040693f	6A01	push    1
0x00406941	6A01	push    1
0x00406943	56	push    esi
0x00406944	FF15E8AB4000	call    ds:__imp_?AddProperty@CMFCPropertyGridCtrl@@QAEHPAVCMFCPropertyGridProperty@@HH@Z; CMFCPropertyGridCtrl::AddProperty(CMFCPropertyGridProperty *,int,int)
0x0040694a	68E4000000	push    0E4h
0x0040694f	FF15ACAD4000	call    ds:__imp_??2@YAPAXI@Z; operator new(uint)
0x00406955	8BF0	mov     esi, eax
0x00406957	83C404	add     esp, 4
0x0040695a	8975E8	mov     [ebp+var_18], esi
0x0040695d	C745FC16000000	mov     [ebp+var_4], 16h
0x00406964	85F6	test    esi, esi
0x00406966	742F	jz      short loc_406997
0x00406968	6848E04000	push    offset unk_40E048
0x0040696d	8D4DE4	lea     ecx, [ebp+var_1C]
0x00406970	FF15D0AB4000	call    ds:__imp_??0?$CStringT@_WV?$StrTraitMFC_DLL@_WV?$ChTraitsCRT@_W@ATL@@@@@ATL@@QAE@PB_W@Z; ATL::CStringT<wchar_t,StrTraitMFC_DLL<wchar_t,ATL::ChTraitsCRT<wchar_t>>>::CStringT<wchar_t,StrTraitMFC_DLL<wchar_t,ATL::ChTraitsCRT<wchar_t>>>(wchar_t const *)
0x00406976	6A01	push    1
0x00406978	6A00	push    0
0x0040697a	8D45E4	lea     eax, [ebp+var_1C]
0x0040697d	81CB00020000	or      ebx, 200h
0x00406983	C645FC17	mov     byte ptr [ebp+var_4], 17h
0x00406987	50	push    eax
0x00406988	8BCE	mov     ecx, esi
0x0040698a	895DF0	mov     [ebp+var_10], ebx
0x0040698d	FF15CCAB4000	call    ds:__imp_??0CMFCPropertyGridProperty@@QAE@ABV?$CStringT@_WV?$StrTraitMFC_DLL@_WV?$ChTraitsCRT@_W@ATL@@@@@ATL@@KH@Z; CMFCPropertyGridProperty::CMFCPropertyGridProperty(ATL::CStringT<wchar_t,StrTraitMFC_DLL<wchar_t,ATL::ChTraitsCRT<wchar_t>>> const &,ulong,int)
0x00406993	8BF8	mov     edi, eax
0x00406995	EB02	jmp     short loc_406999
0x00406997	33FF	xor     edi, edi
0x00406999	C745FCFFFFFFFF	mov     [ebp+var_4], 0FFFFFFFFh
0x004069a0	F7C300020000	test    ebx, 200h
0x004069a6	7412	jz      short loc_4069BA
0x004069a8	81E3FFFDFFFF	and     ebx, 0FFFFFDFFh
0x004069ae	8D4DE4	lea     ecx, [ebp+var_1C]
0x004069b1	895DF0	mov     [ebp+var_10], ebx
0x004069b4	FF15CCA24000	call    ds:__imp_??1?$CStringT@_WV?$StrTraitMFC_DLL@_WV?$ChTraitsCRT@_W@ATL@@@@@ATL@@QAE@XZ; ATL::CStringT<wchar_t,StrTraitMFC_DLL<wchar_t,ATL::ChTraitsCRT<wchar_t>>>::~CStringT<wchar_t,StrTraitMFC_DLL<wchar_t,ATL::ChTraitsCRT<wchar_t>>>(void)
0x004069ba	68E4000000	push    0E4h
0x004069bf	FF15ACAD4000	call    ds:__imp_??2@YAPAXI@Z; operator new(uint)
0x004069c5	8BF0	mov     esi, eax
0x004069c7	83C404	add     esp, 4
0x004069ca	8975E8	mov     [ebp+var_18], esi
0x004069cd	C745FC19000000	mov     [ebp+var_4], 19h
0x004069d4	85F6	test    esi, esi
0x004069d6	7479	jz      short loc_406A51
0x004069d8	B903000000	mov     ecx, 3
0x004069dd	66894DC8	mov     word ptr [ebp+var_38.anonymous_0], cx
0x004069e1	C745D0FA000000	mov     dword ptr [ebp+var_38.anonymous_0+8], 0FAh
0x004069e8	8D55C8	lea     edx, [ebp+var_38]
0x004069eb	C645FC1A	mov     byte ptr [ebp+var_4], 1Ah
0x004069ef	81CB00040000	or      ebx, 400h
0x004069f5	52	push    edx
0x004069f6	8D4DB4	lea     ecx, [ebp+pvarg]
0x004069f9	895DF0	mov     [ebp+var_10], ebx
0x004069fc	FF15DCAB4000	call    ds:__imp_??0COleVariant@@QAE@ABUtagVARIANT@@@Z; COleVariant::COleVariant(tagVARIANT const &)
0x00406a02	C745FC1B000000	mov     [ebp+var_4], 1Bh
0x00406a09	81CB00080000	or      ebx, 800h
0x00406a0f	6864E04000	push    offset unk_40E064
0x00406a14	8D4DEC	lea     ecx, [ebp+var_14]
0x00406a17	895DF0	mov     [ebp+var_10], ebx
0x00406a1a	FF15D0AB4000	call    ds:__imp_??0?$CStringT@_WV?$StrTraitMFC_DLL@_WV?$ChTraitsCRT@_W@ATL@@@@@ATL@@QAE@PB_W@Z; ATL::CStringT<wchar_t,StrTraitMFC_DLL<wchar_t,ATL::ChTraitsCRT<wchar_t>>>::CStringT<wchar_t,StrTraitMFC_DLL<wchar_t,ATL::ChTraitsCRT<wchar_t>>>(wchar_t const *)
0x00406a20	6A00	push    0
0x00406a22	6A00	push    0
0x00406a24	6A00	push    0
0x00406a26	6A00	push    0
0x00406a28	6854E04000	push    offset unk_40E054
0x00406a2d	8D45B4	lea     eax, [ebp+pvarg]
0x00406a30	50	push    eax
0x00406a31	8D4DEC	lea     ecx, [ebp+var_14]
0x00406a34	81CB00100000	or      ebx, 1000h
0x00406a3a	51	push    ecx
0x00406a3b	C745FC1C000000	mov     [ebp+var_4], 1Ch
0x00406a42	8BCE	mov     ecx, esi
0x00406a44	895DF0	mov     [ebp+var_10], ebx
0x00406a47	FF15D8AB4000	call    ds:__imp_??0CMFCPropertyGridProperty@@QAE@ABV?$CStringT@_WV?$StrTraitMFC_DLL@_WV?$ChTraitsCRT@_W@ATL@@@@@ATL@@ABVCOleVariant@@PB_WK222@Z; CMFCPropertyGridProperty::CMFCPropertyGridProperty(ATL::CStringT<wchar_t,StrTraitMFC_DLL<wchar_t,ATL::ChTraitsCRT<wchar_t>>> const &,COleVariant const &,wchar_t const *,ulong,wchar_t const *,wchar_t const *,wchar_t const *)
0x00406a4d	8BF0	mov     esi, eax
0x00406a4f	EB02	jmp     short loc_406A53
0x00406a51	33F6	xor     esi, esi
0x00406a53	F7C300100000	test    ebx, 1000h
0x00406a59	7412	jz      short loc_406A6D
0x00406a5b	81E3FFEFFFFF	and     ebx, 0FFFFEFFFh
0x00406a61	8D4DEC	lea     ecx, [ebp+var_14]
0x00406a64	895DF0	mov     [ebp+var_10], ebx
0x00406a67	FF15CCA24000	call    ds:__imp_??1?$CStringT@_WV?$StrTraitMFC_DLL@_WV?$ChTraitsCRT@_W@ATL@@@@@ATL@@QAE@XZ; ATL::CStringT<wchar_t,StrTraitMFC_DLL<wchar_t,ATL::ChTraitsCRT<wchar_t>>>::~CStringT<wchar_t,StrTraitMFC_DLL<wchar_t,ATL::ChTraitsCRT<wchar_t>>>(void)
0x00406a6d	F7C300080000	test    ebx, 800h
0x00406a73	7413	jz      short loc_406A88
0x00406a75	8D55B4	lea     edx, [ebp+pvarg]
0x00406a78	81E3FFF7FFFF	and     ebx, 0FFFFF7FFh
0x00406a7e	52	push    edx; pvarg
0x00406a7f	895DF0	mov     [ebp+var_10], ebx
0x00406a82	FF1510A14000	call    ds:__imp__VariantClear@4; VariantClear(x)
0x00406a88	C745FCFFFFFFFF	mov     [ebp+var_4], 0FFFFFFFFh
0x00406a8f	F7C300040000	test    ebx, 400h
0x00406a95	7413	jz      short loc_406AAA
0x00406a97	8D45C8	lea     eax, [ebp+var_38]
0x00406a9a	81E3FFFBFFFF	and     ebx, 0FFFFFBFFh
0x00406aa0	50	push    eax; pvarg
0x00406aa1	895DF0	mov     [ebp+var_10], ebx
0x00406aa4	FF1510A14000	call    ds:__imp__VariantClear@4; VariantClear(x)
0x00406aaa	682C010000	push    12Ch
0x00406aaf	6A32	push    32h
0x00406ab1	6A01	push    1
0x00406ab3	8BCE	mov     ecx, esi
0x00406ab5	FF15ECAB4000	call    ds:__imp_?EnableSpinControl@CMFCPropertyGridProperty@@QAEXHHH@Z; CMFCPropertyGridProperty::EnableSpinControl(int,int,int)
0x00406abb	56	push    esi
0x00406abc	8BCF	mov     ecx, edi
0x00406abe	FF15D4AB4000	call    ds:__imp_?AddSubItem@CMFCPropertyGridProperty@@QAEHPAV1@@Z; CMFCPropertyGridProperty::AddSubItem(CMFCPropertyGridProperty *)
0x00406ac4	68E4000000	push    0E4h
0x00406ac9	FF15ACAD4000	call    ds:__imp_??2@YAPAXI@Z; operator new(uint)
0x00406acf	8BF0	mov     esi, eax
0x00406ad1	83C404	add     esp, 4
0x00406ad4	8975E8	mov     [ebp+var_18], esi
0x00406ad7	C745FC20000000	mov     [ebp+var_4], 20h
0x00406ade	85F6	test    esi, esi
0x00406ae0	7479	jz      short loc_406B5B
0x00406ae2	B903000000	mov     ecx, 3
0x00406ae7	66894DC8	mov     word ptr [ebp+var_38.anonymous_0], cx
0x00406aeb	C745D096000000	mov     dword ptr [ebp+var_38.anonymous_0+8], 96h
0x00406af2	8D55C8	lea     edx, [ebp+var_38]
0x00406af5	C645FC21	mov     byte ptr [ebp+var_4], 21h
0x00406af9	81CB00200000	or      ebx, 2000h
0x00406aff	52	push    edx
0x00406b00	8D4DB4	lea     ecx, [ebp+pvarg]
0x00406b03	895DF0	mov     [ebp+var_10], ebx
0x00406b06	FF15DCAB4000	call    ds:__imp_??0COleVariant@@QAE@ABUtagVARIANT@@@Z; COleVariant::COleVariant(tagVARIANT const &)
0x00406b0c	C745FC22000000	mov     [ebp+var_4], 22h
0x00406b13	81CB00400000	or      ebx, 4000h
0x00406b19	687CE04000	push    offset unk_40E07C
0x00406b1e	8D4DEC	lea     ecx, [ebp+var_14]
0x00406b21	895DF0	mov     [ebp+var_10], ebx
0x00406b24	FF15D0AB4000	call    ds:__imp_??0?$CStringT@_WV?$StrTraitMFC_DLL@_WV?$ChTraitsCRT@_W@ATL@@@@@ATL@@QAE@PB_W@Z; ATL::CStringT<wchar_t,StrTraitMFC_DLL<wchar_t,ATL::ChTraitsCRT<wchar_t>>>::CStringT<wchar_t,StrTraitMFC_DLL<wchar_t,ATL::ChTraitsCRT<wchar_t>>>(wchar_t const *)
0x00406b2a	6A00	push    0
0x00406b2c	6A00	push    0
0x00406b2e	6A00	push    0
0x00406b30	6A00	push    0
0x00406b32	686CE04000	push    offset unk_40E06C
0x00406b37	8D45B4	lea     eax, [ebp+pvarg]
0x00406b3a	50	push    eax
0x00406b3b	8D4DEC	lea     ecx, [ebp+var_14]
0x00406b3e	81CB00800000	or      ebx, 8000h
0x00406b44	51	push    ecx
0x00406b45	C745FC23000000	mov     [ebp+var_4], 23h
0x00406b4c	8BCE	mov     ecx, esi
0x00406b4e	895DF0	mov     [ebp+var_10], ebx
0x00406b51	FF15D8AB4000	call    ds:__imp_??0CMFCPropertyGridProperty@@QAE@ABV?$CStringT@_WV?$StrTraitMFC_DLL@_WV?$ChTraitsCRT@_W@ATL@@@@@ATL@@ABVCOleVariant@@PB_WK222@Z; CMFCPropertyGridProperty::CMFCPropertyGridProperty(ATL::CStringT<wchar_t,StrTraitMFC_DLL<wchar_t,ATL::ChTraitsCRT<wchar_t>>> const &,COleVariant const &,wchar_t const *,ulong,wchar_t const *,wchar_t const *,wchar_t const *)
0x00406b57	8BF0	mov     esi, eax
0x00406b59	EB02	jmp     short loc_406B5D
0x00406b5b	33F6	xor     esi, esi
0x00406b5d	F7C300800000	test    ebx, 8000h
0x00406b63	7412	jz      short loc_406B77
0x00406b65	81E3FF7FFFFF	and     ebx, 0FFFF7FFFh
0x00406b6b	8D4DEC	lea     ecx, [ebp+var_14]
0x00406b6e	895DF0	mov     [ebp+var_10], ebx
0x00406b71	FF15CCA24000	call    ds:__imp_??1?$CStringT@_WV?$StrTraitMFC_DLL@_WV?$ChTraitsCRT@_W@ATL@@@@@ATL@@QAE@XZ; ATL::CStringT<wchar_t,StrTraitMFC_DLL<wchar_t,ATL::ChTraitsCRT<wchar_t>>>::~CStringT<wchar_t,StrTraitMFC_DLL<wchar_t,ATL::ChTraitsCRT<wchar_t>>>(void)
0x00406b77	F7C300400000	test    ebx, 4000h
0x00406b7d	7413	jz      short loc_406B92
0x00406b7f	8D55B4	lea     edx, [ebp+pvarg]
0x00406b82	81E3FFBFFFFF	and     ebx, 0FFFFBFFFh
0x00406b88	52	push    edx; pvarg
0x00406b89	895DF0	mov     [ebp+var_10], ebx
0x00406b8c	FF1510A14000	call    ds:__imp__VariantClear@4; VariantClear(x)
0x00406b92	C745FCFFFFFFFF	mov     [ebp+var_4], 0FFFFFFFFh
0x00406b99	F7C300200000	test    ebx, 2000h
0x00406b9f	7413	jz      short loc_406BB4
0x00406ba1	8D45C8	lea     eax, [ebp+var_38]
0x00406ba4	81E3FFDFFFFF	and     ebx, 0FFFFDFFFh
0x00406baa	50	push    eax; pvarg
0x00406bab	895DF0	mov     [ebp+var_10], ebx
0x00406bae	FF1510A14000	call    ds:__imp__VariantClear@4; VariantClear(x)
0x00406bb4	68C8000000	push    0C8h
0x00406bb9	6A32	push    32h
0x00406bbb	6A01	push    1
0x00406bbd	8BCE	mov     ecx, esi
0x00406bbf	FF15ECAB4000	call    ds:__imp_?EnableSpinControl@CMFCPropertyGridProperty@@QAEXHHH@Z; CMFCPropertyGridProperty::EnableSpinControl(int,int,int)
0x00406bc5	56	push    esi
0x00406bc6	8BCF	mov     ecx, edi
0x00406bc8	FF15D4AB4000	call    ds:__imp_?AddSubItem@CMFCPropertyGridProperty@@QAEHPAV1@@Z; CMFCPropertyGridProperty::AddSubItem(CMFCPropertyGridProperty *)
0x00406bce	8B4DC4	mov     ecx, [ebp+var_3C]
0x00406bd1	6A01	push    1
0x00406bd3	6A01	push    1
0x00406bd5	57	push    edi
0x00406bd6	FF15E8AB4000	call    ds:__imp_?AddProperty@CMFCPropertyGridCtrl@@QAEHPAVCMFCPropertyGridProperty@@HH@Z; CMFCPropertyGridCtrl::AddProperty(CMFCPropertyGridProperty *,int,int)
0x00406bdc	68E4000000	push    0E4h
0x00406be1	FF15ACAD4000	call    ds:__imp_??2@YAPAXI@Z; operator new(uint)
0x00406be7	8BF0	mov     esi, eax
0x00406be9	83C404	add     esp, 4
0x00406bec	8975E8	mov     [ebp+var_18], esi
0x00406bef	C745FC27000000	mov     [ebp+var_4], 27h
0x00406bf6	85F6	test    esi, esi
0x00406bf8	742F	jz      short loc_406C29
0x00406bfa	6884E04000	push    offset aWSo; "W[SO"
0x00406bff	8D4DE4	lea     ecx, [ebp+var_1C]
0x00406c02	FF15D0AB4000	call    ds:__imp_??0?$CStringT@_WV?$StrTraitMFC_DLL@_WV?$ChTraitsCRT@_W@ATL@@@@@ATL@@QAE@PB_W@Z; ATL::CStringT<wchar_t,StrTraitMFC_DLL<wchar_t,ATL::ChTraitsCRT<wchar_t>>>::CStringT<wchar_t,StrTraitMFC_DLL<wchar_t,ATL::ChTraitsCRT<wchar_t>>>(wchar_t const *)
0x00406c08	6A00	push    0
0x00406c0a	6A00	push    0
0x00406c0c	8D4DE4	lea     ecx, [ebp+var_1C]
0x00406c0f	81CB00000100	or      ebx, 10000h
0x00406c15	51	push    ecx
0x00406c16	C645FC28	mov     byte ptr [ebp+var_4], 28h
0x00406c1a	8BCE	mov     ecx, esi
0x00406c1c	895DF0	mov     [ebp+var_10], ebx
0x00406c1f	FF15CCAB4000	call    ds:__imp_??0CMFCPropertyGridProperty@@QAE@ABV?$CStringT@_WV?$StrTraitMFC_DLL@_WV?$ChTraitsCRT@_W@ATL@@@@@ATL@@KH@Z; CMFCPropertyGridProperty::CMFCPropertyGridProperty(ATL::CStringT<wchar_t,StrTraitMFC_DLL<wchar_t,ATL::ChTraitsCRT<wchar_t>>> const &,ulong,int)
0x00406c25	8BF8	mov     edi, eax
0x00406c27	EB02	jmp     short loc_406C2B
0x00406c29	33FF	xor     edi, edi
0x00406c2b	C745FCFFFFFFFF	mov     [ebp+var_4], 0FFFFFFFFh
0x00406c32	F7C300000100	test    ebx, 10000h
0x00406c38	7412	jz      short loc_406C4C
0x00406c3a	81E3FFFFFEFF	and     ebx, 0FFFEFFFFh
0x00406c40	8D4DE4	lea     ecx, [ebp+var_1C]
0x00406c43	895DF0	mov     [ebp+var_10], ebx
0x00406c46	FF15CCA24000	call    ds:__imp_??1?$CStringT@_WV?$StrTraitMFC_DLL@_WV?$ChTraitsCRT@_W@ATL@@@@@ATL@@QAE@XZ; ATL::CStringT<wchar_t,StrTraitMFC_DLL<wchar_t,ATL::ChTraitsCRT<wchar_t>>>::~CStringT<wchar_t,StrTraitMFC_DLL<wchar_t,ATL::ChTraitsCRT<wchar_t>>>(void)
0x00406c4c	6A11	push    11h; i
0x00406c4e	FF1510A04000	call    ds:__imp__GetStockObject@4; GetStockObject(x)
0x00406c54	50	push    eax
0x00406c55	FF15F0AB4000	call    ds:__imp_?FromHandle@CGdiObject@@SGPAV1@PAX@Z; CGdiObject::FromHandle(void *)
0x00406c5b	8B4004	mov     eax, [eax+4]
0x00406c5e	8D9530FFFFFF	lea     edx, [ebp+pv]
0x00406c64	52	push    edx; pv
0x00406c65	6A5C	push    5Ch; c
0x00406c67	50	push    eax; h
0x00406c68	FF1514A04000	call    ds:__imp__GetObjectW@12; GetObjectW(x,x,x)
0x00406c6e	688CE04000	push    offset String2; lpString2
0x00406c73	8D8D4CFFFFFF	lea     ecx, [ebp+String1]
0x00406c79	51	push    ecx; lpString1
0x00406c7a	FF1570A04000	call    ds:__imp__lstrcpyW@8; lstrcpyW(x,x)
0x00406c80	68A4010000	push    1A4h
0x00406c85	FF15ACAD4000	call    ds:__imp_??2@YAPAXI@Z; operator new(uint)
0x00406c8b	8BF0	mov     esi, eax
0x00406c8d	83C404	add     esp, 4
0x00406c90	8975E8	mov     [ebp+var_18], esi
0x00406c93	C745FC2A000000	mov     [ebp+var_4], 2Ah
0x00406c9a	85F6	test    esi, esi
0x00406c9c	743E	jz      short loc_406CDC
0x00406c9e	6884E04000	push    offset aWSo; "W[SO"
0x00406ca3	8D4DEC	lea     ecx, [ebp+var_14]
0x00406ca6	FF15D0AB4000	call    ds:__imp_??0?$CStringT@_WV?$StrTraitMFC_DLL@_WV?$ChTraitsCRT@_W@ATL@@@@@ATL@@QAE@PB_W@Z; ATL::CStringT<wchar_t,StrTraitMFC_DLL<wchar_t,ATL::ChTraitsCRT<wchar_t>>>::CStringT<wchar_t,StrTraitMFC_DLL<wchar_t,ATL::ChTraitsCRT<wchar_t>>>(wchar_t const *)
0x00406cac	6AFF	push    0FFFFFFFFh
0x00406cae	6A00	push    0
0x00406cb0	68A0E04000	push    offset unk_40E0A0
0x00406cb5	6801010000	push    101h
0x00406cba	8D9530FFFFFF	lea     edx, [ebp+pv]
0x00406cc0	52	push    edx
0x00406cc1	8D45EC	lea     eax, [ebp+var_14]
0x00406cc4	81CB00000200	or      ebx, 20000h
0x00406cca	C645FC2B	mov     byte ptr [ebp+var_4], 2Bh
0x00406cce	50	push    eax
0x00406ccf	8BCE	mov     ecx, esi
0x00406cd1	895DF0	mov     [ebp+var_10], ebx
0x00406cd4	FF15F4AB4000	call    ds:__imp_??0CMFCPropertyGridFontProperty@@QAE@ABV?$CStringT@_WV?$StrTraitMFC_DLL@_WV?$ChTraitsCRT@_W@ATL@@@@@ATL@@AAUtagLOGFONTW@@KPB_WKK@Z; CMFCPropertyGridFontProperty::CMFCPropertyGridFontProperty(ATL::CStringT<wchar_t,StrTraitMFC_DLL<wchar_t,ATL::ChTraitsCRT<wchar_t>>> const &,tagLOGFONTW &,ulong,wchar_t const *,ulong,ulong)
0x00406cda	EB02	jmp     short loc_406CDE
0x00406cdc	33C0	xor     eax, eax
0x00406cde	50	push    eax
0x00406cdf	8BCF	mov     ecx, edi
0x00406ce1	C745FC2C000000	mov     [ebp+var_4], 2Ch
0x00406ce8	FF15D4AB4000	call    ds:__imp_?AddSubItem@CMFCPropertyGridProperty@@QAEHPAV1@@Z; CMFCPropertyGridProperty::AddSubItem(CMFCPropertyGridProperty *)
0x00406cee	C745FCFFFFFFFF	mov     [ebp+var_4], 0FFFFFFFFh
0x00406cf5	F7C300000200	test    ebx, 20000h
0x00406cfb	7412	jz      short loc_406D0F
0x00406cfd	81E3FFFFFDFF	and     ebx, 0FFFDFFFFh
0x00406d03	8D4DEC	lea     ecx, [ebp+var_14]
0x00406d06	895DF0	mov     [ebp+var_10], ebx
0x00406d09	FF15CCA24000	call    ds:__imp_??1?$CStringT@_WV?$StrTraitMFC_DLL@_WV?$ChTraitsCRT@_W@ATL@@@@@ATL@@QAE@XZ; ATL::CStringT<wchar_t,StrTraitMFC_DLL<wchar_t,ATL::ChTraitsCRT<wchar_t>>>::~CStringT<wchar_t,StrTraitMFC_DLL<wchar_t,ATL::ChTraitsCRT<wchar_t>>>(void)
0x00406d0f	68E4000000	push    0E4h
0x00406d14	FF15ACAD4000	call    ds:__imp_??2@YAPAXI@Z; operator new(uint)
0x00406d1a	8BF0	mov     esi, eax
0x00406d1c	83C404	add     esp, 4
0x00406d1f	8975E8	mov     [ebp+var_18], esi
0x00406d22	C745FC2D000000	mov     [ebp+var_4], 2Dh
0x00406d29	85F6	test    esi, esi
0x00406d2b	7477	jz      short loc_406DA4
0x00406d2d	B90B000000	mov     ecx, 0Bh
0x00406d32	83CAFF	or      edx, 0FFFFFFFFh
0x00406d35	66894DC8	mov     word ptr [ebp+var_38.anonymous_0], cx
0x00406d39	668955D0	mov     word ptr [ebp+var_38.anonymous_0+8], dx
0x00406d3d	8D45C8	lea     eax, [ebp+var_38]
0x00406d40	C645FC2E	mov     byte ptr [ebp+var_4], 2Eh
0x00406d44	81CB00000400	or      ebx, 40000h
0x00406d4a	50	push    eax
0x00406d4b	8D4DB4	lea     ecx, [ebp+pvarg]
0x00406d4e	895DF0	mov     [ebp+var_10], ebx
0x00406d51	FF15DCAB4000	call    ds:__imp_??0COleVariant@@QAE@ABUtagVARIANT@@@Z; COleVariant::COleVariant(tagVARIANT const &)
0x00406d57	C745FC2F000000	mov     [ebp+var_4], 2Fh
0x00406d5e	81CB00000800	or      ebx, 80000h
0x00406d64	68E4E04000	push    offset unk_40E0E4
0x00406d69	8D4DEC	lea     ecx, [ebp+var_14]
0x00406d6c	895DF0	mov     [ebp+var_10], ebx
0x00406d6f	FF15D0AB4000	call    ds:__imp_??0?$CStringT@_WV?$StrTraitMFC_DLL@_WV?$ChTraitsCRT@_W@ATL@@@@@ATL@@QAE@PB_W@Z; ATL::CStringT<wchar_t,StrTraitMFC_DLL<wchar_t,ATL::ChTraitsCRT<wchar_t>>>::CStringT<wchar_t,StrTraitMFC_DLL<wchar_t,ATL::ChTraitsCRT<wchar_t>>>(wchar_t const *)
0x00406d75	6A00	push    0
0x00406d77	6A00	push    0
0x00406d79	6A00	push    0
0x00406d7b	6A00	push    0
0x00406d7d	68B4E04000	push    offset unk_40E0B4
0x00406d82	8D4DB4	lea     ecx, [ebp+pvarg]
0x00406d85	51	push    ecx
0x00406d86	8D55EC	lea     edx, [ebp+var_14]
0x00406d89	81CB00001000	or      ebx, 100000h
0x00406d8f	C745FC30000000	mov     [ebp+var_4], 30h
0x00406d96	52	push    edx
0x00406d97	8BCE	mov     ecx, esi
0x00406d99	895DF0	mov     [ebp+var_10], ebx
0x00406d9c	FF15D8AB4000	call    ds:__imp_??0CMFCPropertyGridProperty@@QAE@ABV?$CStringT@_WV?$StrTraitMFC_DLL@_WV?$ChTraitsCRT@_W@ATL@@@@@ATL@@ABVCOleVariant@@PB_WK222@Z; CMFCPropertyGridProperty::CMFCPropertyGridProperty(ATL::CStringT<wchar_t,StrTraitMFC_DLL<wchar_t,ATL::ChTraitsCRT<wchar_t>>> const &,COleVariant const &,wchar_t const *,ulong,wchar_t const *,wchar_t const *,wchar_t const *)
0x00406da2	EB02	jmp     short loc_406DA6
0x00406da4	33C0	xor     eax, eax
0x00406da6	50	push    eax
0x00406da7	8BCF	mov     ecx, edi
0x00406da9	C745FC33000000	mov     [ebp+var_4], 33h
0x00406db0	FF15D4AB4000	call    ds:__imp_?AddSubItem@CMFCPropertyGridProperty@@QAEHPAV1@@Z; CMFCPropertyGridProperty::AddSubItem(CMFCPropertyGridProperty *)
0x00406db6	F7C300001000	test    ebx, 100000h
0x00406dbc	7412	jz      short loc_406DD0
0x00406dbe	81E3FFFFEFFF	and     ebx, 0FFEFFFFFh
0x00406dc4	8D4DEC	lea     ecx, [ebp+var_14]
0x00406dc7	895DF0	mov     [ebp+var_10], ebx
0x00406dca	FF15CCA24000	call    ds:__imp_??1?$CStringT@_WV?$StrTraitMFC_DLL@_WV?$ChTraitsCRT@_W@ATL@@@@@ATL@@QAE@XZ; ATL::CStringT<wchar_t,StrTraitMFC_DLL<wchar_t,ATL::ChTraitsCRT<wchar_t>>>::~CStringT<wchar_t,StrTraitMFC_DLL<wchar_t,ATL::ChTraitsCRT<wchar_t>>>(void)
0x00406dd0	F7C300000800	test    ebx, 80000h
0x00406dd6	7413	jz      short loc_406DEB
0x00406dd8	8D45B4	lea     eax, [ebp+pvarg]
0x00406ddb	81E3FFFFF7FF	and     ebx, 0FFF7FFFFh
0x00406de1	50	push    eax; pvarg
0x00406de2	895DF0	mov     [ebp+var_10], ebx
0x00406de5	FF1510A14000	call    ds:__imp__VariantClear@4; VariantClear(x)
0x00406deb	C745FCFFFFFFFF	mov     [ebp+var_4], 0FFFFFFFFh
0x00406df2	F7C300000400	test    ebx, 40000h
0x00406df8	7413	jz      short loc_406E0D
0x00406dfa	8D4DC8	lea     ecx, [ebp+var_38]
0x00406dfd	81E3FFFFFBFF	and     ebx, 0FFFBFFFFh
0x00406e03	51	push    ecx; pvarg
0x00406e04	895DF0	mov     [ebp+var_10], ebx
0x00406e07	FF1510A14000	call    ds:__imp__VariantClear@4; VariantClear(x)
0x00406e0d	8B4DC4	mov     ecx, [ebp+var_3C]
0x00406e10	6A01	push    1
0x00406e12	6A01	push    1
0x00406e14	57	push    edi
0x00406e15	FF15E8AB4000	call    ds:__imp_?AddProperty@CMFCPropertyGridCtrl@@QAEHPAVCMFCPropertyGridProperty@@HH@Z; CMFCPropertyGridCtrl::AddProperty(CMFCPropertyGridProperty *,int,int)
0x00406e1b	68E4000000	push    0E4h
0x00406e20	FF15ACAD4000	call    ds:__imp_??2@YAPAXI@Z; operator new(uint)
0x00406e26	8BF0	mov     esi, eax
0x00406e28	83C404	add     esp, 4
0x00406e2b	8975E8	mov     [ebp+var_18], esi
0x00406e2e	C745FC34000000	mov     [ebp+var_4], 34h
0x00406e35	85F6	test    esi, esi
0x00406e37	742F	jz      short loc_406E68
0x00406e39	68F4E04000	push    offset unk_40E0F4
0x00406e3e	8D4DE4	lea     ecx, [ebp+var_1C]
0x00406e41	FF15D0AB4000	call    ds:__imp_??0?$CStringT@_WV?$StrTraitMFC_DLL@_WV?$ChTraitsCRT@_W@ATL@@@@@ATL@@QAE@PB_W@Z; ATL::CStringT<wchar_t,StrTraitMFC_DLL<wchar_t,ATL::ChTraitsCRT<wchar_t>>>::CStringT<wchar_t,StrTraitMFC_DLL<wchar_t,ATL::ChTraitsCRT<wchar_t>>>(wchar_t const *)
0x00406e47	6A00	push    0
0x00406e49	6A00	push    0
0x00406e4b	8D55E4	lea     edx, [ebp+var_1C]
0x00406e4e	81CB00002000	or      ebx, 200000h
0x00406e54	C645FC35	mov     byte ptr [ebp+var_4], 35h
0x00406e58	52	push    edx
0x00406e59	8BCE	mov     ecx, esi
0x00406e5b	895DF0	mov     [ebp+var_10], ebx
0x00406e5e	FF15CCAB4000	call    ds:__imp_??0CMFCPropertyGridProperty@@QAE@ABV?$CStringT@_WV?$StrTraitMFC_DLL@_WV?$ChTraitsCRT@_W@ATL@@@@@ATL@@KH@Z; CMFCPropertyGridProperty::CMFCPropertyGridProperty(ATL::CStringT<wchar_t,StrTraitMFC_DLL<wchar_t,ATL::ChTraitsCRT<wchar_t>>> const &,ulong,int)
0x00406e64	8BF8	mov     edi, eax
0x00406e66	EB02	jmp     short loc_406E6A
0x00406e68	33FF	xor     edi, edi
0x00406e6a	C745FCFFFFFFFF	mov     [ebp+var_4], 0FFFFFFFFh
0x00406e71	F7C300002000	test    ebx, 200000h
0x00406e77	7412	jz      short loc_406E8B
0x00406e79	81E3FFFFDFFF	and     ebx, 0FFDFFFFFh
0x00406e7f	8D4DE4	lea     ecx, [ebp+var_1C]
0x00406e82	895DF0	mov     [ebp+var_10], ebx
0x00406e85	FF15CCA24000	call    ds:__imp_??1?$CStringT@_WV?$StrTraitMFC_DLL@_WV?$ChTraitsCRT@_W@ATL@@@@@ATL@@QAE@XZ; ATL::CStringT<wchar_t,StrTraitMFC_DLL<wchar_t,ATL::ChTraitsCRT<wchar_t>>>::~CStringT<wchar_t,StrTraitMFC_DLL<wchar_t,ATL::ChTraitsCRT<wchar_t>>>(void)
0x00406e8b	68E4000000	push    0E4h
0x00406e90	FF15ACAD4000	call    ds:__imp_??2@YAPAXI@Z; operator new(uint)
0x00406e96	8BF0	mov     esi, eax
0x00406e98	83C404	add     esp, 4
0x00406e9b	8975E8	mov     [ebp+var_18], esi
0x00406e9e	C745FC37000000	mov     [ebp+var_4], 37h
0x00406ea5	85F6	test    esi, esi
0x00406ea7	745D	jz      short loc_406F06
0x00406ea9	33C0	xor     eax, eax
0x00406eab	6838DF4000	push    offset unk_40DF38
0x00406eb0	8D4DC8	lea     ecx, [ebp+var_38]
0x00406eb3	668945C8	mov     word ptr [ebp+var_38.anonymous_0], ax
0x00406eb7	FF15E0AB4000	call    ds:__imp_??4COleVariant@@QAEABV0@QB_W@Z; COleVariant::operator=(wchar_t const * const)
0x00406ebd	C645FC38	mov     byte ptr [ebp+var_4], 38h
0x00406ec1	81CB00004000	or      ebx, 400000h
0x00406ec7	68FCE04000	push    offset asc_40E0FC; "("
0x00406ecc	8D4DEC	lea     ecx, [ebp+var_14]
0x00406ecf	895DF0	mov     [ebp+var_10], ebx
0x00406ed2	FF15D0AB4000	call    ds:__imp_??0?$CStringT@_WV?$StrTraitMFC_DLL@_WV?$ChTraitsCRT@_W@ATL@@@@@ATL@@QAE@PB_W@Z; ATL::CStringT<wchar_t,StrTraitMFC_DLL<wchar_t,ATL::ChTraitsCRT<wchar_t>>>::CStringT<wchar_t,StrTraitMFC_DLL<wchar_t,ATL::ChTraitsCRT<wchar_t>>>(wchar_t const *)
0x00406ed8	6A00	push    0
0x00406eda	6A00	push    0
0x00406edc	6A00	push    0
0x00406ede	6A00	push    0
0x00406ee0	6A00	push    0
0x00406ee2	8D4DC8	lea     ecx, [ebp+var_38]
0x00406ee5	51	push    ecx
0x00406ee6	8D55EC	lea     edx, [ebp+var_14]
0x00406ee9	81CB00008000	or      ebx, 800000h
0x00406eef	C745FC39000000	mov     [ebp+var_4], 39h
0x00406ef6	52	push    edx
0x00406ef7	8BCE	mov     ecx, esi
0x00406ef9	895DF0	mov     [ebp+var_10], ebx
0x00406efc	FF15D8AB4000	call    ds:__imp_??0CMFCPropertyGridProperty@@QAE@ABV?$CStringT@_WV?$StrTraitMFC_DLL@_WV?$ChTraitsCRT@_W@ATL@@@@@ATL@@ABVCOleVariant@@PB_WK222@Z; CMFCPropertyGridProperty::CMFCPropertyGridProperty(ATL::CStringT<wchar_t,StrTraitMFC_DLL<wchar_t,ATL::ChTraitsCRT<wchar_t>>> const &,COleVariant const &,wchar_t const *,ulong,wchar_t const *,wchar_t const *,wchar_t const *)
0x00406f02	8BF0	mov     esi, eax
0x00406f04	EB02	jmp     short loc_406F08
0x00406f06	33F6	xor     esi, esi
0x00406f08	F7C300008000	test    ebx, 800000h
0x00406f0e	7412	jz      short loc_406F22
0x00406f10	81E3FFFF7FFF	and     ebx, 0FF7FFFFFh
0x00406f16	8D4DEC	lea     ecx, [ebp+var_14]
0x00406f19	895DF0	mov     [ebp+var_10], ebx
0x00406f1c	FF15CCA24000	call    ds:__imp_??1?$CStringT@_WV?$StrTraitMFC_DLL@_WV?$ChTraitsCRT@_W@ATL@@@@@ATL@@QAE@XZ; ATL::CStringT<wchar_t,StrTraitMFC_DLL<wchar_t,ATL::ChTraitsCRT<wchar_t>>>::~CStringT<wchar_t,StrTraitMFC_DLL<wchar_t,ATL::ChTraitsCRT<wchar_t>>>(void)
0x00406f22	C745FCFFFFFFFF	mov     [ebp+var_4], 0FFFFFFFFh
0x00406f29	F7C300004000	test    ebx, 400000h
0x00406f2f	7413	jz      short loc_406F44
0x00406f31	8D45C8	lea     eax, [ebp+var_38]
0x00406f34	81E3FFFFBFFF	and     ebx, 0FFBFFFFFh
0x00406f3a	50	push    eax; pvarg
0x00406f3b	895DF0	mov     [ebp+var_10], ebx
0x00406f3e	FF1510A14000	call    ds:__imp__VariantClear@4; VariantClear(x)
0x00406f44	6A00	push    0
0x00406f46	8BCE	mov     ecx, esi
0x00406f48	FF15F8AB4000	call    ds:__imp_?Enable@CMFCPropertyGridProperty@@QAEXH@Z; CMFCPropertyGridProperty::Enable(int)
0x00406f4e	56	push    esi
0x00406f4f	8BCF	mov     ecx, edi
0x00406f51	FF15D4AB4000	call    ds:__imp_?AddSubItem@CMFCPropertyGridProperty@@QAEHPAV1@@Z; CMFCPropertyGridProperty::AddSubItem(CMFCPropertyGridProperty *)
0x00406f57	6818010000	push    118h
0x00406f5c	FF15ACAD4000	call    ds:__imp_??2@YAPAXI@Z; operator new(uint)
0x00406f62	8BF0	mov     esi, eax
0x00406f64	83C404	add     esp, 4
0x00406f67	8975E8	mov     [ebp+var_18], esi
0x00406f6a	C745FC3C000000	mov     [ebp+var_4], 3Ch
0x00406f71	85F6	test    esi, esi
0x00406f73	743F	jz      short loc_406FB4
0x00406f75	681CE14000	push    offset unk_40E11C
0x00406f7a	8D4DEC	lea     ecx, [ebp+var_14]
0x00406f7d	C745B0D2C0FE00	mov     [ebp+var_50], 0FEC0D2h
0x00406f84	FF15D0AB4000	call    ds:__imp_??0?$CStringT@_WV?$StrTraitMFC_DLL@_WV?$ChTraitsCRT@_W@ATL@@@@@ATL@@QAE@PB_W@Z; ATL::CStringT<wchar_t,StrTraitMFC_DLL<wchar_t,ATL::ChTraitsCRT<wchar_t>>>::CStringT<wchar_t,StrTraitMFC_DLL<wchar_t,ATL::ChTraitsCRT<wchar_t>>>(wchar_t const *)
0x00406f8a	6A00	push    0
0x00406f8c	6808E14000	push    offset unk_40E108
0x00406f91	6A00	push    0
0x00406f93	8D4DB0	lea     ecx, [ebp+var_50]
0x00406f96	51	push    ecx
0x00406f97	8D55EC	lea     edx, [ebp+var_14]
0x00406f9a	81CB00000001	or      ebx, 1000000h
0x00406fa0	C645FC3D	mov     byte ptr [ebp+var_4], 3Dh
0x00406fa4	52	push    edx
0x00406fa5	8BCE	mov     ecx, esi
0x00406fa7	895DF0	mov     [ebp+var_10], ebx
0x00406faa	FF15FCAB4000	call    ds:__imp_??0CMFCPropertyGridColorProperty@@QAE@ABV?$CStringT@_WV?$StrTraitMFC_DLL@_WV?$ChTraitsCRT@_W@ATL@@@@@ATL@@ABKPAVCPalette@@PB_WK@Z; CMFCPropertyGridColorProperty::CMFCPropertyGridColorProperty(ATL::CStringT<wchar_t,StrTraitMFC_DLL<wchar_t,ATL::ChTraitsCRT<wchar_t>>> const &,ulong const &,CPalette *,wchar_t const *,ulong)
0x00406fb0	8BF0	mov     esi, eax
0x00406fb2	EB02	jmp     short loc_406FB6
0x00406fb4	33F6	xor     esi, esi
0x00406fb6	C745FCFFFFFFFF	mov     [ebp+var_4], 0FFFFFFFFh
0x00406fbd	F7C300000001	test    ebx, 1000000h
0x00406fc3	7412	jz      short loc_406FD7
0x00406fc5	81E3FFFFFFFE	and     ebx, 0FEFFFFFFh
0x00406fcb	8D4DEC	lea     ecx, [ebp+var_14]
0x00406fce	895DF0	mov     [ebp+var_10], ebx
0x00406fd1	FF15CCA24000	call    ds:__imp_??1?$CStringT@_WV?$StrTraitMFC_DLL@_WV?$ChTraitsCRT@_W@ATL@@@@@ATL@@QAE@XZ; ATL::CStringT<wchar_t,StrTraitMFC_DLL<wchar_t,ATL::ChTraitsCRT<wchar_t>>>::~CStringT<wchar_t,StrTraitMFC_DLL<wchar_t,ATL::ChTraitsCRT<wchar_t>>>(void)
0x00406fd7	6A01	push    1
0x00406fd9	6A01	push    1
0x00406fdb	6828E14000	push    offset unk_40E128
0x00406fe0	8BCE	mov     ecx, esi
0x00406fe2	FF1500AC4000	call    ds:__imp_?EnableOtherButton@CMFCPropertyGridColorProperty@@QAEXPB_WHH@Z; CMFCPropertyGridColorProperty::EnableOtherButton(wchar_t const *,int,int)
0x00406fe8	6A01	push    1
0x00406fea	6A0F	push    0Fh; nIndex
0x00406fec	FF1540A14000	call    ds:__imp__GetSysColor@4; GetSysColor(x)
0x00406ff2	50	push    eax
0x00406ff3	6834E14000	push    offset unk_40E134
0x00406ff8	8BCE	mov     ecx, esi
0x00406ffa	FF1504AC4000	call    ds:__imp_?EnableAutomaticButton@CMFCPropertyGridColorProperty@@QAEXPB_WKH@Z; CMFCPropertyGridColorProperty::EnableAutomaticButton(wchar_t const *,ulong,int)
0x00407000	56	push    esi
0x00407001	8BCF	mov     ecx, edi
0x00407003	FF15D4AB4000	call    ds:__imp_?AddSubItem@CMFCPropertyGridProperty@@QAEHPAV1@@Z; CMFCPropertyGridProperty::AddSubItem(CMFCPropertyGridProperty *)
0x00407009	68F8000000	push    0F8h
0x0040700e	FF15ACAD4000	call    ds:__imp_??2@YAPAXI@Z; operator new(uint)
0x00407014	8BF0	mov     esi, eax
0x00407016	83C404	add     esp, 4
0x00407019	8975E8	mov     [ebp+var_18], esi
0x0040701c	C745FC3F000000	mov     [ebp+var_4], 3Fh
0x00407023	85F6	test    esi, esi
0x00407025	7460	jz      short loc_407087
0x00407027	6808EA4000	push    offset unk_40EA08
0x0040702c	8D4DDC	lea     ecx, [ebp+var_24]
0x0040702f	FF15D0AB4000	call    ds:__imp_??0?$CStringT@_WV?$StrTraitMFC_DLL@_WV?$ChTraitsCRT@_W@ATL@@@@@ATL@@QAE@PB_W@Z; ATL::CStringT<wchar_t,StrTraitMFC_DLL<wchar_t,ATL::ChTraitsCRT<wchar_t>>>::CStringT<wchar_t,StrTraitMFC_DLL<wchar_t,ATL::ChTraitsCRT<wchar_t>>>(wchar_t const *)
0x00407035	C645FC40	mov     byte ptr [ebp+var_4], 40h
0x00407039	81CB00000002	or      ebx, 2000000h
0x0040703f	689CE14000	push    offset unk_40E19C
0x00407044	8D4DEC	lea     ecx, [ebp+var_14]
0x00407047	895DF0	mov     [ebp+var_10], ebx
0x0040704a	FF15D0AB4000	call    ds:__imp_??0?$CStringT@_WV?$StrTraitMFC_DLL@_WV?$ChTraitsCRT@_W@ATL@@@@@ATL@@QAE@PB_W@Z; ATL::CStringT<wchar_t,StrTraitMFC_DLL<wchar_t,ATL::ChTraitsCRT<wchar_t>>>::CStringT<wchar_t,StrTraitMFC_DLL<wchar_t,ATL::ChTraitsCRT<wchar_t>>>(wchar_t const *)
0x00407050	6A00	push    0
0x00407052	6884E14000	push    offset unk_40E184
0x00407057	6840E14000	push    offset unk_40E140
0x0040705c	6A00	push    0
0x0040705e	6894E14000	push    offset aIco; "ico"
0x00407063	8D45DC	lea     eax, [ebp+var_24]
0x00407066	50	push    eax
0x00407067	6A01	push    1
0x00407069	8D4DEC	lea     ecx, [ebp+var_14]
0x0040706c	81CB00000004	or      ebx, 4000000h
0x00407072	51	push    ecx
0x00407073	C745FC41000000	mov     [ebp+var_4], 41h
0x0040707a	8BCE	mov     ecx, esi
0x0040707c	895DF0	mov     [ebp+var_10], ebx
0x0040707f	FF1508AC4000	call    ds:__imp_??0CMFCPropertyGridFileProperty@@QAE@ABV?$CStringT@_WV?$StrTraitMFC_DLL@_WV?$ChTraitsCRT@_W@ATL@@@@@ATL@@H0PB_WK11K@Z; CMFCPropertyGridFileProperty::CMFCPropertyGridFileProperty(ATL::CStringT<wchar_t,StrTraitMFC_DLL<wchar_t,ATL::ChTraitsCRT<wchar_t>>> const &,int,ATL::CStringT<wchar_t,StrTraitMFC_DLL<wchar_t,ATL::ChTraitsCRT<wchar_t>>> const &,wchar_t const *,ulong,wchar_t const *,wchar_t const *,ulong)
0x00407085	EB02	jmp     short loc_407089
0x00407087	33C0	xor     eax, eax
0x00407089	50	push    eax
0x0040708a	8BCF	mov     ecx, edi
0x0040708c	C745FC43000000	mov     [ebp+var_4], 43h
0x00407093	FF15D4AB4000	call    ds:__imp_?AddSubItem@CMFCPropertyGridProperty@@QAEHPAV1@@Z; CMFCPropertyGridProperty::AddSubItem(CMFCPropertyGridProperty *)
0x00407099	F7C300000004	test    ebx, 4000000h
0x0040709f	7412	jz      short loc_4070B3
0x004070a1	81E3FFFFFFFB	and     ebx, 0FBFFFFFFh
0x004070a7	8D4DEC	lea     ecx, [ebp+var_14]
0x004070aa	895DF0	mov     [ebp+var_10], ebx
0x004070ad	FF15CCA24000	call    ds:__imp_??1?$CStringT@_WV?$StrTraitMFC_DLL@_WV?$ChTraitsCRT@_W@ATL@@@@@ATL@@QAE@XZ; ATL::CStringT<wchar_t,StrTraitMFC_DLL<wchar_t,ATL::ChTraitsCRT<wchar_t>>>::~CStringT<wchar_t,StrTraitMFC_DLL<wchar_t,ATL::ChTraitsCRT<wchar_t>>>(void)
0x004070b3	C745FCFFFFFFFF	mov     [ebp+var_4], 0FFFFFFFFh
0x004070ba	F7C300000002	test    ebx, 2000000h
0x004070c0	7412	jz      short loc_4070D4
0x004070c2	81E3FFFFFFFD	and     ebx, 0FDFFFFFFh
0x004070c8	8D4DDC	lea     ecx, [ebp+var_24]
0x004070cb	895DF0	mov     [ebp+var_10], ebx
0x004070ce	FF15CCA24000	call    ds:__imp_??1?$CStringT@_WV?$StrTraitMFC_DLL@_WV?$ChTraitsCRT@_W@ATL@@@@@ATL@@QAE@XZ; ATL::CStringT<wchar_t,StrTraitMFC_DLL<wchar_t,ATL::ChTraitsCRT<wchar_t>>>::~CStringT<wchar_t,StrTraitMFC_DLL<wchar_t,ATL::ChTraitsCRT<wchar_t>>>(void)
0x004070d4	68F8000000	push    0F8h
0x004070d9	FF15ACAD4000	call    ds:__imp_??2@YAPAXI@Z; operator new(uint)
0x004070df	8BF0	mov     esi, eax
0x004070e1	83C404	add     esp, 4
0x004070e4	8975E8	mov     [ebp+var_18], esi
0x004070e7	C745FC44000000	mov     [ebp+var_4], 44h
0x004070ee	85F6	test    esi, esi
0x004070f0	744F	jz      short loc_407141
0x004070f2	68A4E14000	push    offset aC; "c:\\"
0x004070f7	8D4DDC	lea     ecx, [ebp+var_24]
0x004070fa	FF15D0AB4000	call    ds:__imp_??0?$CStringT@_WV?$StrTraitMFC_DLL@_WV?$ChTraitsCRT@_W@ATL@@@@@ATL@@QAE@PB_W@Z; ATL::CStringT<wchar_t,StrTraitMFC_DLL<wchar_t,ATL::ChTraitsCRT<wchar_t>>>::CStringT<wchar_t,StrTraitMFC_DLL<wchar_t,ATL::ChTraitsCRT<wchar_t>>>(wchar_t const *)
0x00407100	C645FC45	mov     byte ptr [ebp+var_4], 45h
0x00407104	81CB00000008	or      ebx, 8000000h
0x0040710a	68ACE14000	push    offset unk_40E1AC
0x0040710f	8D4DEC	lea     ecx, [ebp+var_14]
0x00407112	895DF0	mov     [ebp+var_10], ebx
0x00407115	FF15D0AB4000	call    ds:__imp_??0?$CStringT@_WV?$StrTraitMFC_DLL@_WV?$ChTraitsCRT@_W@ATL@@@@@ATL@@QAE@PB_W@Z; ATL::CStringT<wchar_t,StrTraitMFC_DLL<wchar_t,ATL::ChTraitsCRT<wchar_t>>>::CStringT<wchar_t,StrTraitMFC_DLL<wchar_t,ATL::ChTraitsCRT<wchar_t>>>(wchar_t const *)
0x0040711b	6A00	push    0
0x0040711d	6A00	push    0
0x0040711f	8D55DC	lea     edx, [ebp+var_24]
0x00407122	52	push    edx
0x00407123	8D45EC	lea     eax, [ebp+var_14]
0x00407126	81CB00000010	or      ebx, 10000000h
0x0040712c	C745FC46000000	mov     [ebp+var_4], 46h
0x00407133	50	push    eax
0x00407134	8BCE	mov     ecx, esi
0x00407136	895DF0	mov     [ebp+var_10], ebx
0x00407139	FF150CAC4000	call    ds:__imp_??0CMFCPropertyGridFileProperty@@QAE@ABV?$CStringT@_WV?$StrTraitMFC_DLL@_WV?$ChTraitsCRT@_W@ATL@@@@@ATL@@0KPB_W@Z; CMFCPropertyGridFileProperty::CMFCPropertyGridFileProperty(ATL::CStringT<wchar_t,StrTraitMFC_DLL<wchar_t,ATL::ChTraitsCRT<wchar_t>>> const &,ATL::CStringT<wchar_t,StrTraitMFC_DLL<wchar_t,ATL::ChTraitsCRT<wchar_t>>> const &,ulong,wchar_t const *)
0x0040713f	EB02	jmp     short loc_407143
0x00407141	33C0	xor     eax, eax
0x00407143	50	push    eax
0x00407144	8BCF	mov     ecx, edi
0x00407146	C745FC48000000	mov     [ebp+var_4], 48h
0x0040714d	FF15D4AB4000	call    ds:__imp_?AddSubItem@CMFCPropertyGridProperty@@QAEHPAV1@@Z; CMFCPropertyGridProperty::AddSubItem(CMFCPropertyGridProperty *)
0x00407153	F7C300000010	test    ebx, 10000000h
0x00407159	740F	jz      short loc_40716A
0x0040715b	8D4DEC	lea     ecx, [ebp+var_14]
0x0040715e	81E3FFFFFFEF	and     ebx, 0EFFFFFFFh
0x00407164	FF15CCA24000	call    ds:__imp_??1?$CStringT@_WV?$StrTraitMFC_DLL@_WV?$ChTraitsCRT@_W@ATL@@@@@ATL@@QAE@XZ; ATL::CStringT<wchar_t,StrTraitMFC_DLL<wchar_t,ATL::ChTraitsCRT<wchar_t>>>::~CStringT<wchar_t,StrTraitMFC_DLL<wchar_t,ATL::ChTraitsCRT<wchar_t>>>(void)
0x0040716a	C745FCFFFFFFFF	mov     [ebp+var_4], 0FFFFFFFFh
0x00407171	F7C300000008	test    ebx, 8000000h
0x00407177	740F	jz      short loc_407188
0x00407179	8D4DDC	lea     ecx, [ebp+var_24]
0x0040717c	81E3FFFFFFF7	and     ebx, 0F7FFFFFFh
0x00407182	FF15CCA24000	call    ds:__imp_??1?$CStringT@_WV?$StrTraitMFC_DLL@_WV?$ChTraitsCRT@_W@ATL@@@@@ATL@@QAE@XZ; ATL::CStringT<wchar_t,StrTraitMFC_DLL<wchar_t,ATL::ChTraitsCRT<wchar_t>>>::~CStringT<wchar_t,StrTraitMFC_DLL<wchar_t,ATL::ChTraitsCRT<wchar_t>>>(void)
0x00407188	8B4DC4	mov     ecx, [ebp+var_3C]
0x0040718b	6A01	push    1
0x0040718d	6A01	push    1
0x0040718f	57	push    edi
0x00407190	FF15E8AB4000	call    ds:__imp_?AddProperty@CMFCPropertyGridCtrl@@QAEHPAVCMFCPropertyGridProperty@@HH@Z; CMFCPropertyGridCtrl::AddProperty(CMFCPropertyGridProperty *,int,int)
0x00407196	68E4000000	push    0E4h
0x0040719b	FF15ACAD4000	call    ds:__imp_??2@YAPAXI@Z; operator new(uint)
0x004071a1	8BF0	mov     esi, eax
0x004071a3	83C404	add     esp, 4
0x004071a6	8975E8	mov     [ebp+var_18], esi
0x004071a9	C745FC49000000	mov     [ebp+var_4], 49h
0x004071b0	85F6	test    esi, esi
0x004071b2	7430	jz      short loc_4071E4
0x004071b4	68B4E14000	push    offset unk_40E1B4
0x004071b9	8D4DE4	lea     ecx, [ebp+var_1C]
0x004071bc	FF15D0AB4000	call    ds:__imp_??0?$CStringT@_WV?$StrTraitMFC_DLL@_WV?$ChTraitsCRT@_W@ATL@@@@@ATL@@QAE@PB_W@Z; ATL::CStringT<wchar_t,StrTraitMFC_DLL<wchar_t,ATL::ChTraitsCRT<wchar_t>>>::CStringT<wchar_t,StrTraitMFC_DLL<wchar_t,ATL::ChTraitsCRT<wchar_t>>>(wchar_t const *)
0x004071c2	6A00	push    0
0x004071c4	6A00	push    0
0x004071c6	8D4DE4	lea     ecx, [ebp+var_1C]
0x004071c9	81CB00000020	or      ebx, 20000000h
0x004071cf	51	push    ecx
0x004071d0	C645FC4A	mov     byte ptr [ebp+var_4], 4Ah
0x004071d4	8BCE	mov     ecx, esi
0x004071d6	895DF0	mov     [ebp+var_10], ebx
0x004071d9	FF15CCAB4000	call    ds:__imp_??0CMFCPropertyGridProperty@@QAE@ABV?$CStringT@_WV?$StrTraitMFC_DLL@_WV?$ChTraitsCRT@_W@ATL@@@@@ATL@@KH@Z; CMFCPropertyGridProperty::CMFCPropertyGridProperty(ATL::CStringT<wchar_t,StrTraitMFC_DLL<wchar_t,ATL::ChTraitsCRT<wchar_t>>> const &,ulong,int)
0x004071df	8945DC	mov     [ebp+var_24], eax
0x004071e2	EB07	jmp     short loc_4071EB
0x004071e4	C745DC00000000	mov     [ebp+var_24], 0
0x004071eb	C745FCFFFFFFFF	mov     [ebp+var_4], 0FFFFFFFFh
0x004071f2	F7C300000020	test    ebx, 20000000h
0x004071f8	740F	jz      short loc_407209
0x004071fa	8D4DE4	lea     ecx, [ebp+var_1C]
0x004071fd	81E3FFFFFFDF	and     ebx, 0DFFFFFFFh
0x00407203	FF15CCA24000	call    ds:__imp_??1?$CStringT@_WV?$StrTraitMFC_DLL@_WV?$ChTraitsCRT@_W@ATL@@@@@ATL@@QAE@XZ; ATL::CStringT<wchar_t,StrTraitMFC_DLL<wchar_t,ATL::ChTraitsCRT<wchar_t>>>::~CStringT<wchar_t,StrTraitMFC_DLL<wchar_t,ATL::ChTraitsCRT<wchar_t>>>(void)
0x00407209	68E4000000	push    0E4h
0x0040720e	FF15ACAD4000	call    ds:__imp_??2@YAPAXI@Z; operator new(uint)
0x00407214	8BF0	mov     esi, eax
0x00407216	83C404	add     esp, 4
0x00407219	8975E8	mov     [ebp+var_18], esi
0x0040721c	C745FC4C000000	mov     [ebp+var_4], 4Ch
0x00407223	85F6	test    esi, esi
0x00407225	742F	jz      short loc_407256
0x00407227	68C0E14000	push    offset unk_40E1C0
0x0040722c	8D4DEC	lea     ecx, [ebp+var_14]
0x0040722f	FF15D0AB4000	call    ds:__imp_??0?$CStringT@_WV?$StrTraitMFC_DLL@_WV?$ChTraitsCRT@_W@ATL@@@@@ATL@@QAE@PB_W@Z; ATL::CStringT<wchar_t,StrTraitMFC_DLL<wchar_t,ATL::ChTraitsCRT<wchar_t>>>::CStringT<wchar_t,StrTraitMFC_DLL<wchar_t,ATL::ChTraitsCRT<wchar_t>>>(wchar_t const *)
0x00407235	6A00	push    0
0x00407237	6A00	push    0
0x00407239	8D55EC	lea     edx, [ebp+var_14]
0x0040723c	81CB00000040	or      ebx, 40000000h
0x00407242	C645FC4D	mov     byte ptr [ebp+var_4], 4Dh
0x00407246	52	push    edx
0x00407247	8BCE	mov     ecx, esi
0x00407249	895DF0	mov     [ebp+var_10], ebx
0x0040724c	FF15CCAB4000	call    ds:__imp_??0CMFCPropertyGridProperty@@QAE@ABV?$CStringT@_WV?$StrTraitMFC_DLL@_WV?$ChTraitsCRT@_W@ATL@@@@@ATL@@KH@Z; CMFCPropertyGridProperty::CMFCPropertyGridProperty(ATL::CStringT<wchar_t,StrTraitMFC_DLL<wchar_t,ATL::ChTraitsCRT<wchar_t>>> const &,ulong,int)
0x00407252	8BF8	mov     edi, eax
0x00407254	EB02	jmp     short loc_407258
0x00407256	33FF	xor     edi, edi
0x00407258	C745FCFFFFFFFF	mov     [ebp+var_4], 0FFFFFFFFh
0x0040725f	F7C300000040	test    ebx, 40000000h
0x00407265	740F	jz      short loc_407276
0x00407267	8D4DEC	lea     ecx, [ebp+var_14]
0x0040726a	81E3FFFFFFBF	and     ebx, 0BFFFFFFFh
0x00407270	FF15CCA24000	call    ds:__imp_??1?$CStringT@_WV?$StrTraitMFC_DLL@_WV?$ChTraitsCRT@_W@ATL@@@@@ATL@@QAE@XZ; ATL::CStringT<wchar_t,StrTraitMFC_DLL<wchar_t,ATL::ChTraitsCRT<wchar_t>>>::~CStringT<wchar_t,StrTraitMFC_DLL<wchar_t,ATL::ChTraitsCRT<wchar_t>>>(void)
0x00407276	8B4DDC	mov     ecx, [ebp+var_24]
0x00407279	57	push    edi
0x0040727a	FF15D4AB4000	call    ds:__imp_?AddSubItem@CMFCPropertyGridProperty@@QAEHPAV1@@Z; CMFCPropertyGridProperty::AddSubItem(CMFCPropertyGridProperty *)
0x00407280	68E4000000	push    0E4h
0x00407285	FF15ACAD4000	call    ds:__imp_??2@YAPAXI@Z; operator new(uint)
0x0040728b	8BF0	mov     esi, eax
0x0040728d	83C404	add     esp, 4
0x00407290	8975E8	mov     [ebp+var_18], esi
0x00407293	C745FC4F000000	mov     [ebp+var_4], 4Fh
0x0040729a	85F6	test    esi, esi
0x0040729c	7430	jz      short loc_4072CE
0x0040729e	68CCE14000	push    offset unk_40E1CC
0x004072a3	8D4DB0	lea     ecx, [ebp+var_50]
0x004072a6	FF15D0AB4000	call    ds:__imp_??0?$CStringT@_WV?$StrTraitMFC_DLL@_WV?$ChTraitsCRT@_W@ATL@@@@@ATL@@QAE@PB_W@Z; ATL::CStringT<wchar_t,StrTraitMFC_DLL<wchar_t,ATL::ChTraitsCRT<wchar_t>>>::CStringT<wchar_t,StrTraitMFC_DLL<wchar_t,ATL::ChTraitsCRT<wchar_t>>>(wchar_t const *)
0x004072ac	6A00	push    0
0x004072ae	6A00	push    0
0x004072b0	8D45B0	lea     eax, [ebp+var_50]
0x004072b3	81CB00000080	or      ebx, 80000000h
0x004072b9	C645FC50	mov     byte ptr [ebp+var_4], 50h
0x004072bd	50	push    eax
0x004072be	8BCE	mov     ecx, esi
0x004072c0	895DF0	mov     [ebp+var_10], ebx
0x004072c3	FF15CCAB4000	call    ds:__imp_??0CMFCPropertyGridProperty@@QAE@ABV?$CStringT@_WV?$StrTraitMFC_DLL@_WV?$ChTraitsCRT@_W@ATL@@@@@ATL@@KH@Z; CMFCPropertyGridProperty::CMFCPropertyGridProperty(ATL::CStringT<wchar_t,StrTraitMFC_DLL<wchar_t,ATL::ChTraitsCRT<wchar_t>>> const &,ulong,int)
0x004072c9	8945F0	mov     [ebp+var_10], eax
0x004072cc	EB07	jmp     short loc_4072D5
0x004072ce	C745F000000000	mov     [ebp+var_10], 0
0x004072d5	C745FCFFFFFFFF	mov     [ebp+var_4], 0FFFFFFFFh
0x004072dc	85DB	test    ebx, ebx
0x004072de	7909	jns     short loc_4072E9
0x004072e0	8D4DB0	lea     ecx, [ebp+var_50]
0x004072e3	FF15CCA24000	call    ds:__imp_??1?$CStringT@_WV?$StrTraitMFC_DLL@_WV?$ChTraitsCRT@_W@ATL@@@@@ATL@@QAE@XZ; ATL::CStringT<wchar_t,StrTraitMFC_DLL<wchar_t,ATL::ChTraitsCRT<wchar_t>>>::~CStringT<wchar_t,StrTraitMFC_DLL<wchar_t,ATL::ChTraitsCRT<wchar_t>>>(void)
0x004072e9	8B4DF0	mov     ecx, [ebp+var_10]
0x004072ec	51	push    ecx
0x004072ed	8BCF	mov     ecx, edi
0x004072ef	FF15D4AB4000	call    ds:__imp_?AddSubItem@CMFCPropertyGridProperty@@QAEHPAV1@@Z; CMFCPropertyGridProperty::AddSubItem(CMFCPropertyGridProperty *)
0x004072f5	68E4000000	push    0E4h
0x004072fa	FF15ACAD4000	call    ds:__imp_??2@YAPAXI@Z; operator new(uint)
0x00407300	8BF0	mov     esi, eax
0x00407302	83C404	add     esp, 4
0x00407305	8975E8	mov     [ebp+var_18], esi
0x00407308	C745FC52000000	mov     [ebp+var_4], 52h
0x0040730f	85F6	test    esi, esi
0x00407311	0F8489000000	jz      loc_4073A0
0x00407317	BA08000000	mov     edx, 8
0x0040731c	68E4E14000	push    offset word_40E1E4; psz
0x00407321	668955C8	mov     word ptr [ebp+var_38.anonymous_0], dx
0x00407325	FF150CA14000	call    ds:__imp__SysAllocString@4; SysAllocString(x)
0x0040732b	8945D0	mov     dword ptr [ebp+var_38.anonymous_0+8], eax
0x0040732e	85C0	test    eax, eax
0x00407330	750A	jnz     short loc_40733C
0x00407332	680E000780	push    8007000Eh
0x00407337	E8B41B0000	call    _com_issue_error
0x0040733c	8D45C8	lea     eax, [ebp+var_38]
0x0040733f	C645FC53	mov     byte ptr [ebp+var_4], 53h
0x00407343	50	push    eax
0x00407344	8D4DB4	lea     ecx, [ebp+pvarg]
0x00407347	C745E001000000	mov     [ebp+var_20], 1
0x0040734e	FF15DCAB4000	call    ds:__imp_??0COleVariant@@QAE@ABUtagVARIANT@@@Z; COleVariant::COleVariant(tagVARIANT const &)
0x00407354	C745FC54000000	mov     [ebp+var_4], 54h
0x0040735b	68ECE14000	push    offset unk_40E1EC
0x00407360	8D4DEC	lea     ecx, [ebp+var_14]
0x00407363	C745E003000000	mov     [ebp+var_20], 3
0x0040736a	FF15D0AB4000	call    ds:__imp_??0?$CStringT@_WV?$StrTraitMFC_DLL@_WV?$ChTraitsCRT@_W@ATL@@@@@ATL@@QAE@PB_W@Z; ATL::CStringT<wchar_t,StrTraitMFC_DLL<wchar_t,ATL::ChTraitsCRT<wchar_t>>>::CStringT<wchar_t,StrTraitMFC_DLL<wchar_t,ATL::ChTraitsCRT<wchar_t>>>(wchar_t const *)
0x00407370	6A00	push    0
0x00407372	6A00	push    0
0x00407374	6A00	push    0
0x00407376	6A00	push    0
0x00407378	68D8E14000	push    offset unk_40E1D8
0x0040737d	8D4DB4	lea     ecx, [ebp+pvarg]
0x00407380	51	push    ecx
0x00407381	C745FC55000000	mov     [ebp+var_4], 55h
0x00407388	8B3DD8AB4000	mov     edi, ds:__imp_??0CMFCPropertyGridProperty@@QAE@ABV?$CStringT@_WV?$StrTraitMFC_DLL@_WV?$ChTraitsCRT@_W@ATL@@@@@ATL@@ABVCOleVariant@@PB_WK222@Z; CMFCPropertyGridProperty::CMFCPropertyGridProperty(ATL::CStringT<wchar_t,StrTraitMFC_DLL<wchar_t,ATL::ChTraitsCRT<wchar_t>>> const &,COleVariant const &,wchar_t const *,ulong,wchar_t const *,wchar_t const *,wchar_t const *)
0x0040738e	8D55EC	lea     edx, [ebp+var_14]
0x00407391	BB07000000	mov     ebx, 7
0x00407396	52	push    edx
0x00407397	8BCE	mov     ecx, esi
0x00407399	895DE0	mov     [ebp+var_20], ebx
0x0040739c	FFD7	call    edi ; CMFCPropertyGridProperty::CMFCPropertyGridProperty(ATL::CStringT<wchar_t,StrTraitMFC_DLL<wchar_t,ATL::ChTraitsCRT<wchar_t>>> const &,COleVariant const &,wchar_t const *,ulong,wchar_t const *,wchar_t const *,wchar_t const *); CMFCPropertyGridProperty::CMFCPropertyGridProperty(ATL::CStringT<wchar_t,StrTraitMFC_DLL<wchar_t,ATL::ChTraitsCRT<wchar_t>>> const &,COleVariant const &,wchar_t const *,ulong,wchar_t const *,wchar_t const *,wchar_t const *)
0x0040739e	EB0B	jmp     short loc_4073AB
0x004073a0	8B5DE0	mov     ebx, [ebp+var_20]
0x004073a3	8B3DD8AB4000	mov     edi, ds:__imp_??0CMFCPropertyGridProperty@@QAE@ABV?$CStringT@_WV?$StrTraitMFC_DLL@_WV?$ChTraitsCRT@_W@ATL@@@@@ATL@@ABVCOleVariant@@PB_WK222@Z; CMFCPropertyGridProperty::CMFCPropertyGridProperty(ATL::CStringT<wchar_t,StrTraitMFC_DLL<wchar_t,ATL::ChTraitsCRT<wchar_t>>> const &,COleVariant const &,wchar_t const *,ulong,wchar_t const *,wchar_t const *,wchar_t const *)
0x004073a9	33C0	xor     eax, eax
0x004073ab	C745FC58000000	mov     [ebp+var_4], 58h
0x004073b2	8B4DF0	mov     ecx, [ebp+var_10]
0x004073b5	50	push    eax
0x004073b6	FF15D4AB4000	call    ds:__imp_?AddSubItem@CMFCPropertyGridProperty@@QAEHPAV1@@Z; CMFCPropertyGridProperty::AddSubItem(CMFCPropertyGridProperty *)
0x004073bc	F6C304	test    bl, 4
0x004073bf	740F	jz      short loc_4073D0
0x004073c1	83E3FB	and     ebx, 0FFFFFFFBh
0x004073c4	8D4DEC	lea     ecx, [ebp+var_14]
0x004073c7	895DE0	mov     [ebp+var_20], ebx
0x004073ca	FF15CCA24000	call    ds:__imp_??1?$CStringT@_WV?$StrTraitMFC_DLL@_WV?$ChTraitsCRT@_W@ATL@@@@@ATL@@QAE@XZ; ATL::CStringT<wchar_t,StrTraitMFC_DLL<wchar_t,ATL::ChTraitsCRT<wchar_t>>>::~CStringT<wchar_t,StrTraitMFC_DLL<wchar_t,ATL::ChTraitsCRT<wchar_t>>>(void)
0x004073d0	F6C302	test    bl, 2
0x004073d3	7410	jz      short loc_4073E5
0x004073d5	8D45B4	lea     eax, [ebp+pvarg]
0x004073d8	83E3FD	and     ebx, 0FFFFFFFDh
0x004073db	50	push    eax; pvarg
0x004073dc	895DE0	mov     [ebp+var_20], ebx
0x004073df	FF1510A14000	call    ds:__imp__VariantClear@4; VariantClear(x)
0x004073e5	C745FCFFFFFFFF	mov     [ebp+var_4], 0FFFFFFFFh
0x004073ec	F6C301	test    bl, 1
0x004073ef	7410	jz      short loc_407401
0x004073f1	8D4DC8	lea     ecx, [ebp+var_38]
0x004073f4	83E3FE	and     ebx, 0FFFFFFFEh
0x004073f7	51	push    ecx; pvarg
0x004073f8	895DE0	mov     [ebp+var_20], ebx
0x004073fb	FF1510A14000	call    ds:__imp__VariantClear@4; VariantClear(x)
0x00407401	68E4000000	push    0E4h
0x00407406	FF15ACAD4000	call    ds:__imp_??2@YAPAXI@Z; operator new(uint)
0x0040740c	8BF0	mov     esi, eax
0x0040740e	83C404	add     esp, 4
0x00407411	8975E8	mov     [ebp+var_18], esi
0x00407414	C745FC59000000	mov     [ebp+var_4], 59h
0x0040741b	85F6	test    esi, esi
0x0040741d	747F	jz      short loc_40749E
0x0040741f	BA08000000	mov     edx, 8
0x00407424	68F4E14000	push    offset word_40E1F4; psz
0x00407429	668955C8	mov     word ptr [ebp+var_38.anonymous_0], dx
0x0040742d	FF150CA14000	call    ds:__imp__SysAllocString@4; SysAllocString(x)
0x00407433	8945D0	mov     dword ptr [ebp+var_38.anonymous_0+8], eax
0x00407436	85C0	test    eax, eax
0x00407438	750A	jnz     short loc_407444
0x0040743a	680E000780	push    8007000Eh
0x0040743f	E8AC1A0000	call    _com_issue_error
0x00407444	8D45C8	lea     eax, [ebp+var_38]
0x00407447	C645FC5A	mov     byte ptr [ebp+var_4], 5Ah
0x0040744b	83CB08	or      ebx, 8
0x0040744e	50	push    eax
0x0040744f	8D4DB4	lea     ecx, [ebp+pvarg]
0x00407452	895DE0	mov     [ebp+var_20], ebx
0x00407455	FF15DCAB4000	call    ds:__imp_??0COleVariant@@QAE@ABUtagVARIANT@@@Z; COleVariant::COleVariant(tagVARIANT const &)
0x0040745b	C745FC5B000000	mov     [ebp+var_4], 5Bh
0x00407462	83CB10	or      ebx, 10h
0x00407465	68FCE14000	push    offset unk_40E1FC
0x0040746a	8D4DEC	lea     ecx, [ebp+var_14]
0x0040746d	895DE0	mov     [ebp+var_20], ebx
0x00407470	FF15D0AB4000	call    ds:__imp_??0?$CStringT@_WV?$StrTraitMFC_DLL@_WV?$ChTraitsCRT@_W@ATL@@@@@ATL@@QAE@PB_W@Z; ATL::CStringT<wchar_t,StrTraitMFC_DLL<wchar_t,ATL::ChTraitsCRT<wchar_t>>>::CStringT<wchar_t,StrTraitMFC_DLL<wchar_t,ATL::ChTraitsCRT<wchar_t>>>(wchar_t const *)
0x00407476	6A00	push    0
0x00407478	6A00	push    0
0x0040747a	6A00	push    0
0x0040747c	6A00	push    0
0x0040747e	68D8E14000	push    offset unk_40E1D8
0x00407483	8D4DB4	lea     ecx, [ebp+pvarg]
0x00407486	51	push    ecx
0x00407487	8D55EC	lea     edx, [ebp+var_14]
0x0040748a	83CB20	or      ebx, 20h
0x0040748d	C745FC5C000000	mov     [ebp+var_4], 5Ch
0x00407494	52	push    edx
0x00407495	8BCE	mov     ecx, esi
0x00407497	895DE0	mov     [ebp+var_20], ebx
0x0040749a	FFD7	call    edi ; CMFCPropertyGridProperty::CMFCPropertyGridProperty(ATL::CStringT<wchar_t,StrTraitMFC_DLL<wchar_t,ATL::ChTraitsCRT<wchar_t>>> const &,COleVariant const &,wchar_t const *,ulong,wchar_t const *,wchar_t const *,wchar_t const *); CMFCPropertyGridProperty::CMFCPropertyGridProperty(ATL::CStringT<wchar_t,StrTraitMFC_DLL<wchar_t,ATL::ChTraitsCRT<wchar_t>>> const &,COleVariant const &,wchar_t const *,ulong,wchar_t const *,wchar_t const *,wchar_t const *)
0x0040749c	EB02	jmp     short loc_4074A0
0x0040749e	33C0	xor     eax, eax
0x004074a0	C745FC5F000000	mov     [ebp+var_4], 5Fh
0x004074a7	8B4DF0	mov     ecx, [ebp+var_10]
0x004074aa	50	push    eax
0x004074ab	FF15D4AB4000	call    ds:__imp_?AddSubItem@CMFCPropertyGridProperty@@QAEHPAV1@@Z; CMFCPropertyGridProperty::AddSubItem(CMFCPropertyGridProperty *)
0x004074b1	F6C320	test    bl, 20h
0x004074b4	740F	jz      short loc_4074C5
0x004074b6	83E3DF	and     ebx, 0FFFFFFDFh
0x004074b9	8D4DEC	lea     ecx, [ebp+var_14]
0x004074bc	895DE0	mov     [ebp+var_20], ebx
0x004074bf	FF15CCA24000	call    ds:__imp_??1?$CStringT@_WV?$StrTraitMFC_DLL@_WV?$ChTraitsCRT@_W@ATL@@@@@ATL@@QAE@XZ; ATL::CStringT<wchar_t,StrTraitMFC_DLL<wchar_t,ATL::ChTraitsCRT<wchar_t>>>::~CStringT<wchar_t,StrTraitMFC_DLL<wchar_t,ATL::ChTraitsCRT<wchar_t>>>(void)
0x004074c5	F6C310	test    bl, 10h
0x004074c8	7410	jz      short loc_4074DA
0x004074ca	8D45B4	lea     eax, [ebp+pvarg]
0x004074cd	83E3EF	and     ebx, 0FFFFFFEFh
0x004074d0	50	push    eax; pvarg
0x004074d1	895DE0	mov     [ebp+var_20], ebx
0x004074d4	FF1510A14000	call    ds:__imp__VariantClear@4; VariantClear(x)
0x004074da	C745FCFFFFFFFF	mov     [ebp+var_4], 0FFFFFFFFh
0x004074e1	F6C308	test    bl, 8
0x004074e4	7410	jz      short loc_4074F6
0x004074e6	8D4DC8	lea     ecx, [ebp+var_38]
0x004074e9	83E3F7	and     ebx, 0FFFFFFF7h
0x004074ec	51	push    ecx; pvarg
0x004074ed	895DE0	mov     [ebp+var_20], ebx
0x004074f0	FF1510A14000	call    ds:__imp__VariantClear@4; VariantClear(x)
0x004074f6	68E4000000	push    0E4h
0x004074fb	FF15ACAD4000	call    ds:__imp_??2@YAPAXI@Z; operator new(uint)
0x00407501	8BF0	mov     esi, eax
0x00407503	83C404	add     esp, 4
0x00407506	8975EC	mov     [ebp+var_14], esi
0x00407509	C745FC60000000	mov     [ebp+var_4], 60h
0x00407510	85F6	test    esi, esi
0x00407512	0F8485000000	jz      loc_40759D
0x00407518	BA08000000	mov     edx, 8
0x0040751d	6804E24000	push    offset word_40E204; psz
0x00407522	668955A0	mov     word ptr [ebp+var_60.anonymous_0], dx
0x00407526	FF150CA14000	call    ds:__imp__SysAllocString@4; SysAllocString(x)
0x0040752c	8945A8	mov     dword ptr [ebp+var_60.anonymous_0+8], eax
0x0040752f	85C0	test    eax, eax
0x00407531	750A	jnz     short loc_40753D
0x00407533	680E000780	push    8007000Eh
0x00407538	E8B3190000	call    _com_issue_error
0x0040753d	8D45A0	lea     eax, [ebp+var_60]
0x00407540	C645FC61	mov     byte ptr [ebp+var_4], 61h
0x00407544	83CB40	or      ebx, 40h
0x00407547	50	push    eax
0x00407548	8D4D90	lea     ecx, [ebp+var_70]
0x0040754b	895DE0	mov     [ebp+var_20], ebx
0x0040754e	FF15DCAB4000	call    ds:__imp_??0COleVariant@@QAE@ABUtagVARIANT@@@Z; COleVariant::COleVariant(tagVARIANT const &)
0x00407554	C745FC62000000	mov     [ebp+var_4], 62h
0x0040755b	81CB80000000	or      ebx, 80h
0x00407561	680CE24000	push    offset unk_40E20C
0x00407566	8D4DE8	lea     ecx, [ebp+var_18]
0x00407569	895DE0	mov     [ebp+var_20], ebx
0x0040756c	FF15D0AB4000	call    ds:__imp_??0?$CStringT@_WV?$StrTraitMFC_DLL@_WV?$ChTraitsCRT@_W@ATL@@@@@ATL@@QAE@PB_W@Z; ATL::CStringT<wchar_t,StrTraitMFC_DLL<wchar_t,ATL::ChTraitsCRT<wchar_t>>>::CStringT<wchar_t,StrTraitMFC_DLL<wchar_t,ATL::ChTraitsCRT<wchar_t>>>(wchar_t const *)
0x00407572	6A00	push    0
0x00407574	6A00	push    0
0x00407576	6A00	push    0
0x00407578	6A00	push    0
0x0040757a	68D8E14000	push    offset unk_40E1D8
0x0040757f	8D4D90	lea     ecx, [ebp+var_70]
0x00407582	51	push    ecx
0x00407583	8D55E8	lea     edx, [ebp+var_18]
0x00407586	81CB00010000	or      ebx, 100h
0x0040758c	C745FC63000000	mov     [ebp+var_4], 63h
0x00407593	52	push    edx
0x00407594	8BCE	mov     ecx, esi
0x00407596	895DE0	mov     [ebp+var_20], ebx
0x00407599	FFD7	call    edi ; CMFCPropertyGridProperty::CMFCPropertyGridProperty(ATL::CStringT<wchar_t,StrTraitMFC_DLL<wchar_t,ATL::ChTraitsCRT<wchar_t>>> const &,COleVariant const &,wchar_t const *,ulong,wchar_t const *,wchar_t const *,wchar_t const *); CMFCPropertyGridProperty::CMFCPropertyGridProperty(ATL::CStringT<wchar_t,StrTraitMFC_DLL<wchar_t,ATL::ChTraitsCRT<wchar_t>>> const &,COleVariant const &,wchar_t const *,ulong,wchar_t const *,wchar_t const *,wchar_t const *)
0x0040759b	EB02	jmp     short loc_40759F
0x0040759d	33C0	xor     eax, eax
0x0040759f	C745FC66000000	mov     [ebp+var_4], 66h
0x004075a6	8B4DF0	mov     ecx, [ebp+var_10]
0x004075a9	50	push    eax
0x004075aa	FF15D4AB4000	call    ds:__imp_?AddSubItem@CMFCPropertyGridProperty@@QAEHPAV1@@Z; CMFCPropertyGridProperty::AddSubItem(CMFCPropertyGridProperty *)
0x004075b0	F7C300010000	test    ebx, 100h
0x004075b6	740F	jz      short loc_4075C7
0x004075b8	8D4DE8	lea     ecx, [ebp+var_18]
0x004075bb	81E3FFFEFFFF	and     ebx, 0FFFFFEFFh
0x004075c1	FF15CCA24000	call    ds:__imp_??1?$CStringT@_WV?$StrTraitMFC_DLL@_WV?$ChTraitsCRT@_W@ATL@@@@@ATL@@QAE@XZ; ATL::CStringT<wchar_t,StrTraitMFC_DLL<wchar_t,ATL::ChTraitsCRT<wchar_t>>>::~CStringT<wchar_t,StrTraitMFC_DLL<wchar_t,ATL::ChTraitsCRT<wchar_t>>>(void)
0x004075c7	84DB	test    bl, bl
0x004075c9	7910	jns     short loc_4075DB
0x004075cb	8D4590	lea     eax, [ebp+var_70]
0x004075ce	50	push    eax; pvarg
0x004075cf	81E37FFFFFFF	and     ebx, 0FFFFFF7Fh
0x004075d5	FF1510A14000	call    ds:__imp__VariantClear@4; VariantClear(x)
0x004075db	C745FCFFFFFFFF	mov     [ebp+var_4], 0FFFFFFFFh
0x004075e2	F6C340	test    bl, 40h
0x004075e5	740A	jz      short loc_4075F1
0x004075e7	8D4DA0	lea     ecx, [ebp+var_60]
0x004075ea	51	push    ecx; pvarg
0x004075eb	FF1510A14000	call    ds:__imp__VariantClear@4; VariantClear(x)
0x004075f1	8B75DC	mov     esi, [ebp+var_24]
0x004075f4	6A00	push    0
0x004075f6	8BCE	mov     ecx, esi
0x004075f8	FF1510AC4000	call    ds:__imp_?Expand@CMFCPropertyGridProperty@@QAEXH@Z; CMFCPropertyGridProperty::Expand(int)
0x004075fe	8B4DC4	mov     ecx, [ebp+var_3C]
0x00407601	6A01	push    1
0x00407603	6A01	push    1
0x00407605	56	push    esi
0x00407606	FF15E8AB4000	call    ds:__imp_?AddProperty@CMFCPropertyGridCtrl@@QAEHPAVCMFCPropertyGridProperty@@HH@Z; CMFCPropertyGridCtrl::AddProperty(CMFCPropertyGridProperty *,int,int)
0x0040760c	8B4DF4	mov     ecx, [ebp+var_C]
0x0040760f	5F	pop     edi
0x00407610	5E	pop     esi
0x00407611	64890D00000000	mov     large fs:0, ecx
0x00407618	5B	pop     ebx
0x00407619	8BE5	mov     esp, ebp
0x0040761b	5D	pop     ebp
0x0040761c	C3	retn
CPropertiesWnd::InitPropList:0x004093e0-0x00409927
0x004093e0	8B45E8	mov     eax, [ebp+var_18]
0x004093e3	E9087DFFFF	jmp     CObject__operator_delete
0x004093e8	8B45F0	mov     eax, [ebp+var_10]
0x004093eb	83E001	and     eax, 1
0x004093ee	0F840D000000	jz      locret_409401
0x004093f4	8365F0FE	and     [ebp+var_10], 0FFFFFFFEh
0x004093f8	8D4DEC	lea     ecx, [ebp+var_14]
0x004093fb	FF25CCA24000	jmp     ds:__imp_??1?$CStringT@_WV?$StrTraitMFC_DLL@_WV?$ChTraitsCRT@_W@ATL@@@@@ATL@@QAE@XZ; ATL::CStringT<wchar_t,StrTraitMFC_DLL<wchar_t,ATL::ChTraitsCRT<wchar_t>>>::~CStringT<wchar_t,StrTraitMFC_DLL<wchar_t,ATL::ChTraitsCRT<wchar_t>>>(void)
0x00409401	C3	retn
0x00409402	8B45E8	mov     eax, [ebp+var_18]
0x00409405	E9E67CFFFF	jmp     CObject__operator_delete
0x0040940a	8B45F0	mov     eax, [ebp+var_10]
0x0040940d	83E002	and     eax, 2
0x00409410	0F840C000000	jz      locret_409422
0x00409416	8365F0FD	and     [ebp+var_10], 0FFFFFFFDh
0x0040941a	8D45C8	lea     eax, [ebp+var_38]
0x0040941d	E92EE3FFFF	jmp     _variant_t____variant_t
0x00409422	C3	retn
0x00409423	8B45F0	mov     eax, [ebp+var_10]
0x00409426	83E004	and     eax, 4
0x00409429	0F840C000000	jz      locret_40943B
0x0040942f	8365F0FB	and     [ebp+var_10], 0FFFFFFFBh
0x00409433	8D45B4	lea     eax, [ebp+pvarg]
0x00409436	E915E3FFFF	jmp     _variant_t____variant_t
0x0040943b	C3	retn
0x0040943c	8B45F0	mov     eax, [ebp+var_10]
0x0040943f	83E008	and     eax, 8
0x00409442	0F840D000000	jz      locret_409455
0x00409448	8365F0F7	and     [ebp+var_10], 0FFFFFFF7h
0x0040944c	8D4DE4	lea     ecx, [ebp+var_1C]
0x0040944f	FF25CCA24000	jmp     ds:__imp_??1?$CStringT@_WV?$StrTraitMFC_DLL@_WV?$ChTraitsCRT@_W@ATL@@@@@ATL@@QAE@XZ; ATL::CStringT<wchar_t,StrTraitMFC_DLL<wchar_t,ATL::ChTraitsCRT<wchar_t>>>::~CStringT<wchar_t,StrTraitMFC_DLL<wchar_t,ATL::ChTraitsCRT<wchar_t>>>(void)
0x00409455	C3	retn
0x00409456	8B45E8	mov     eax, [ebp+var_18]
0x00409459	E9927CFFFF	jmp     CObject__operator_delete
0x0040945e	8B45F0	mov     eax, [ebp+var_10]
0x00409461	83E010	and     eax, 10h
0x00409464	0F840C000000	jz      locret_409476
0x0040946a	8365F0EF	and     [ebp+var_10], 0FFFFFFEFh
0x0040946e	8D45C8	lea     eax, [ebp+var_38]
0x00409471	E9DAE2FFFF	jmp     _variant_t____variant_t
0x00409476	C3	retn
0x00409477	8B45F0	mov     eax, [ebp+var_10]
0x0040947a	83E020	and     eax, 20h
0x0040947d	0F840D000000	jz      locret_409490
0x00409483	8365F0DF	and     [ebp+var_10], 0FFFFFFDFh
0x00409487	8D4DE4	lea     ecx, [ebp+var_1C]
0x0040948a	FF25CCA24000	jmp     ds:__imp_??1?$CStringT@_WV?$StrTraitMFC_DLL@_WV?$ChTraitsCRT@_W@ATL@@@@@ATL@@QAE@XZ; ATL::CStringT<wchar_t,StrTraitMFC_DLL<wchar_t,ATL::ChTraitsCRT<wchar_t>>>::~CStringT<wchar_t,StrTraitMFC_DLL<wchar_t,ATL::ChTraitsCRT<wchar_t>>>(void)
0x00409490	C3	retn
0x00409491	8B45E8	mov     eax, [ebp+var_18]
0x00409494	E9577CFFFF	jmp     CObject__operator_delete
0x00409499	8B45F0	mov     eax, [ebp+var_10]
0x0040949c	83E040	and     eax, 40h
0x0040949f	0F840C000000	jz      locret_4094B1
0x004094a5	8365F0BF	and     [ebp+var_10], 0FFFFFFBFh
0x004094a9	8D45C8	lea     eax, [ebp+var_38]
0x004094ac	E99FE2FFFF	jmp     _variant_t____variant_t
0x004094b1	C3	retn
0x004094b2	8B45F0	mov     eax, [ebp+var_10]
0x004094b5	2580000000	and     eax, 80h
0x004094ba	0F840F000000	jz      locret_4094CF
0x004094c0	8165F07FFFFFFF	and     [ebp+var_10], 0FFFFFF7Fh
0x004094c7	8D45B4	lea     eax, [ebp+pvarg]
0x004094ca	E981E2FFFF	jmp     _variant_t____variant_t
0x004094cf	C3	retn
0x004094d0	8B45F0	mov     eax, [ebp+var_10]
0x004094d3	2500010000	and     eax, 100h
0x004094d8	0F8410000000	jz      locret_4094EE
0x004094de	8165F0FFFEFFFF	and     [ebp+var_10], 0FFFFFEFFh
0x004094e5	8D4DE4	lea     ecx, [ebp+var_1C]
0x004094e8	FF25CCA24000	jmp     ds:__imp_??1?$CStringT@_WV?$StrTraitMFC_DLL@_WV?$ChTraitsCRT@_W@ATL@@@@@ATL@@QAE@XZ; ATL::CStringT<wchar_t,StrTraitMFC_DLL<wchar_t,ATL::ChTraitsCRT<wchar_t>>>::~CStringT<wchar_t,StrTraitMFC_DLL<wchar_t,ATL::ChTraitsCRT<wchar_t>>>(void)
0x004094ee	C3	retn
0x004094ef	8B45E8	mov     eax, [ebp+var_18]
0x004094f2	E9F97BFFFF	jmp     CObject__operator_delete
0x004094f7	8B45F0	mov     eax, [ebp+var_10]
0x004094fa	2500020000	and     eax, 200h
0x004094ff	0F8410000000	jz      locret_409515
0x00409505	8165F0FFFDFFFF	and     [ebp+var_10], 0FFFFFDFFh
0x0040950c	8D4DE4	lea     ecx, [ebp+var_1C]
0x0040950f	FF25CCA24000	jmp     ds:__imp_??1?$CStringT@_WV?$StrTraitMFC_DLL@_WV?$ChTraitsCRT@_W@ATL@@@@@ATL@@QAE@XZ; ATL::CStringT<wchar_t,StrTraitMFC_DLL<wchar_t,ATL::ChTraitsCRT<wchar_t>>>::~CStringT<wchar_t,StrTraitMFC_DLL<wchar_t,ATL::ChTraitsCRT<wchar_t>>>(void)
0x00409515	C3	retn
0x00409516	8B45E8	mov     eax, [ebp+var_18]
0x00409519	E9D27BFFFF	jmp     CObject__operator_delete
0x0040951e	8B45F0	mov     eax, [ebp+var_10]
0x00409521	2500040000	and     eax, 400h
0x00409526	0F840F000000	jz      locret_40953B
0x0040952c	8165F0FFFBFFFF	and     [ebp+var_10], 0FFFFFBFFh
0x00409533	8D45C8	lea     eax, [ebp+var_38]
0x00409536	E915E2FFFF	jmp     _variant_t____variant_t
0x0040953b	C3	retn
0x0040953c	8B45F0	mov     eax, [ebp+var_10]
0x0040953f	2500080000	and     eax, 800h
0x00409544	0F840F000000	jz      locret_409559
0x0040954a	8165F0FFF7FFFF	and     [ebp+var_10], 0FFFFF7FFh
0x00409551	8D45B4	lea     eax, [ebp+pvarg]
0x00409554	E9F7E1FFFF	jmp     _variant_t____variant_t
0x00409559	C3	retn
0x0040955a	8B45F0	mov     eax, [ebp+var_10]
0x0040955d	2500100000	and     eax, 1000h
0x00409562	0F8410000000	jz      locret_409578
0x00409568	8165F0FFEFFFFF	and     [ebp+var_10], 0FFFFEFFFh
0x0040956f	8D4DEC	lea     ecx, [ebp+var_14]
0x00409572	FF25CCA24000	jmp     ds:__imp_??1?$CStringT@_WV?$StrTraitMFC_DLL@_WV?$ChTraitsCRT@_W@ATL@@@@@ATL@@QAE@XZ; ATL::CStringT<wchar_t,StrTraitMFC_DLL<wchar_t,ATL::ChTraitsCRT<wchar_t>>>::~CStringT<wchar_t,StrTraitMFC_DLL<wchar_t,ATL::ChTraitsCRT<wchar_t>>>(void)
0x00409578	C3	retn
0x00409579	8B45E8	mov     eax, [ebp+var_18]
0x0040957c	E96F7BFFFF	jmp     CObject__operator_delete
0x00409581	8B45F0	mov     eax, [ebp+var_10]
0x00409584	2500200000	and     eax, 2000h
0x00409589	0F840F000000	jz      locret_40959E
0x0040958f	8165F0FFDFFFFF	and     [ebp+var_10], 0FFFFDFFFh
0x00409596	8D45C8	lea     eax, [ebp+var_38]
0x00409599	E9B2E1FFFF	jmp     _variant_t____variant_t
0x0040959e	C3	retn
0x0040959f	8B45F0	mov     eax, [ebp+var_10]
0x004095a2	2500400000	and     eax, 4000h
0x004095a7	0F840F000000	jz      locret_4095BC
0x004095ad	8165F0FFBFFFFF	and     [ebp+var_10], 0FFFFBFFFh
0x004095b4	8D45B4	lea     eax, [ebp+pvarg]
0x004095b7	E994E1FFFF	jmp     _variant_t____variant_t
0x004095bc	C3	retn
0x004095bd	8B45F0	mov     eax, [ebp+var_10]
0x004095c0	2500800000	and     eax, 8000h
0x004095c5	0F8410000000	jz      locret_4095DB
0x004095cb	8165F0FF7FFFFF	and     [ebp+var_10], 0FFFF7FFFh
0x004095d2	8D4DEC	lea     ecx, [ebp+var_14]
0x004095d5	FF25CCA24000	jmp     ds:__imp_??1?$CStringT@_WV?$StrTraitMFC_DLL@_WV?$ChTraitsCRT@_W@ATL@@@@@ATL@@QAE@XZ; ATL::CStringT<wchar_t,StrTraitMFC_DLL<wchar_t,ATL::ChTraitsCRT<wchar_t>>>::~CStringT<wchar_t,StrTraitMFC_DLL<wchar_t,ATL::ChTraitsCRT<wchar_t>>>(void)
0x004095db	C3	retn
0x004095dc	8B45E8	mov     eax, [ebp+var_18]
0x004095df	E90C7BFFFF	jmp     CObject__operator_delete
0x004095e4	8B45F0	mov     eax, [ebp+var_10]
0x004095e7	2500000100	and     eax, 10000h
0x004095ec	0F8410000000	jz      locret_409602
0x004095f2	8165F0FFFFFEFF	and     [ebp+var_10], 0FFFEFFFFh
0x004095f9	8D4DE4	lea     ecx, [ebp+var_1C]
0x004095fc	FF25CCA24000	jmp     ds:__imp_??1?$CStringT@_WV?$StrTraitMFC_DLL@_WV?$ChTraitsCRT@_W@ATL@@@@@ATL@@QAE@XZ; ATL::CStringT<wchar_t,StrTraitMFC_DLL<wchar_t,ATL::ChTraitsCRT<wchar_t>>>::~CStringT<wchar_t,StrTraitMFC_DLL<wchar_t,ATL::ChTraitsCRT<wchar_t>>>(void)
0x00409602	C3	retn
0x00409603	8B45E8	mov     eax, [ebp+var_18]
0x00409606	E9E57AFFFF	jmp     CObject__operator_delete
0x0040960b	8B45F0	mov     eax, [ebp+var_10]
0x0040960e	2500000200	and     eax, 20000h
0x00409613	0F8410000000	jz      locret_409629
0x00409619	8165F0FFFFFDFF	and     [ebp+var_10], 0FFFDFFFFh
0x00409620	8D4DEC	lea     ecx, [ebp+var_14]
0x00409623	FF25CCA24000	jmp     ds:__imp_??1?$CStringT@_WV?$StrTraitMFC_DLL@_WV?$ChTraitsCRT@_W@ATL@@@@@ATL@@QAE@XZ; ATL::CStringT<wchar_t,StrTraitMFC_DLL<wchar_t,ATL::ChTraitsCRT<wchar_t>>>::~CStringT<wchar_t,StrTraitMFC_DLL<wchar_t,ATL::ChTraitsCRT<wchar_t>>>(void)
0x00409629	C3	retn
0x0040962a	8B45E8	mov     eax, [ebp+var_18]
0x0040962d	E9BE7AFFFF	jmp     CObject__operator_delete
0x00409632	8B45F0	mov     eax, [ebp+var_10]
0x00409635	2500000400	and     eax, 40000h
0x0040963a	0F840F000000	jz      locret_40964F
0x00409640	8165F0FFFFFBFF	and     [ebp+var_10], 0FFFBFFFFh
0x00409647	8D45C8	lea     eax, [ebp+var_38]
0x0040964a	E901E1FFFF	jmp     _variant_t____variant_t
0x0040964f	C3	retn
0x00409650	8B45F0	mov     eax, [ebp+var_10]
0x00409653	2500000800	and     eax, 80000h
0x00409658	0F840F000000	jz      locret_40966D
0x0040965e	8165F0FFFFF7FF	and     [ebp+var_10], 0FFF7FFFFh
0x00409665	8D45B4	lea     eax, [ebp+pvarg]
0x00409668	E9E3E0FFFF	jmp     _variant_t____variant_t
0x0040966d	C3	retn
0x0040966e	8B45F0	mov     eax, [ebp+var_10]
0x00409671	2500001000	and     eax, 100000h
0x00409676	0F8410000000	jz      locret_40968C
0x0040967c	8165F0FFFFEFFF	and     [ebp+var_10], 0FFEFFFFFh
0x00409683	8D4DEC	lea     ecx, [ebp+var_14]
0x00409686	FF25CCA24000	jmp     ds:__imp_??1?$CStringT@_WV?$StrTraitMFC_DLL@_WV?$ChTraitsCRT@_W@ATL@@@@@ATL@@QAE@XZ; ATL::CStringT<wchar_t,StrTraitMFC_DLL<wchar_t,ATL::ChTraitsCRT<wchar_t>>>::~CStringT<wchar_t,StrTraitMFC_DLL<wchar_t,ATL::ChTraitsCRT<wchar_t>>>(void)
0x0040968c	C3	retn
0x0040968d	8B45E8	mov     eax, [ebp+var_18]
0x00409690	E95B7AFFFF	jmp     CObject__operator_delete
0x00409695	8B45F0	mov     eax, [ebp+var_10]
0x00409698	2500002000	and     eax, 200000h
0x0040969d	0F8410000000	jz      locret_4096B3
0x004096a3	8165F0FFFFDFFF	and     [ebp+var_10], 0FFDFFFFFh
0x004096aa	8D4DE4	lea     ecx, [ebp+var_1C]
0x004096ad	FF25CCA24000	jmp     ds:__imp_??1?$CStringT@_WV?$StrTraitMFC_DLL@_WV?$ChTraitsCRT@_W@ATL@@@@@ATL@@QAE@XZ; ATL::CStringT<wchar_t,StrTraitMFC_DLL<wchar_t,ATL::ChTraitsCRT<wchar_t>>>::~CStringT<wchar_t,StrTraitMFC_DLL<wchar_t,ATL::ChTraitsCRT<wchar_t>>>(void)
0x004096b3	C3	retn
0x004096b4	8B45E8	mov     eax, [ebp+var_18]
0x004096b7	E9347AFFFF	jmp     CObject__operator_delete
0x004096bc	8B45F0	mov     eax, [ebp+var_10]
0x004096bf	2500004000	and     eax, 400000h
0x004096c4	0F840F000000	jz      locret_4096D9
0x004096ca	8165F0FFFFBFFF	and     [ebp+var_10], 0FFBFFFFFh
0x004096d1	8D45C8	lea     eax, [ebp+var_38]
0x004096d4	E977E0FFFF	jmp     _variant_t____variant_t
0x004096d9	C3	retn
0x004096da	8B45F0	mov     eax, [ebp+var_10]
0x004096dd	2500008000	and     eax, 800000h
0x004096e2	0F8410000000	jz      locret_4096F8
0x004096e8	8165F0FFFF7FFF	and     [ebp+var_10], 0FF7FFFFFh
0x004096ef	8D4DEC	lea     ecx, [ebp+var_14]
0x004096f2	FF25CCA24000	jmp     ds:__imp_??1?$CStringT@_WV?$StrTraitMFC_DLL@_WV?$ChTraitsCRT@_W@ATL@@@@@ATL@@QAE@XZ; ATL::CStringT<wchar_t,StrTraitMFC_DLL<wchar_t,ATL::ChTraitsCRT<wchar_t>>>::~CStringT<wchar_t,StrTraitMFC_DLL<wchar_t,ATL::ChTraitsCRT<wchar_t>>>(void)
0x004096f8	C3	retn
0x004096f9	8B45E8	mov     eax, [ebp+var_18]
0x004096fc	E9EF79FFFF	jmp     CObject__operator_delete
0x00409701	8B45F0	mov     eax, [ebp+var_10]
0x00409704	2500000001	and     eax, 1000000h
0x00409709	0F8410000000	jz      locret_40971F
0x0040970f	8165F0FFFFFFFE	and     [ebp+var_10], 0FEFFFFFFh
0x00409716	8D4DEC	lea     ecx, [ebp+var_14]
0x00409719	FF25CCA24000	jmp     ds:__imp_??1?$CStringT@_WV?$StrTraitMFC_DLL@_WV?$ChTraitsCRT@_W@ATL@@@@@ATL@@QAE@XZ; ATL::CStringT<wchar_t,StrTraitMFC_DLL<wchar_t,ATL::ChTraitsCRT<wchar_t>>>::~CStringT<wchar_t,StrTraitMFC_DLL<wchar_t,ATL::ChTraitsCRT<wchar_t>>>(void)
0x0040971f	C3	retn
0x00409720	8B45E8	mov     eax, [ebp+var_18]
0x00409723	E9C879FFFF	jmp     CObject__operator_delete
0x00409728	8B45F0	mov     eax, [ebp+var_10]
0x0040972b	2500000002	and     eax, 2000000h
0x00409730	0F8410000000	jz      locret_409746
0x00409736	8165F0FFFFFFFD	and     [ebp+var_10], 0FDFFFFFFh
0x0040973d	8D4DDC	lea     ecx, [ebp+var_24]
0x00409740	FF25CCA24000	jmp     ds:__imp_??1?$CStringT@_WV?$StrTraitMFC_DLL@_WV?$ChTraitsCRT@_W@ATL@@@@@ATL@@QAE@XZ; ATL::CStringT<wchar_t,StrTraitMFC_DLL<wchar_t,ATL::ChTraitsCRT<wchar_t>>>::~CStringT<wchar_t,StrTraitMFC_DLL<wchar_t,ATL::ChTraitsCRT<wchar_t>>>(void)
0x00409746	C3	retn
0x00409747	8B45F0	mov     eax, [ebp+var_10]
0x0040974a	2500000004	and     eax, 4000000h
0x0040974f	0F8410000000	jz      locret_409765
0x00409755	8165F0FFFFFFFB	and     [ebp+var_10], 0FBFFFFFFh
0x0040975c	8D4DEC	lea     ecx, [ebp+var_14]
0x0040975f	FF25CCA24000	jmp     ds:__imp_??1?$CStringT@_WV?$StrTraitMFC_DLL@_WV?$ChTraitsCRT@_W@ATL@@@@@ATL@@QAE@XZ; ATL::CStringT<wchar_t,StrTraitMFC_DLL<wchar_t,ATL::ChTraitsCRT<wchar_t>>>::~CStringT<wchar_t,StrTraitMFC_DLL<wchar_t,ATL::ChTraitsCRT<wchar_t>>>(void)
0x00409765	C3	retn
0x00409766	8B45E8	mov     eax, [ebp+var_18]
0x00409769	E98279FFFF	jmp     CObject__operator_delete
0x0040976e	8B45F0	mov     eax, [ebp+var_10]
0x00409771	2500000008	and     eax, 8000000h
0x00409776	0F8410000000	jz      locret_40978C
0x0040977c	8165F0FFFFFFF7	and     [ebp+var_10], 0F7FFFFFFh
0x00409783	8D4DDC	lea     ecx, [ebp+var_24]
0x00409786	FF25CCA24000	jmp     ds:__imp_??1?$CStringT@_WV?$StrTraitMFC_DLL@_WV?$ChTraitsCRT@_W@ATL@@@@@ATL@@QAE@XZ; ATL::CStringT<wchar_t,StrTraitMFC_DLL<wchar_t,ATL::ChTraitsCRT<wchar_t>>>::~CStringT<wchar_t,StrTraitMFC_DLL<wchar_t,ATL::ChTraitsCRT<wchar_t>>>(void)
0x0040978c	C3	retn
0x0040978d	8B45F0	mov     eax, [ebp+var_10]
0x00409790	2500000010	and     eax, 10000000h
0x00409795	0F8410000000	jz      locret_4097AB
0x0040979b	8165F0FFFFFFEF	and     [ebp+var_10], 0EFFFFFFFh
0x004097a2	8D4DEC	lea     ecx, [ebp+var_14]
0x004097a5	FF25CCA24000	jmp     ds:__imp_??1?$CStringT@_WV?$StrTraitMFC_DLL@_WV?$ChTraitsCRT@_W@ATL@@@@@ATL@@QAE@XZ; ATL::CStringT<wchar_t,StrTraitMFC_DLL<wchar_t,ATL::ChTraitsCRT<wchar_t>>>::~CStringT<wchar_t,StrTraitMFC_DLL<wchar_t,ATL::ChTraitsCRT<wchar_t>>>(void)
0x004097ab	C3	retn
0x004097ac	8B45E8	mov     eax, [ebp+var_18]
0x004097af	E93C79FFFF	jmp     CObject__operator_delete
0x004097b4	8B45F0	mov     eax, [ebp+var_10]
0x004097b7	2500000020	and     eax, 20000000h
0x004097bc	0F8410000000	jz      locret_4097D2
0x004097c2	8165F0FFFFFFDF	and     [ebp+var_10], 0DFFFFFFFh
0x004097c9	8D4DE4	lea     ecx, [ebp+var_1C]
0x004097cc	FF25CCA24000	jmp     ds:__imp_??1?$CStringT@_WV?$StrTraitMFC_DLL@_WV?$ChTraitsCRT@_W@ATL@@@@@ATL@@QAE@XZ; ATL::CStringT<wchar_t,StrTraitMFC_DLL<wchar_t,ATL::ChTraitsCRT<wchar_t>>>::~CStringT<wchar_t,StrTraitMFC_DLL<wchar_t,ATL::ChTraitsCRT<wchar_t>>>(void)
0x004097d2	C3	retn
0x004097d3	8B45E8	mov     eax, [ebp+var_18]
0x004097d6	E91579FFFF	jmp     CObject__operator_delete
0x004097db	8B45F0	mov     eax, [ebp+var_10]
0x004097de	2500000040	and     eax, 40000000h
0x004097e3	0F8410000000	jz      locret_4097F9
0x004097e9	8165F0FFFFFFBF	and     [ebp+var_10], 0BFFFFFFFh
0x004097f0	8D4DEC	lea     ecx, [ebp+var_14]
0x004097f3	FF25CCA24000	jmp     ds:__imp_??1?$CStringT@_WV?$StrTraitMFC_DLL@_WV?$ChTraitsCRT@_W@ATL@@@@@ATL@@QAE@XZ; ATL::CStringT<wchar_t,StrTraitMFC_DLL<wchar_t,ATL::ChTraitsCRT<wchar_t>>>::~CStringT<wchar_t,StrTraitMFC_DLL<wchar_t,ATL::ChTraitsCRT<wchar_t>>>(void)
0x004097f9	C3	retn
0x004097fa	8B45E8	mov     eax, [ebp+var_18]
0x004097fd	E9EE78FFFF	jmp     CObject__operator_delete
0x00409802	8B45F0	mov     eax, [ebp+var_10]
0x00409805	2500000080	and     eax, 80000000h
0x0040980a	0F8410000000	jz      locret_409820
0x00409810	8165F0FFFFFF7F	and     [ebp+var_10], 7FFFFFFFh
0x00409817	8D4DB0	lea     ecx, [ebp+var_50]
0x0040981a	FF25CCA24000	jmp     ds:__imp_??1?$CStringT@_WV?$StrTraitMFC_DLL@_WV?$ChTraitsCRT@_W@ATL@@@@@ATL@@QAE@XZ; ATL::CStringT<wchar_t,StrTraitMFC_DLL<wchar_t,ATL::ChTraitsCRT<wchar_t>>>::~CStringT<wchar_t,StrTraitMFC_DLL<wchar_t,ATL::ChTraitsCRT<wchar_t>>>(void)
0x00409820	C3	retn
0x00409821	8B45E8	mov     eax, [ebp+var_18]
0x00409824	E9C778FFFF	jmp     CObject__operator_delete
0x00409829	8B45E0	mov     eax, [ebp+var_20]
0x0040982c	83E001	and     eax, 1
0x0040982f	0F840C000000	jz      locret_409841
0x00409835	8365E0FE	and     [ebp+var_20], 0FFFFFFFEh
0x00409839	8D45C8	lea     eax, [ebp+var_38]
0x0040983c	E90FDFFFFF	jmp     _variant_t____variant_t
0x00409841	C3	retn
0x00409842	8B45E0	mov     eax, [ebp+var_20]
0x00409845	83E002	and     eax, 2
0x00409848	0F840C000000	jz      locret_40985A
0x0040984e	8365E0FD	and     [ebp+var_20], 0FFFFFFFDh
0x00409852	8D45B4	lea     eax, [ebp+pvarg]
0x00409855	E9F6DEFFFF	jmp     _variant_t____variant_t
0x0040985a	C3	retn
0x0040985b	8B45E0	mov     eax, [ebp+var_20]
0x0040985e	83E004	and     eax, 4
0x00409861	0F840D000000	jz      locret_409874
0x00409867	8365E0FB	and     [ebp+var_20], 0FFFFFFFBh
0x0040986b	8D4DEC	lea     ecx, [ebp+var_14]
0x0040986e	FF25CCA24000	jmp     ds:__imp_??1?$CStringT@_WV?$StrTraitMFC_DLL@_WV?$ChTraitsCRT@_W@ATL@@@@@ATL@@QAE@XZ; ATL::CStringT<wchar_t,StrTraitMFC_DLL<wchar_t,ATL::ChTraitsCRT<wchar_t>>>::~CStringT<wchar_t,StrTraitMFC_DLL<wchar_t,ATL::ChTraitsCRT<wchar_t>>>(void)
0x00409874	C3	retn
0x00409875	8B45E8	mov     eax, [ebp+var_18]
0x00409878	E97378FFFF	jmp     CObject__operator_delete
0x0040987d	8B45E0	mov     eax, [ebp+var_20]
0x00409880	83E008	and     eax, 8
0x00409883	0F840C000000	jz      locret_409895
0x00409889	8365E0F7	and     [ebp+var_20], 0FFFFFFF7h
0x0040988d	8D45C8	lea     eax, [ebp+var_38]
0x00409890	E9BBDEFFFF	jmp     _variant_t____variant_t
0x00409895	C3	retn
0x00409896	8B45E0	mov     eax, [ebp+var_20]
0x00409899	83E010	and     eax, 10h
0x0040989c	0F840C000000	jz      locret_4098AE
0x004098a2	8365E0EF	and     [ebp+var_20], 0FFFFFFEFh
0x004098a6	8D45B4	lea     eax, [ebp+pvarg]
0x004098a9	E9A2DEFFFF	jmp     _variant_t____variant_t
0x004098ae	C3	retn
0x004098af	8B45E0	mov     eax, [ebp+var_20]
0x004098b2	83E020	and     eax, 20h
0x004098b5	0F840D000000	jz      locret_4098C8
0x004098bb	8365E0DF	and     [ebp+var_20], 0FFFFFFDFh
0x004098bf	8D4DEC	lea     ecx, [ebp+var_14]
0x004098c2	FF25CCA24000	jmp     ds:__imp_??1?$CStringT@_WV?$StrTraitMFC_DLL@_WV?$ChTraitsCRT@_W@ATL@@@@@ATL@@QAE@XZ; ATL::CStringT<wchar_t,StrTraitMFC_DLL<wchar_t,ATL::ChTraitsCRT<wchar_t>>>::~CStringT<wchar_t,StrTraitMFC_DLL<wchar_t,ATL::ChTraitsCRT<wchar_t>>>(void)
0x004098c8	C3	retn
0x004098c9	8B45EC	mov     eax, [ebp+var_14]
0x004098cc	E91F78FFFF	jmp     CObject__operator_delete
0x004098d1	8B45E0	mov     eax, [ebp+var_20]
0x004098d4	83E040	and     eax, 40h
0x004098d7	0F840C000000	jz      locret_4098E9
0x004098dd	8365E0BF	and     [ebp+var_20], 0FFFFFFBFh
0x004098e1	8D45A0	lea     eax, [ebp+var_60]
0x004098e4	E967DEFFFF	jmp     _variant_t____variant_t
0x004098e9	C3	retn
0x004098ea	8B45E0	mov     eax, [ebp+var_20]
0x004098ed	2580000000	and     eax, 80h
0x004098f2	0F840F000000	jz      locret_409907
0x004098f8	8165E07FFFFFFF	and     [ebp+var_20], 0FFFFFF7Fh
0x004098ff	8D4590	lea     eax, [ebp+var_70]
0x00409902	E949DEFFFF	jmp     _variant_t____variant_t
0x00409907	C3	retn
0x00409908	8B45E0	mov     eax, [ebp+var_20]
0x0040990b	2500010000	and     eax, 100h
0x00409910	0F8410000000	jz      locret_409926
0x00409916	8165E0FFFEFFFF	and     [ebp+var_20], 0FFFFFEFFh
0x0040991d	8D4DE8	lea     ecx, [ebp+var_18]
0x00409920	FF25CCA24000	jmp     ds:__imp_??1?$CStringT@_WV?$StrTraitMFC_DLL@_WV?$ChTraitsCRT@_W@ATL@@@@@ATL@@QAE@XZ; ATL::CStringT<wchar_t,StrTraitMFC_DLL<wchar_t,ATL::ChTraitsCRT<wchar_t>>>::~CStringT<wchar_t,StrTraitMFC_DLL<wchar_t,ATL::ChTraitsCRT<wchar_t>>>(void)
0x00409926	C3	retn
CPropertiesWnd::OnSetFocus:0x00407620-0x00407641
0x00407620	55	push    ebp
0x00407621	8BEC	mov     ebp, esp
0x00407623	8B4508	mov     eax, [ebp+arg_0]
0x00407626	56	push    esi
0x00407627	50	push    eax
0x00407628	8BF1	mov     esi, ecx
0x0040762a	FF15BCA24000	call    ds:__imp_?OnSetFocus@CDockablePane@@IAEXPAVCWnd@@@Z; CDockablePane::OnSetFocus(CWnd *)
0x00407630	8D8E94100000	lea     ecx, [esi+1094h]
0x00407636	FF1580A24000	call    ds:__imp_?SetFocus@CWnd@@QAEPAV1@XZ; CWnd::SetFocus(void)
0x0040763c	5E	pop     esi
0x0040763d	5D	pop     ebp
0x0040763e	C20400	retn    4
CPropertiesWnd::OnSettingChange:0x00407650-0x00407670
0x00407650	55	push    ebp
0x00407651	8BEC	mov     ebp, esp
0x00407653	8B450C	mov     eax, [ebp+arg_4]
0x00407656	57	push    edi
0x00407657	8BF9	mov     edi, ecx
0x00407659	8B4D08	mov     ecx, [ebp+arg_0]
0x0040765c	50	push    eax
0x0040765d	51	push    ecx
0x0040765e	8BCF	mov     ecx, edi
0x00407660	FF1514AC4000	call    ds:__imp_?OnSettingChange@CDockablePane@@IAEXIPB_W@Z; CDockablePane::OnSettingChange(uint,wchar_t const *)
0x00407666	E805000000	call    CPropertiesWnd__SetPropListFont
0x0040766b	5F	pop     edi
0x0040766c	5D	pop     ebp
0x0040766d	C20800	retn    8
CPropertiesWnd::SetPropListFont:0x00407670-0x00407749
0x00407670	55	push    ebp
0x00407671	8BEC	mov     ebp, esp
0x00407673	83E4F8	and     esp, 0FFFFFFF8h
0x00407676	81EC58020000	sub     esp, 258h
0x0040767c	53	push    ebx
0x0040767d	56	push    esi
0x0040767e	8DB750030000	lea     esi, [edi+350h]
0x00407684	8BCE	mov     ecx, esi
0x00407686	FF1518AC4000	call    ds:__imp_?Detach@CGdiObject@@QAEPAXXZ; CGdiObject::Detach(void)
0x0040768c	50	push    eax; ho
0x0040768d	FF1508A04000	call    ds:__imp__DeleteObject@4; DeleteObject(x)
0x00407693	8B0DB0A44000	mov     ecx, ds:__imp_?afxGlobalData@@3UAFX_GLOBAL_DATA@@A; AFX_GLOBAL_DATA afxGlobalData
0x00407699	8B9118010000	mov     edx, [ecx+118h]
0x0040769f	8D442408	lea     eax, [esp+260h+pv]
0x004076a3	50	push    eax; pv
0x004076a4	6A5C	push    5Ch; c
0x004076a6	52	push    edx; h
0x004076a7	FF1514A04000	call    ds:__imp__GetObjectW@12; GetObjectW(x,x,x)
0x004076ad	8B0DB0A44000	mov     ecx, ds:__imp_?afxGlobalData@@3UAFX_GLOBAL_DATA@@A; AFX_GLOBAL_DATA afxGlobalData
0x004076b3	8D442468	lea     eax, [esp+260h+var_1F8]
0x004076b7	50	push    eax
0x004076b8	C744246CF8010000	mov     [esp+264h+var_1F8], 1F8h
0x004076c0	FF151CAC4000	call    ds:__imp_?GetNonClientMetrics@AFX_GLOBAL_DATA@@QAEHAAUtagNONCLIENTMETRICSW@@@Z; AFX_GLOBAL_DATA::GetNonClientMetrics(tagNONCLIENTMETRICSW &)
0x004076c6	8B8C2448010000	mov     ecx, [esp+260h+var_118]
0x004076cd	8B942458010000	mov     edx, [esp+260h+var_108]
0x004076d4	8A84245C010000	mov     al, [esp+260h+var_104]
0x004076db	894C2408	mov     dword ptr [esp+260h+pv], ecx
0x004076df	8D4C2408	lea     ecx, [esp+260h+pv]
0x004076e3	51	push    ecx; lplf
0x004076e4	8954241C	mov     dword ptr [esp+264h+var_248], edx
0x004076e8	88442420	mov     [esp+264h+var_244], al
0x004076ec	FF150CA04000	call    ds:__imp__CreateFontIndirectW@4; CreateFontIndirectW(x)
0x004076f2	50	push    eax
0x004076f3	8BCE	mov     ecx, esi
0x004076f5	FF15DCA24000	call    ds:__imp_?Attach@CGdiObject@@QAEHPAX@Z; CGdiObject::Attach(void *)
0x004076fb	85F6	test    esi, esi
0x004076fd	7504	jnz     short loc_407703
0x004076ff	33C0	xor     eax, eax
0x00407701	EB03	jmp     short loc_407706
0x00407703	8B4604	mov     eax, [esi+4]
0x00407706	8B97B4100000	mov     edx, [edi+10B4h]
0x0040770c	8B1D5CA14000	mov     ebx, ds:__imp__SendMessageW@16; SendMessageW(x,x,x,x)
0x00407712	6A01	push    1; lParam
0x00407714	50	push    eax; wParam
0x00407715	6A30	push    30h; Msg
0x00407717	52	push    edx; hWnd
0x00407718	FFD3	call    ebx ; SendMessageW(x,x,x,x); SendMessageW(x,x,x,x)
0x0040771a	85F6	test    esi, esi
0x0040771c	7514	jnz     short loc_407732
0x0040771e	8B8778030000	mov     eax, [edi+378h]
0x00407724	6A01	push    1; lParam
0x00407726	56	push    esi; wParam
0x00407727	6A30	push    30h; Msg
0x00407729	50	push    eax; hWnd
0x0040772a	FFD3	call    ebx ; SendMessageW(x,x,x,x); SendMessageW(x,x,x,x)
0x0040772c	5E	pop     esi
0x0040772d	5B	pop     ebx
0x0040772e	8BE5	mov     esp, ebp
0x00407730	5D	pop     ebp
0x00407731	C3	retn
0x00407732	8B7604	mov     esi, [esi+4]
0x00407735	8B8778030000	mov     eax, [edi+378h]
0x0040773b	6A01	push    1; lParam
0x0040773d	56	push    esi; wParam
0x0040773e	6A30	push    30h; Msg
0x00407740	50	push    eax; hWnd
0x00407741	FFD3	call    ebx ; SendMessageW(x,x,x,x); SendMessageW(x,x,x,x)
0x00407743	5E	pop     esi
0x00407744	5B	pop     ebx
0x00407745	8BE5	mov     esp, ebp
0x00407747	5D	pop     ebp
0x00407748	C3	retn
_variant_t::__variant_t:0x00407750-0x00407758
0x00407750	50	push    eax; pvarg
0x00407751	FF1510A14000	call    ds:__imp__VariantClear@4; VariantClear(x)
0x00407757	C3	retn
CComboBox::_scalar_deleting_destructor_:0x00407760-0x00407783
0x00407760	55	push    ebp
0x00407761	8BEC	mov     ebp, esp
0x00407763	56	push    esi
0x00407764	8BF1	mov     esi, ecx
0x00407766	FF15ACAB4000	call    ds:__imp_??1CComboBox@@UAE@XZ; CComboBox::~CComboBox(void)
0x0040776c	F6450801	test    [ebp+arg_0], 1
0x00407770	740A	jz      short loc_40777C
0x00407772	56	push    esi
0x00407773	FF15CCAD4000	call    ds:__imp_??3@YAXPAX@Z; operator delete(void *)
0x00407779	83C404	add     esp, 4
0x0040777c	8BC6	mov     eax, esi
0x0040777e	5E	pop     esi
0x0040777f	5D	pop     ebp
0x00407780	C20400	retn    4
CFont::_CFont:0x00407790-0x0040779b
0x00407790	C70110EA4000	mov     dword ptr [ecx], offset ??_7CFont@@6B@; const CFont::`vftable'
0x00407796	E955B2FFFF	jmp     CGdiObject___CGdiObject
CFont::_scalar_deleting_destructor_:0x004077a0-0x004077c8
0x004077a0	55	push    ebp
0x004077a1	8BEC	mov     ebp, esp
0x004077a3	56	push    esi
0x004077a4	8BF1	mov     esi, ecx
0x004077a6	C70610EA4000	mov     dword ptr [esi], offset ??_7CFont@@6B@; const CFont::`vftable'
0x004077ac	E83FB2FFFF	call    CGdiObject___CGdiObject
0x004077b1	F6450801	test    [ebp+arg_0], 1
0x004077b5	740A	jz      short loc_4077C1
0x004077b7	56	push    esi
0x004077b8	FF15CCAD4000	call    ds:__imp_??3@YAXPAX@Z; operator delete(void *)
0x004077be	83C404	add     esp, 4
0x004077c1	8BC6	mov     eax, esi
0x004077c3	5E	pop     esi
0x004077c4	5D	pop     ebp
0x004077c5	C20400	retn    4
CViewTree::_scalar_deleting_destructor_:0x004077d0-0x004077f9
0x004077d0	55	push    ebp
0x004077d1	8BEC	mov     ebp, esp
0x004077d3	56	push    esi
0x004077d4	8BF1	mov     esi, ecx
0x004077d6	C70614EC4000	mov     dword ptr [esi], offset ??_7CViewTree@@6B@; const CViewTree::`vftable'
0x004077dc	FF1524AC4000	call    ds:__imp_??1CTreeCtrl@@UAE@XZ; CTreeCtrl::~CTreeCtrl(void)
0x004077e2	F6450801	test    [ebp+arg_0], 1
0x004077e6	740A	jz      short loc_4077F2
0x004077e8	56	push    esi
0x004077e9	FF15CCAD4000	call    ds:__imp_??3@YAXPAX@Z; operator delete(void *)
0x004077ef	83C404	add     esp, 4
0x004077f2	8BC6	mov     eax, esi
0x004077f4	5E	pop     esi
0x004077f5	5D	pop     ebp
0x004077f6	C20400	retn    4
CViewTree::_CViewTree:0x00407800-0x0040780c
0x00407800	C70114EC4000	mov     dword ptr [ecx], offset ??_7CViewTree@@6B@; const CViewTree::`vftable'
0x00407806	FF2524AC4000	jmp     ds:__imp_??1CTreeCtrl@@UAE@XZ; CTreeCtrl::~CTreeCtrl(void)
CViewTree::GetMessageMap:0x00407810-0x00407816
0x00407810	B804EC4000	mov     eax, offset off_40EC04
0x00407815	C3	retn
CViewTree::OnNotify:0x00407820-0x004078a3
0x00407820	55	push    ebp
0x00407821	8BEC	mov     ebp, esp
0x00407823	8B4510	mov     eax, [ebp+arg_8]
0x00407826	56	push    esi
0x00407827	57	push    edi
0x00407828	8B7D0C	mov     edi, [ebp+arg_4]
0x0040782b	50	push    eax
0x0040782c	8BF1	mov     esi, ecx
0x0040782e	8B4D08	mov     ecx, [ebp+arg_0]
0x00407831	57	push    edi
0x00407832	51	push    ecx
0x00407833	8BCE	mov     ecx, esi
0x00407835	FF1540AC4000	call    ds:__imp_?OnNotify@CWnd@@MAEHIJPAJ@Z; CWnd::OnNotify(uint,long,long *)
0x0040783b	894510	mov     [ebp+arg_8], eax
0x0040783e	85FF	test    edi, edi
0x00407840	745B	jz      short loc_40789D
0x00407842	817F08F7FDFFFF	cmp     dword ptr [edi+8], 0FFFFFDF7h
0x00407849	7552	jnz     short loc_40789D
0x0040784b	8B5620	mov     edx, [esi+20h]
0x0040784e	8B3D5CA14000	mov     edi, ds:__imp__SendMessageW@16; SendMessageW(x,x,x,x)
0x00407854	53	push    ebx
0x00407855	6A00	push    0; lParam
0x00407857	6A00	push    0; wParam
0x00407859	6819110000	push    1119h; Msg
0x0040785e	52	push    edx; hWnd
0x0040785f	FFD7	call    edi ; SendMessageW(x,x,x,x); SendMessageW(x,x,x,x)
0x00407861	8B1DE8A14000	mov     ebx, ds:__imp_?FromHandle@CWnd@@SGPAV1@PAUHWND__@@@Z; CWnd::FromHandle(HWND__ *)
0x00407867	50	push    eax
0x00407868	FFD3	call    ebx ; CWnd::FromHandle(HWND__ *); CWnd::FromHandle(HWND__ *)
0x0040786a	85C0	test    eax, eax
0x0040786c	742B	jz      short loc_407899
0x0040786e	8B4620	mov     eax, [esi+20h]
0x00407871	6A00	push    0; lParam
0x00407873	6A00	push    0; wParam
0x00407875	6819110000	push    1119h; Msg
0x0040787a	50	push    eax; hWnd
0x0040787b	FFD7	call    edi ; SendMessageW(x,x,x,x); SendMessageW(x,x,x,x)
0x0040787d	50	push    eax
0x0040787e	FFD3	call    ebx ; CWnd::FromHandle(HWND__ *); CWnd::FromHandle(HWND__ *)
0x00407880	8B0D2CAC4000	mov     ecx, ds:__imp_?wndTop@CWnd@@2V1@B; CWnd const CWnd::wndTop
0x00407886	6A13	push    13h
0x00407888	6AFF	push    0FFFFFFFFh
0x0040788a	6AFF	push    0FFFFFFFFh
0x0040788c	6AFF	push    0FFFFFFFFh
0x0040788e	6AFF	push    0FFFFFFFFh
0x00407890	51	push    ecx
0x00407891	8BC8	mov     ecx, eax
0x00407893	FF15A0A24000	call    ds:__imp_?SetWindowPos@CWnd@@QAEHPBV1@HHHHI@Z; CWnd::SetWindowPos(CWnd const *,int,int,int,int,uint)
0x00407899	8B4510	mov     eax, [ebp+arg_8]
0x0040789c	5B	pop     ebx
0x0040789d	5F	pop     edi
0x0040789e	5E	pop     esi
0x0040789f	5D	pop     ebp
0x004078a0	C20C00	retn    0Ch
??3@YAXPAX@Z_0:0x004078a4-0x004078aa
0x004078a4	FF25CCAD4000	jmp     ds:__imp_??3@YAXPAX@Z; operator delete(void *)
?GetThisMessageMap@CMDIChildWndEx@@KGPBUAFX_MSGMAP@@XZ_0:0x004078aa-0x004078b0
0x004078aa	FF25A4AD4000	jmp     ds:__imp_?GetThisMessageMap@CMDIChildWndEx@@KGPBUAFX_MSGMAP@@XZ; CMDIChildWndEx::GetThisMessageMap(void)
?OnCmdMsg@CFrameWnd@@UAEHIHPAXPAUAFX_CMDHANDLERINFO@@@Z_0:0x004078b0-0x004078b6
0x004078b0	FF257CAD4000	jmp     ds:__imp_?OnCmdMsg@CFrameWnd@@UAEHIHPAXPAUAFX_CMDHANDLERINFO@@@Z; CFrameWnd::OnCmdMsg(uint,int,void *,AFX_CMDHANDLERINFO *)
?OnFinalRelease@CWnd@@UAEXXZ_0:0x004078b6-0x004078bc
0x004078b6	FF2578AD4000	jmp     ds:__imp_?OnFinalRelease@CWnd@@UAEXXZ; CWnd::OnFinalRelease(void)
?IsInvokeAllowed@CCmdTarget@@UAEHJ@Z_0:0x004078bc-0x004078c2
0x004078bc	FF2574AD4000	jmp     ds:__imp_?IsInvokeAllowed@CCmdTarget@@UAEHJ@Z; CCmdTarget::IsInvokeAllowed(long)
?GetDispatchIID@CCmdTarget@@UAEHPAU_GUID@@@Z_0:0x004078c2-0x004078c8
0x004078c2	FF2570AD4000	jmp     ds:__imp_?GetDispatchIID@CCmdTarget@@UAEHPAU_GUID@@@Z; CCmdTarget::GetDispatchIID(_GUID *)
?GetTypeInfoCount@CCmdTarget@@UAEIXZ_0:0x004078c8-0x004078ce
0x004078c8	FF256CAD4000	jmp     ds:__imp_?GetTypeInfoCount@CCmdTarget@@UAEIXZ; CCmdTarget::GetTypeInfoCount(void)
?GetTypeLibCache@CCmdTarget@@UAEPAVCTypeLibCache@@XZ_0:0x004078ce-0x004078d4
0x004078ce	FF2568AD4000	jmp     ds:__imp_?GetTypeLibCache@CCmdTarget@@UAEPAVCTypeLibCache@@XZ; CCmdTarget::GetTypeLibCache(void)
?GetTypeLib@CCmdTarget@@UAEJKPAPAUITypeLib@@@Z_0:0x004078d4-0x004078da
0x004078d4	FF250CAD4000	jmp     ds:__imp_?GetTypeLib@CCmdTarget@@UAEJKPAPAUITypeLib@@@Z; CCmdTarget::GetTypeLib(ulong,ITypeLib * *)
?GetCommandMap@CCmdTarget@@MBEPBUAFX_OLECMDMAP@@XZ_0:0x004078da-0x004078e0
0x004078da	FF2508AD4000	jmp     ds:__imp_?GetCommandMap@CCmdTarget@@MBEPBUAFX_OLECMDMAP@@XZ; CCmdTarget::GetCommandMap(void)
?GetDispatchMap@CCmdTarget@@MBEPBUAFX_DISPMAP@@XZ_0:0x004078e0-0x004078e6
0x004078e0	FF2504AD4000	jmp     ds:__imp_?GetDispatchMap@CCmdTarget@@MBEPBUAFX_DISPMAP@@XZ; CCmdTarget::GetDispatchMap(void)
?GetConnectionMap@CCmdTarget@@MBEPBUAFX_CONNECTIONMAP@@XZ_0:0x004078e6-0x004078ec
0x004078e6	FF2500AD4000	jmp     ds:__imp_?GetConnectionMap@CCmdTarget@@MBEPBUAFX_CONNECTIONMAP@@XZ; CCmdTarget::GetConnectionMap(void)
?GetInterfaceMap@CWnd@@MBEPBUAFX_INTERFACEMAP@@XZ_0:0x004078ec-0x004078f2
0x004078ec	FF25FCAC4000	jmp     ds:__imp_?GetInterfaceMap@CWnd@@MBEPBUAFX_INTERFACEMAP@@XZ; CWnd::GetInterfaceMap(void)
?GetEventSinkMap@CCmdTarget@@MBEPBUAFX_EVENTSINKMAP@@XZ_0:0x004078f2-0x004078f8
0x004078f2	FF25F8AC4000	jmp     ds:__imp_?GetEventSinkMap@CCmdTarget@@MBEPBUAFX_EVENTSINKMAP@@XZ; CCmdTarget::GetEventSinkMap(void)
?OnCreateAggregates@CCmdTarget@@UAEHXZ_0:0x004078f8-0x004078fe
0x004078f8	FF25F4AC4000	jmp     ds:__imp_?OnCreateAggregates@CCmdTarget@@UAEHXZ; CCmdTarget::OnCreateAggregates(void)
?GetInterfaceHook@CCmdTarget@@UAEPAUIUnknown@@PBX@Z_0:0x004078fe-0x00407904
0x004078fe	FF25F0AC4000	jmp     ds:__imp_?GetInterfaceHook@CCmdTarget@@UAEPAUIUnknown@@PBX@Z; CCmdTarget::GetInterfaceHook(void const *)
?GetExtraConnectionPoints@CCmdTarget@@MAEHPAVCPtrArray@@@Z_0:0x00407904-0x0040790a
0x00407904	FF25ECAC4000	jmp     ds:__imp_?GetExtraConnectionPoints@CCmdTarget@@MAEHPAVCPtrArray@@@Z; CCmdTarget::GetExtraConnectionPoints(CPtrArray *)
?GetConnectionHook@CCmdTarget@@MAEPAUIConnectionPoint@@ABU_GUID@@@Z_0:0x0040790a-0x00407910
0x0040790a	FF25E8AC4000	jmp     ds:__imp_?GetConnectionHook@CCmdTarget@@MAEPAUIConnectionPoint@@ABU_GUID@@@Z; CCmdTarget::GetConnectionHook(_GUID const &)
?PreSubclassWindow@CWnd@@UAEXXZ_0:0x00407910-0x00407916
0x00407910	FF25E4AC4000	jmp     ds:__imp_?PreSubclassWindow@CWnd@@UAEXXZ; CWnd::PreSubclassWindow(void)
?Create@CWnd@@UAEHPB_W0KABUtagRECT@@PAV1@IPAUCCreateContext@@@Z_0:0x00407916-0x0040791c
0x00407916	FF25E0AC4000	jmp     ds:__imp_?Create@CWnd@@UAEHPB_W0KABUtagRECT@@PAV1@IPAUCCreateContext@@@Z; CWnd::Create(wchar_t const *,wchar_t const *,ulong,tagRECT const &,CWnd *,uint,CCreateContext *)
?CreateEx@CWnd@@UAEHKPB_W0KABUtagRECT@@PAV1@IPAX@Z_0:0x0040791c-0x00407922
0x0040791c	FF25DCAC4000	jmp     ds:__imp_?CreateEx@CWnd@@UAEHKPB_W0KABUtagRECT@@PAV1@IPAX@Z; CWnd::CreateEx(ulong,wchar_t const *,wchar_t const *,ulong,tagRECT const &,CWnd *,uint,void *)
?CreateEx@CWnd@@UAEHKPB_W0KHHHHPAUHWND__@@PAUHMENU__@@PAX@Z_0:0x00407922-0x00407928
0x00407922	FF25D8AC4000	jmp     ds:__imp_?CreateEx@CWnd@@UAEHKPB_W0KHHHHPAUHWND__@@PAUHMENU__@@PAX@Z; CWnd::CreateEx(ulong,wchar_t const *,wchar_t const *,ulong,int,int,int,int,HWND__ *,HMENU__ *,void *)
?DestroyWindow@CMDIChildWnd@@UAEHXZ_0:0x00407928-0x0040792e
0x00407928	FF25D4AC4000	jmp     ds:__imp_?DestroyWindow@CMDIChildWnd@@UAEHXZ; CMDIChildWnd::DestroyWindow(void)
?CalcWindowRect@CWnd@@UAEXPAUtagRECT@@I@Z_0:0x0040792e-0x00407934
0x0040792e	FF25D0AC4000	jmp     ds:__imp_?CalcWindowRect@CWnd@@UAEXPAUtagRECT@@I@Z; CWnd::CalcWindowRect(tagRECT *,uint)
?GetMenu@CFrameWnd@@UBEPAVCMenu@@XZ_0:0x00407934-0x0040793a
0x00407934	FF25CCAC4000	jmp     ds:__imp_?GetMenu@CFrameWnd@@UBEPAVCMenu@@XZ; CFrameWnd::GetMenu(void)
?SetMenu@CFrameWnd@@UAEHPAVCMenu@@@Z_0:0x0040793a-0x00407940
0x0040793a	FF25C8AC4000	jmp     ds:__imp_?SetMenu@CFrameWnd@@UAEHPAVCMenu@@@Z; CFrameWnd::SetMenu(CMenu *)
?OnToolHitTest@CWnd@@UBEHVCPoint@@PAUtagTOOLINFOW@@@Z_0:0x00407940-0x00407946
0x00407940	FF25C4AC4000	jmp     ds:__imp_?OnToolHitTest@CWnd@@UBEHVCPoint@@PAUtagTOOLINFOW@@@Z; CWnd::OnToolHitTest(CPoint,tagTOOLINFOW *)
?GetScrollBarCtrl@CWnd@@UBEPAVCScrollBar@@H@Z_0:0x00407946-0x0040794c
0x00407946	FF25C0AC4000	jmp     ds:__imp_?GetScrollBarCtrl@CWnd@@UBEPAVCScrollBar@@H@Z; CWnd::GetScrollBarCtrl(int)
?WinHelpW@CWnd@@UAEXKI@Z_0:0x0040794c-0x00407952
0x0040794c	FF25BCAC4000	jmp     ds:__imp_?WinHelpW@CWnd@@UAEXKI@Z; CWnd::WinHelpW(ulong,uint)
?HtmlHelpW@CWnd@@UAEXKI@Z_0:0x00407952-0x00407958
0x00407952	FF25B8AC4000	jmp     ds:__imp_?HtmlHelpW@CWnd@@UAEXKI@Z; CWnd::HtmlHelpW(ulong,uint)
?WinHelpInternal@CWnd@@UAEXKI@Z_0:0x00407958-0x0040795e
0x00407958	FF25B4AC4000	jmp     ds:__imp_?WinHelpInternal@CWnd@@UAEXKI@Z; CWnd::WinHelpInternal(ulong,uint)
?ContinueModal@CWnd@@UAEHXZ_0:0x0040795e-0x00407964
0x0040795e	FF25B0AC4000	jmp     ds:__imp_?ContinueModal@CWnd@@UAEHXZ; CWnd::ContinueModal(void)
?EndModalLoop@CWnd@@UAEXH@Z_0:0x00407964-0x0040796a
0x00407964	FF25ACAC4000	jmp     ds:__imp_?EndModalLoop@CWnd@@UAEXH@Z; CWnd::EndModalLoop(int)
?OnDrawIconicThumbnailOrLivePreview@CWnd@@UAEXAAVCDC@@VCRect@@VCSize@@HAAH@Z_0:0x0040796a-0x00407970
0x0040796a	FF25A8AC4000	jmp     ds:__imp_?OnDrawIconicThumbnailOrLivePreview@CWnd@@UAEXAAVCDC@@VCRect@@VCSize@@HAAH@Z; CWnd::OnDrawIconicThumbnailOrLivePreview(CDC &,CRect,CSize,int,int &)
?EnsureStdObj@CWnd@@UAEJXZ_0:0x00407970-0x00407976
0x00407970	FF25A4AC4000	jmp     ds:__imp_?EnsureStdObj@CWnd@@UAEJXZ; CWnd::EnsureStdObj(void)
?get_accParent@CWnd@@UAEJPAPAUIDispatch@@@Z_0:0x00407976-0x0040797c
0x00407976	FF25A0AC4000	jmp     ds:__imp_?get_accParent@CWnd@@UAEJPAPAUIDispatch@@@Z; CWnd::get_accParent(IDispatch * *)
?get_accChildCount@CWnd@@UAEJPAJ@Z_0:0x0040797c-0x00407982
0x0040797c	FF259CAC4000	jmp     ds:__imp_?get_accChildCount@CWnd@@UAEJPAJ@Z; CWnd::get_accChildCount(long *)
?get_accChild@CWnd@@UAEJUtagVARIANT@@PAPAUIDispatch@@@Z_0:0x00407982-0x00407988
0x00407982	FF2598AC4000	jmp     ds:__imp_?get_accChild@CWnd@@UAEJUtagVARIANT@@PAPAUIDispatch@@@Z; CWnd::get_accChild(tagVARIANT,IDispatch * *)
?get_accName@CWnd@@UAEJUtagVARIANT@@PAPA_W@Z_0:0x00407988-0x0040798e
0x00407988	FF2594AC4000	jmp     ds:__imp_?get_accName@CWnd@@UAEJUtagVARIANT@@PAPA_W@Z; CWnd::get_accName(tagVARIANT,wchar_t * *)
?get_accValue@CWnd@@UAEJUtagVARIANT@@PAPA_W@Z_0:0x0040798e-0x00407994
0x0040798e	FF2590AC4000	jmp     ds:__imp_?get_accValue@CWnd@@UAEJUtagVARIANT@@PAPA_W@Z; CWnd::get_accValue(tagVARIANT,wchar_t * *)
?get_accDescription@CWnd@@UAEJUtagVARIANT@@PAPA_W@Z_0:0x00407994-0x0040799a
0x00407994	FF258CAC4000	jmp     ds:__imp_?get_accDescription@CWnd@@UAEJUtagVARIANT@@PAPA_W@Z; CWnd::get_accDescription(tagVARIANT,wchar_t * *)
?get_accRole@CWnd@@UAEJUtagVARIANT@@PAU2@@Z_0:0x0040799a-0x004079a0
0x0040799a	FF2588AC4000	jmp     ds:__imp_?get_accRole@CWnd@@UAEJUtagVARIANT@@PAU2@@Z; CWnd::get_accRole(tagVARIANT,tagVARIANT *)
?get_accState@CWnd@@UAEJUtagVARIANT@@PAU2@@Z_0:0x004079a0-0x004079a6
0x004079a0	FF2584AC4000	jmp     ds:__imp_?get_accState@CWnd@@UAEJUtagVARIANT@@PAU2@@Z; CWnd::get_accState(tagVARIANT,tagVARIANT *)
?get_accHelp@CWnd@@UAEJUtagVARIANT@@PAPA_W@Z_0:0x004079a6-0x004079ac
0x004079a6	FF2580AC4000	jmp     ds:__imp_?get_accHelp@CWnd@@UAEJUtagVARIANT@@PAPA_W@Z; CWnd::get_accHelp(tagVARIANT,wchar_t * *)
?get_accHelpTopic@CWnd@@UAEJPAPA_WUtagVARIANT@@PAJ@Z_0:0x004079ac-0x004079b2
0x004079ac	FF257CAC4000	jmp     ds:__imp_?get_accHelpTopic@CWnd@@UAEJPAPA_WUtagVARIANT@@PAJ@Z; CWnd::get_accHelpTopic(wchar_t * *,tagVARIANT,long *)
?get_accKeyboardShortcut@CWnd@@UAEJUtagVARIANT@@PAPA_W@Z_0:0x004079b2-0x004079b8
0x004079b2	FF2578AC4000	jmp     ds:__imp_?get_accKeyboardShortcut@CWnd@@UAEJUtagVARIANT@@PAPA_W@Z; CWnd::get_accKeyboardShortcut(tagVARIANT,wchar_t * *)
?get_accFocus@CWnd@@UAEJPAUtagVARIANT@@@Z_0:0x004079b8-0x004079be
0x004079b8	FF2574AC4000	jmp     ds:__imp_?get_accFocus@CWnd@@UAEJPAUtagVARIANT@@@Z; CWnd::get_accFocus(tagVARIANT *)
?get_accSelection@CWnd@@UAEJPAUtagVARIANT@@@Z_0:0x004079be-0x004079c4
0x004079be	FF2570AC4000	jmp     ds:__imp_?get_accSelection@CWnd@@UAEJPAUtagVARIANT@@@Z; CWnd::get_accSelection(tagVARIANT *)
?get_accDefaultAction@CWnd@@UAEJUtagVARIANT@@PAPA_W@Z_0:0x004079c4-0x004079ca
0x004079c4	FF256CAC4000	jmp     ds:__imp_?get_accDefaultAction@CWnd@@UAEJUtagVARIANT@@PAPA_W@Z; CWnd::get_accDefaultAction(tagVARIANT,wchar_t * *)
?accSelect@CWnd@@UAEJJUtagVARIANT@@@Z_0:0x004079ca-0x004079d0
0x004079ca	FF2568AC4000	jmp     ds:__imp_?accSelect@CWnd@@UAEJJUtagVARIANT@@@Z; CWnd::accSelect(long,tagVARIANT)
?accLocation@CWnd@@UAEJPAJ000UtagVARIANT@@@Z_0:0x004079d0-0x004079d6
0x004079d0	FF2564AC4000	jmp     ds:__imp_?accLocation@CWnd@@UAEJPAJ000UtagVARIANT@@@Z; CWnd::accLocation(long *,long *,long *,long *,tagVARIANT)
?accNavigate@CWnd@@UAEJJUtagVARIANT@@PAU2@@Z_0:0x004079d6-0x004079dc
0x004079d6	FF2560AC4000	jmp     ds:__imp_?accNavigate@CWnd@@UAEJJUtagVARIANT@@PAU2@@Z; CWnd::accNavigate(long,tagVARIANT,tagVARIANT *)
?accHitTest@CWnd@@UAEJJJPAUtagVARIANT@@@Z_0:0x004079dc-0x004079e2
0x004079dc	FF255CAC4000	jmp     ds:__imp_?accHitTest@CWnd@@UAEJJJPAUtagVARIANT@@@Z; CWnd::accHitTest(long,long,tagVARIANT *)
?accDoDefaultAction@CWnd@@UAEJUtagVARIANT@@@Z_0:0x004079e2-0x004079e8
0x004079e2	FF2558AC4000	jmp     ds:__imp_?accDoDefaultAction@CWnd@@UAEJUtagVARIANT@@@Z; CWnd::accDoDefaultAction(tagVARIANT)
?put_accName@CWnd@@UAEJUtagVARIANT@@PA_W@Z_0:0x004079e8-0x004079ee
0x004079e8	FF2554AC4000	jmp     ds:__imp_?put_accName@CWnd@@UAEJUtagVARIANT@@PA_W@Z; CWnd::put_accName(tagVARIANT,wchar_t *)
?put_accValue@CWnd@@UAEJUtagVARIANT@@PA_W@Z_0:0x004079ee-0x004079f4
0x004079ee	FF2550AC4000	jmp     ds:__imp_?put_accValue@CWnd@@UAEJUtagVARIANT@@PA_W@Z; CWnd::put_accValue(tagVARIANT,wchar_t *)
?SetProxy@CWnd@@UAEJPAUIAccessibleProxy@@@Z_0:0x004079f4-0x004079fa
0x004079f4	FF254CAC4000	jmp     ds:__imp_?SetProxy@CWnd@@UAEJPAUIAccessibleProxy@@@Z; CWnd::SetProxy(IAccessibleProxy *)
?CreateAccessibleProxy@CWnd@@UAEJIJPAJ@Z_0:0x004079fa-0x00407a00
0x004079fa	FF2548AC4000	jmp     ds:__imp_?CreateAccessibleProxy@CWnd@@UAEJIJPAJ@Z; CWnd::CreateAccessibleProxy(uint,long,long *)
?OnCommand@CFrameWnd@@MAEHIJ@Z_0:0x00407a00-0x00407a06
0x00407a00	FF2544AC4000	jmp     ds:__imp_?OnCommand@CFrameWnd@@MAEHIJ@Z; CFrameWnd::OnCommand(uint,long)
?OnNotify@CWnd@@MAEHIJPAJ@Z_0:0x00407a06-0x00407a0c
0x00407a06	FF2540AC4000	jmp     ds:__imp_?OnNotify@CWnd@@MAEHIJPAJ@Z; CWnd::OnNotify(uint,long,long *)
?GetSuperWndProcAddr@CWnd@@MAEPAP6GJPAUHWND__@@IIJ@ZXZ_0:0x00407a0c-0x00407a12
0x00407a0c	FF253CAC4000	jmp     ds:__imp_?GetSuperWndProcAddr@CWnd@@MAEPAP6GJPAUHWND__@@IIJ@ZXZ; CWnd::GetSuperWndProcAddr(void)
?BeginModalState@CFrameWnd@@UAEXXZ_0:0x00407a12-0x00407a18
0x00407a12	FF2538AC4000	jmp     ds:__imp_?BeginModalState@CFrameWnd@@UAEXXZ; CFrameWnd::BeginModalState(void)
?EndModalState@CFrameWnd@@UAEXXZ_0:0x00407a18-0x00407a1e
0x00407a18	FF2534AC4000	jmp     ds:__imp_?EndModalState@CFrameWnd@@UAEXXZ; CFrameWnd::EndModalState(void)
?PreTranslateMessage@CMDIChildWndEx@@UAEHPAUtagMSG@@@Z_0:0x00407a1e-0x00407a24
0x00407a1e	FF2530AC4000	jmp     ds:__imp_?PreTranslateMessage@CMDIChildWndEx@@UAEHPAUtagMSG@@@Z; CMDIChildWndEx::PreTranslateMessage(tagMSG *)
?OnAmbientProperty@CWnd@@UAEHPAVCOleControlSite@@JPAUtagVARIANT@@@Z_0:0x00407a24-0x00407a2a
0x00407a24	FF25E0A64000	jmp     ds:__imp_?OnAmbientProperty@CWnd@@UAEHPAVCOleControlSite@@JPAUtagVARIANT@@@Z; CWnd::OnAmbientProperty(COleControlSite *,long,tagVARIANT *)
?WindowProc@CWnd@@MAEJIIJ@Z_0:0x00407a2a-0x00407a30
0x00407a2a	FF25C0AD4000	jmp     ds:__imp_?WindowProc@CWnd@@MAEJIIJ@Z; CWnd::WindowProc(uint,uint,long)
?OnWndMsg@CWnd@@MAEHIIJPAJ@Z_0:0x00407a30-0x00407a36
0x00407a30	FF25B8AD4000	jmp     ds:__imp_?OnWndMsg@CWnd@@MAEHIIJPAJ@Z; CWnd::OnWndMsg(uint,uint,long,long *)
?DefWindowProcW@CMDIChildWnd@@MAEJIIJ@Z_0:0x00407a36-0x00407a3c
0x00407a36	FF25B4AD4000	jmp     ds:__imp_?DefWindowProcW@CMDIChildWnd@@MAEJIIJ@Z; CMDIChildWnd::DefWindowProcW(uint,uint,long)
?PostNcDestroy@CFrameWnd@@MAEXXZ_0:0x00407a3c-0x00407a42
0x00407a3c	FF25B0AD4000	jmp     ds:__imp_?PostNcDestroy@CFrameWnd@@MAEXXZ; CFrameWnd::PostNcDestroy(void)
?OnChildNotify@CWnd@@MAEHIIJPAJ@Z_0:0x00407a42-0x00407a48
0x00407a42	FF259CAD4000	jmp     ds:__imp_?OnChildNotify@CWnd@@MAEHIIJPAJ@Z; CWnd::OnChildNotify(uint,uint,long,long *)
?OnTouchInputs@CWnd@@MAEHIPAUtagTOUCHINPUT@@@Z_0:0x00407a48-0x00407a4e
0x00407a48	FF2598AD4000	jmp     ds:__imp_?OnTouchInputs@CWnd@@MAEHIPAUtagTOUCHINPUT@@@Z; CWnd::OnTouchInputs(uint,tagTOUCHINPUT *)
?OnTouchInput@CWnd@@MAEHVCPoint@@HHPAUtagTOUCHINPUT@@@Z_0:0x00407a4e-0x00407a54
0x00407a4e	FF2594AD4000	jmp     ds:__imp_?OnTouchInput@CWnd@@MAEHVCPoint@@HHPAUtagTOUCHINPUT@@@Z; CWnd::OnTouchInput(CPoint,int,int,tagTOUCHINPUT *)
?GetGestureStatus@CWnd@@MAEKVCPoint@@@Z_0:0x00407a54-0x00407a5a
0x00407a54	FF2590AD4000	jmp     ds:__imp_?GetGestureStatus@CWnd@@MAEKVCPoint@@@Z; CWnd::GetGestureStatus(CPoint)
?OnGestureZoom@CWnd@@MAEHVCPoint@@J@Z_0:0x00407a5a-0x00407a60
0x00407a5a	FF2564A74000	jmp     ds:__imp_?OnGestureZoom@CWnd@@MAEHVCPoint@@J@Z; CWnd::OnGestureZoom(CPoint,long)
?OnGesturePan@CWnd@@MAEHVCPoint@@0@Z_0:0x00407a60-0x00407a66
0x00407a60	FF258CAD4000	jmp     ds:__imp_?OnGesturePan@CWnd@@MAEHVCPoint@@0@Z; CWnd::OnGesturePan(CPoint,CPoint)
?OnGestureRotate@CWnd@@MAEHVCPoint@@N@Z_0:0x00407a66-0x00407a6c
0x00407a66	FF255CA74000	jmp     ds:__imp_?OnGestureRotate@CWnd@@MAEHVCPoint@@N@Z; CWnd::OnGestureRotate(CPoint,double)
?OnGestureTwoFingerTap@CWnd@@MAEHVCPoint@@@Z_0:0x00407a6c-0x00407a72
0x00407a6c	FF2564AD4000	jmp     ds:__imp_?OnGestureTwoFingerTap@CWnd@@MAEHVCPoint@@@Z; CWnd::OnGestureTwoFingerTap(CPoint)
?OnGesturePressAndTap@CWnd@@MAEHVCPoint@@J@Z_0:0x00407a72-0x00407a78
0x00407a72	FF255CAD4000	jmp     ds:__imp_?OnGesturePressAndTap@CWnd@@MAEHVCPoint@@J@Z; CWnd::OnGesturePressAndTap(CPoint,long)
?CheckAutoCenter@CWnd@@UAEHXZ_0:0x00407a78-0x00407a7e
0x00407a78	FF2558AD4000	jmp     ds:__imp_?CheckAutoCenter@CWnd@@UAEHXZ; CWnd::CheckAutoCenter(void)
?IsFrameWnd@CFrameWnd@@UBEHXZ_0:0x00407a7e-0x00407a84
0x00407a7e	FF2554AD4000	jmp     ds:__imp_?IsFrameWnd@CFrameWnd@@UBEHXZ; CFrameWnd::IsFrameWnd(void)
?CreateControlContainer@CWnd@@MAEHPAPAVCOleControlContainer@@@Z_0:0x00407a84-0x00407a8a
0x00407a84	FF2550AD4000	jmp     ds:__imp_?CreateControlContainer@CWnd@@MAEHPAPAVCOleControlContainer@@@Z; CWnd::CreateControlContainer(COleControlContainer * *)
?CreateControlSite@CWnd@@MAEHPAVCOleControlContainer@@PAPAVCOleControlSite@@IABU_GUID@@@Z_0:0x00407a8a-0x00407a90
0x00407a8a	FF254CAD4000	jmp     ds:__imp_?CreateControlSite@CWnd@@MAEHPAVCOleControlContainer@@PAPAVCOleControlSite@@IABU_GUID@@@Z; CWnd::CreateControlSite(COleControlContainer *,COleControlSite * *,uint,_GUID const &)
?SetOccDialogInfo@CWnd@@MAEHPAU_AFX_OCC_DIALOG_INFO@@@Z_0:0x00407a90-0x00407a96
0x00407a90	FF2548AD4000	jmp     ds:__imp_?SetOccDialogInfo@CWnd@@MAEHPAU_AFX_OCC_DIALOG_INFO@@@Z; CWnd::SetOccDialogInfo(_AFX_OCC_DIALOG_INFO *)
?GetOccDialogInfo@CWnd@@MAEPAU_AFX_OCC_DIALOG_INFO@@XZ_0:0x00407a96-0x00407a9c
0x00407a96	FF2544AD4000	jmp     ds:__imp_?GetOccDialogInfo@CWnd@@MAEPAU_AFX_OCC_DIALOG_INFO@@XZ; CWnd::GetOccDialogInfo(void)
?Create@CFrameWnd@@UAEHPB_W0KABUtagRECT@@PAVCWnd@@0KPAUCCreateContext@@@Z_0:0x00407a9c-0x00407aa2
0x00407a9c	FF2540AD4000	jmp     ds:__imp_?Create@CFrameWnd@@UAEHPB_W0KABUtagRECT@@PAVCWnd@@0KPAUCCreateContext@@@Z; CFrameWnd::Create(wchar_t const *,wchar_t const *,ulong,tagRECT const &,CWnd *,wchar_t const *,ulong,CCreateContext *)
?LoadFrame@CMDIChildWnd@@UAEHIKPAVCWnd@@PAUCCreateContext@@@Z_0:0x00407aa2-0x00407aa8
0x00407aa2	FF253CAD4000	jmp     ds:__imp_?LoadFrame@CMDIChildWnd@@UAEHIKPAVCWnd@@PAUCCreateContext@@@Z; CMDIChildWnd::LoadFrame(uint,ulong,CWnd *,CCreateContext *)
?GetActiveDocument@CFrameWnd@@UAEPAVCDocument@@XZ_0:0x00407aa8-0x00407aae
0x00407aa8	FF2538AD4000	jmp     ds:__imp_?GetActiveDocument@CFrameWnd@@UAEPAVCDocument@@XZ; CFrameWnd::GetActiveDocument(void)
?GetActiveFrame@CFrameWnd@@UAEPAV1@XZ_0:0x00407aae-0x00407ab4
0x00407aae	FF2534AD4000	jmp     ds:__imp_?GetActiveFrame@CFrameWnd@@UAEPAV1@XZ; CFrameWnd::GetActiveFrame(void)
?GetMessageString@CFrameWnd@@UBEXIAAV?$CStringT@_WV?$StrTraitMFC_DLL@_WV?$ChTraitsCRT@_W@ATL@@@@@ATL@@@Z_0:0x00407ab4-0x00407aba
0x00407ab4	FF2530AD4000	jmp     ds:__imp_?GetMessageString@CFrameWnd@@UBEXIAAV?$CStringT@_WV?$StrTraitMFC_DLL@_WV?$ChTraitsCRT@_W@ATL@@@@@ATL@@@Z; CFrameWnd::GetMessageString(uint,ATL::CStringT<wchar_t,StrTraitMFC_DLL<wchar_t,ATL::ChTraitsCRT<wchar_t>>> &)
?RecalcLayout@CMDIChildWndEx@@UAEXH@Z_0:0x00407aba-0x00407ac0
0x00407aba	FF252CAD4000	jmp     ds:__imp_?RecalcLayout@CMDIChildWndEx@@UAEXH@Z; CMDIChildWndEx::RecalcLayout(int)
?ActivateFrame@CMDIChildWndEx@@UAEXH@Z_0:0x00407ac0-0x00407ac6
0x00407ac0	FF2528AD4000	jmp     ds:__imp_?ActivateFrame@CMDIChildWndEx@@UAEXH@Z; CMDIChildWndEx::ActivateFrame(int)
?SetMenuBarVisibility@CFrameWnd@@UAEXK@Z_0:0x00407ac6-0x00407acc
0x00407ac6	FF2524AD4000	jmp     ds:__imp_?SetMenuBarVisibility@CFrameWnd@@UAEXK@Z; CFrameWnd::SetMenuBarVisibility(ulong)
?GetMenuBarVisibility@CFrameWnd@@UBEKXZ_0:0x00407acc-0x00407ad2
0x00407acc	FF2520AD4000	jmp     ds:__imp_?GetMenuBarVisibility@CFrameWnd@@UBEKXZ; CFrameWnd::GetMenuBarVisibility(void)
?SetMenuBarState@CFrameWnd@@UAEHK@Z_0:0x00407ad2-0x00407ad8
0x00407ad2	FF251CAD4000	jmp     ds:__imp_?SetMenuBarState@CFrameWnd@@UAEHK@Z; CFrameWnd::SetMenuBarState(ulong)
?GetMenuBarState@CFrameWnd@@UBEKXZ_0:0x00407ad8-0x00407ade
0x00407ad8	FF2518AD4000	jmp     ds:__imp_?GetMenuBarState@CFrameWnd@@UBEKXZ; CFrameWnd::GetMenuBarState(void)
?OnSetPreviewMode@CMDIChildWndEx@@UAEXHPAUCPrintPreviewState@@@Z_0:0x00407ade-0x00407ae4
0x00407ade	FF2514AD4000	jmp     ds:__imp_?OnSetPreviewMode@CMDIChildWndEx@@UAEXHPAUCPrintPreviewState@@@Z; CMDIChildWndEx::OnSetPreviewMode(int,CPrintPreviewState *)
?GetMessageBar@CMDIChildWnd@@MAEPAVCWnd@@XZ_0:0x00407ae4-0x00407aea
0x00407ae4	FF2510AD4000	jmp     ds:__imp_?GetMessageBar@CMDIChildWnd@@MAEPAVCWnd@@XZ; CMDIChildWnd::GetMessageBar(void)
?NegotiateBorderSpace@CFrameWnd@@UAEHIPAUtagRECT@@@Z_0:0x00407aea-0x00407af0
0x00407aea	FF254CA74000	jmp     ds:__imp_?NegotiateBorderSpace@CFrameWnd@@UAEHIPAUtagRECT@@@Z; CFrameWnd::NegotiateBorderSpace(uint,tagRECT *)
?OnCreateClient@CFrameWnd@@MAEHPAUtagCREATESTRUCTW@@PAUCCreateContext@@@Z_0:0x00407af0-0x00407af6
0x00407af0	FF2578A14000	jmp     ds:__imp_?OnCreateClient@CFrameWnd@@MAEHPAUtagCREATESTRUCTW@@PAUCCreateContext@@@Z; CFrameWnd::OnCreateClient(tagCREATESTRUCTW *,CCreateContext *)
?OnUpdateFrameTitle@CMDIChildWndEx@@UAEXH@Z_0:0x00407af6-0x00407afc
0x00407af6	FF257CA14000	jmp     ds:__imp_?OnUpdateFrameTitle@CMDIChildWndEx@@UAEXH@Z; CMDIChildWndEx::OnUpdateFrameTitle(int)
?OnUpdateFrameMenu@CFrameWnd@@UAEXPAUHMENU__@@@Z_0:0x00407afc-0x00407b02
0x00407afc	FF2580A14000	jmp     ds:__imp_?OnUpdateFrameMenu@CFrameWnd@@UAEXPAUHMENU__@@@Z; CFrameWnd::OnUpdateFrameMenu(HMENU__ *)
?GetDefaultAccelerator@CFrameWnd@@UAEPAUHACCEL__@@XZ_0:0x00407b02-0x00407b08
0x00407b02	FF2584A14000	jmp     ds:__imp_?GetDefaultAccelerator@CFrameWnd@@UAEPAUHACCEL__@@XZ; CFrameWnd::GetDefaultAccelerator(void)
?DelayUpdateFrameMenu@CFrameWnd@@UAEXPAUHMENU__@@@Z_0:0x00407b08-0x00407b0e
0x00407b08	FF2588A14000	jmp     ds:__imp_?DelayUpdateFrameMenu@CFrameWnd@@UAEXPAUHMENU__@@@Z; CFrameWnd::DelayUpdateFrameMenu(HMENU__ *)
?ExitHelpMode@CFrameWnd@@UAEXXZ_0:0x00407b0e-0x00407b14
0x00407b0e	FF258CA14000	jmp     ds:__imp_?ExitHelpMode@CFrameWnd@@UAEXXZ; CFrameWnd::ExitHelpMode(void)
?OnShowMenuBar@CFrameWnd@@MAEXXZ_0:0x00407b14-0x00407b1a
0x00407b14	FF2590A14000	jmp     ds:__imp_?OnShowMenuBar@CFrameWnd@@MAEXXZ; CFrameWnd::OnShowMenuBar(void)
?OnHideMenuBar@CFrameWnd@@MAEXXZ_0:0x00407b1a-0x00407b20
0x00407b1a	FF2594A14000	jmp     ds:__imp_?OnHideMenuBar@CFrameWnd@@MAEXXZ; CFrameWnd::OnHideMenuBar(void)
?Create@CMDIChildWnd@@UAEHPB_W0KABUtagRECT@@PAVCMDIFrameWnd@@PAUCCreateContext@@@Z_0:0x00407b20-0x00407b26
0x00407b20	FF2598A14000	jmp     ds:__imp_?Create@CMDIChildWnd@@UAEHPB_W0KABUtagRECT@@PAVCMDIFrameWnd@@PAUCCreateContext@@@Z; CMDIChildWnd::Create(wchar_t const *,wchar_t const *,ulong,tagRECT const &,CMDIFrameWnd *,CCreateContext *)
?OnUpdateFrameMenu@CMDIChildWnd@@UAEXHPAVCWnd@@PAUHMENU__@@@Z_0:0x00407b26-0x00407b2c
0x00407b26	FF259CA14000	jmp     ds:__imp_?OnUpdateFrameMenu@CMDIChildWnd@@UAEXHPAVCWnd@@PAUHMENU__@@@Z; CMDIChildWnd::OnUpdateFrameMenu(int,CWnd *,HMENU__ *)
?AdjustDockingLayout@CMDIChildWndEx@@UAEXPAX@Z_0:0x00407b2c-0x00407b32
0x00407b2c	FF25A0A14000	jmp     ds:__imp_?AdjustDockingLayout@CMDIChildWndEx@@UAEXPAX@Z; CMDIChildWndEx::AdjustDockingLayout(void *)
?OnMoveMiniFrame@CMDIChildWndEx@@UAEHPAVCWnd@@@Z_0:0x00407b32-0x00407b38
0x00407b32	FF25A4A14000	jmp     ds:__imp_?OnMoveMiniFrame@CMDIChildWndEx@@UAEHPAVCWnd@@@Z; CMDIChildWndEx::OnMoveMiniFrame(CWnd *)
?RegisterTaskbarTab@CMDIChildWndEx@@UAEXPAV1@@Z_0:0x00407b38-0x00407b3e
0x00407b38	FF25A8A14000	jmp     ds:__imp_?RegisterTaskbarTab@CMDIChildWndEx@@UAEXPAV1@@Z; CMDIChildWndEx::RegisterTaskbarTab(CMDIChildWndEx *)
?GetFrameText@CMDIChildWndEx@@UBE?AV?$CStringT@_WV?$StrTraitMFC_DLL@_WV?$ChTraitsCRT@_W@ATL@@@@@ATL@@XZ_0:0x00407b3e-0x00407b44
0x00407b3e	FF25ACA14000	jmp     ds:__imp_?GetFrameText@CMDIChildWndEx@@UBE?AV?$CStringT@_WV?$StrTraitMFC_DLL@_WV?$ChTraitsCRT@_W@ATL@@@@@ATL@@XZ; CMDIChildWndEx::GetFrameText(void)
?GetFrameIcon@CMDIChildWndEx@@UBEPAUHICON__@@XZ_0:0x00407b44-0x00407b4a
0x00407b44	FF25B0A14000	jmp     ds:__imp_?GetFrameIcon@CMDIChildWndEx@@UBEPAUHICON__@@XZ; CMDIChildWndEx::GetFrameIcon(void)
?UpdateTaskbarTabIcon@CMDIChildWndEx@@UAEXPAUHICON__@@@Z_0:0x00407b4a-0x00407b50
0x00407b4a	FF25B8A14000	jmp     ds:__imp_?UpdateTaskbarTabIcon@CMDIChildWndEx@@UAEXPAUHICON__@@@Z; CMDIChildWndEx::UpdateTaskbarTabIcon(HICON__ *)
?OnTaskbarTabThumbnailStretch@CMDIChildWndEx@@UAEHPAUHBITMAP__@@ABVCRect@@01@Z_0:0x00407b50-0x00407b56
0x00407b50	FF25BCA14000	jmp     ds:__imp_?OnTaskbarTabThumbnailStretch@CMDIChildWndEx@@UAEHPAUHBITMAP__@@ABVCRect@@01@Z; CMDIChildWndEx::OnTaskbarTabThumbnailStretch(HBITMAP__ *,CRect const &,HBITMAP__ *,CRect const &)
?GetTaskbarPreviewWnd@CMDIChildWndEx@@UAEPAVCWnd@@XZ_0:0x00407b56-0x00407b5c
0x00407b56	FF25C0A14000	jmp     ds:__imp_?GetTaskbarPreviewWnd@CMDIChildWndEx@@UAEPAVCWnd@@XZ; CMDIChildWndEx::GetTaskbarPreviewWnd(void)
?OnPressTaskbarThmbnailCloseButton@CMDIChildWndEx@@UAEXXZ_0:0x00407b5c-0x00407b62
0x00407b5c	FF25C4A14000	jmp     ds:__imp_?OnPressTaskbarThmbnailCloseButton@CMDIChildWndEx@@UAEXXZ; CMDIChildWndEx::OnPressTaskbarThmbnailCloseButton(void)
?OnTaskbarTabThumbnailActivate@CMDIChildWndEx@@UAEXIPAVCWnd@@H@Z_0:0x00407b62-0x00407b68
0x00407b62	FF25C8A14000	jmp     ds:__imp_?OnTaskbarTabThumbnailActivate@CMDIChildWndEx@@UAEXIPAVCWnd@@H@Z; CMDIChildWndEx::OnTaskbarTabThumbnailActivate(uint,CWnd *,int)
?OnTaskbarTabThumbnailMouseActivate@CMDIChildWndEx@@UAEHPAVCWnd@@II@Z_0:0x00407b68-0x00407b6e
0x00407b68	FF25CCA14000	jmp     ds:__imp_?OnTaskbarTabThumbnailMouseActivate@CMDIChildWndEx@@UAEHPAVCWnd@@II@Z; CMDIChildWndEx::OnTaskbarTabThumbnailMouseActivate(CWnd *,uint,uint)
?GetTaskbarThumbnailClipRect@CMDIChildWndEx@@UBE?AVCRect@@XZ_0:0x00407b6e-0x00407b74
0x00407b6e	FF25D0A14000	jmp     ds:__imp_?GetTaskbarThumbnailClipRect@CMDIChildWndEx@@UBE?AVCRect@@XZ; CMDIChildWndEx::GetTaskbarThumbnailClipRect(void)
?GetDocumentName@CMDIChildWndEx@@UAEPB_WPAPAVCObject@@@Z_0:0x00407b74-0x00407b7a
0x00407b74	FF25D4A14000	jmp     ds:__imp_?GetDocumentName@CMDIChildWndEx@@UAEPB_WPAPAVCObject@@@Z; CMDIChildWndEx::GetDocumentName(CObject * *)
?SetTaskbarThumbnailClipRect@CMDIChildWndEx@@MAEHVCRect@@@Z_0:0x00407b7a-0x00407b80
0x00407b7a	FF25D8A14000	jmp     ds:__imp_?SetTaskbarThumbnailClipRect@CMDIChildWndEx@@MAEHVCRect@@@Z; CMDIChildWndEx::SetTaskbarThumbnailClipRect(CRect)
?ActivateTopLevelFrame@CMDIChildWndEx@@MAEXXZ_0:0x00407b80-0x00407b86
0x00407b80	FF25DCA14000	jmp     ds:__imp_?ActivateTopLevelFrame@CMDIChildWndEx@@MAEXXZ; CMDIChildWndEx::ActivateTopLevelFrame(void)
?SetTaskbarTabText@CMDIChildWndEx@@MAEXPB_W@Z_0:0x00407b86-0x00407b8c
0x00407b86	FF25E0A14000	jmp     ds:__imp_?SetTaskbarTabText@CMDIChildWndEx@@MAEXPB_W@Z; CMDIChildWndEx::SetTaskbarTabText(wchar_t const *)
?GetThisMessageMap@CDockablePane@@KGPBUAFX_MSGMAP@@XZ_0:0x00407b8c-0x00407b92
0x00407b8c	FF2524A24000	jmp     ds:__imp_?GetThisMessageMap@CDockablePane@@KGPBUAFX_MSGMAP@@XZ; CDockablePane::GetThisMessageMap(void)
?Create@CMFCToolBar@@UAEHPAVCWnd@@KI@Z_0:0x00407b92-0x00407b98
0x00407b92	FF2530A24000	jmp     ds:__imp_?Create@CMFCToolBar@@UAEHPAVCWnd@@KI@Z; CMFCToolBar::Create(CWnd *,ulong,uint)
?LoadToolBar@CMFCToolBar@@UAEHIIIHIII@Z_0:0x00407b98-0x00407b9e
0x00407b98	FF2534A24000	jmp     ds:__imp_?LoadToolBar@CMFCToolBar@@UAEHIIIHIII@Z; CMFCToolBar::LoadToolBar(uint,uint,uint,int,uint,uint,uint)
?MeasureItem@CMenu@@UAEXPAUtagMEASUREITEMSTRUCT@@@Z_0:0x00407b9e-0x00407ba4
0x00407b9e	FF2538A24000	jmp     ds:__imp_?MeasureItem@CMenu@@UAEXPAUtagMEASUREITEMSTRUCT@@@Z; CMenu::MeasureItem(tagMEASUREITEMSTRUCT *)
?DrawItem@CMenu@@UAEXPAUtagDRAWITEMSTRUCT@@@Z_0:0x00407ba4-0x00407baa
0x00407ba4	FF253CA24000	jmp     ds:__imp_?DrawItem@CMenu@@UAEXPAUtagDRAWITEMSTRUCT@@@Z; CMenu::DrawItem(tagDRAWITEMSTRUCT *)
?GetRuntimeClass@CMenu@@UBEPAUCRuntimeClass@@XZ_0:0x00407baa-0x00407bb0
0x00407baa	FF2540A24000	jmp     ds:__imp_?GetRuntimeClass@CMenu@@UBEPAUCRuntimeClass@@XZ; CMenu::GetRuntimeClass(void)
?SetImage@CMFCToolBarButton@@UAEXH@Z_0:0x00407bb0-0x00407bb6
0x00407bb0	FF2560A24000	jmp     ds:__imp_?SetImage@CMFCToolBarButton@@UAEXH@Z; CMFCToolBarButton::SetImage(int)
?CalcFixedLayout@CMFCToolBar@@UAE?AVCSize@@HH@Z_0:0x00407bb6-0x00407bbc
0x00407bb6	FF2598A24000	jmp     ds:__imp_?CalcFixedLayout@CMFCToolBar@@UAE?AVCSize@@HH@Z; CMFCToolBar::CalcFixedLayout(int,int)
?SetWindowPos@CBasePane@@UAEPAXPBVCWnd@@HHHHIPAX@Z_0:0x00407bbc-0x00407bc2
0x00407bbc	FF259CA24000	jmp     ds:__imp_?SetWindowPos@CBasePane@@UAEPAXPBVCWnd@@HHHHIPAX@Z; CBasePane::SetWindowPos(CWnd const *,int,int,int,int,uint,void *)
?PreTranslateMessage@CDockablePane@@UAEHPAUtagMSG@@@Z_0:0x00407bc2-0x00407bc8
0x00407bc2	FF25A4A24000	jmp     ds:__imp_?PreTranslateMessage@CDockablePane@@UAEHPAUtagMSG@@@Z; CDockablePane::PreTranslateMessage(tagMSG *)
?GetRuntimeClass@CBitmap@@UBEPAUCRuntimeClass@@XZ_0:0x00407bc8-0x00407bce
0x00407bc8	FF25C4A24000	jmp     ds:__imp_?GetRuntimeClass@CBitmap@@UBEPAUCRuntimeClass@@XZ; CBitmap::GetRuntimeClass(void)
?GetRuntimeClass@CGdiObject@@UBEPAUCRuntimeClass@@XZ_0:0x00407bce-0x00407bd4
0x00407bce	FF25D8A24000	jmp     ds:__imp_?GetRuntimeClass@CGdiObject@@UBEPAUCRuntimeClass@@XZ; CGdiObject::GetRuntimeClass(void)
?AfxGetModuleState@@YGPAVAFX_MODULE_STATE@@XZ_0:0x00407bd4-0x00407bda
0x00407bd4	FF25E4A24000	jmp     ds:__imp_?AfxGetModuleState@@YGPAVAFX_MODULE_STATE@@XZ; AfxGetModuleState(void)
?LoadBitmapW@CMFCToolBar@@UAEHIIIHII@Z_0:0x00407bda-0x00407be0
0x00407bda	FF25F4A24000	jmp     ds:__imp_?LoadBitmapW@CMFCToolBar@@UAEHIIIHII@Z; CMFCToolBar::LoadBitmapW(uint,uint,uint,int,uint,uint)
?GetRuntimeClass@CMFCToolBar@@UBEPAUCRuntimeClass@@XZ_0:0x00407be0-0x00407be6
0x00407be0	FF25F8A24000	jmp     ds:__imp_?GetRuntimeClass@CMFCToolBar@@UBEPAUCRuntimeClass@@XZ; CMFCToolBar::GetRuntimeClass(void)
?Serialize@CMFCToolBar@@UAEXAAVCArchive@@@Z_0:0x00407be6-0x00407bec
0x00407be6	FF25FCA24000	jmp     ds:__imp_?Serialize@CMFCToolBar@@UAEXAAVCArchive@@@Z; CMFCToolBar::Serialize(CArchive &)
?OnCmdMsg@CCmdTarget@@UAEHIHPAXPAUAFX_CMDHANDLERINFO@@@Z_0:0x00407bec-0x00407bf2
0x00407bec	FF2500A34000	jmp     ds:__imp_?OnCmdMsg@CCmdTarget@@UAEHIHPAXPAUAFX_CMDHANDLERINFO@@@Z; CCmdTarget::OnCmdMsg(uint,int,void *,AFX_CMDHANDLERINFO *)
?GetMessageMap@CMFCToolBar@@MBEPBUAFX_MSGMAP@@XZ_0:0x00407bf2-0x00407bf8
0x00407bf2	FF2504A34000	jmp     ds:__imp_?GetMessageMap@CMFCToolBar@@MBEPBUAFX_MSGMAP@@XZ; CMFCToolBar::GetMessageMap(void)
?DestroyWindow@CWnd@@UAEHXZ_0:0x00407bf8-0x00407bfe
0x00407bf8	FF2508A34000	jmp     ds:__imp_?DestroyWindow@CWnd@@UAEHXZ; CWnd::DestroyWindow(void)
?PreCreateWindow@CWnd@@UAEHAAUtagCREATESTRUCTW@@@Z_0:0x00407bfe-0x00407c04
0x00407bfe	FF250CA34000	jmp     ds:__imp_?PreCreateWindow@CWnd@@UAEHAAUtagCREATESTRUCTW@@@Z; CWnd::PreCreateWindow(tagCREATESTRUCTW &)
?GetMenu@CWnd@@UBEPAVCMenu@@XZ_0:0x00407c04-0x00407c0a
0x00407c04	FF2510A34000	jmp     ds:__imp_?GetMenu@CWnd@@UBEPAVCMenu@@XZ; CWnd::GetMenu(void)
?SetMenu@CWnd@@UAEHPAVCMenu@@@Z_0:0x00407c0a-0x00407c10
0x00407c0a	FF2514A34000	jmp     ds:__imp_?SetMenu@CWnd@@UAEHPAVCMenu@@@Z; CWnd::SetMenu(CMenu *)
?OnToolHitTest@CMFCToolBar@@MBEHVCPoint@@PAUtagTOOLINFOW@@@Z_0:0x00407c10-0x00407c16
0x00407c10	FF2518A34000	jmp     ds:__imp_?OnToolHitTest@CMFCToolBar@@MBEHVCPoint@@PAUtagTOOLINFOW@@@Z; CMFCToolBar::OnToolHitTest(CPoint,tagTOOLINFOW *)
?get_accParent@CBasePane@@UAEJPAPAUIDispatch@@@Z_0:0x00407c16-0x00407c1c
0x00407c16	FF251CA34000	jmp     ds:__imp_?get_accParent@CBasePane@@UAEJPAPAUIDispatch@@@Z; CBasePane::get_accParent(IDispatch * *)
?get_accChildCount@CBasePane@@UAEJPAJ@Z_0:0x00407c1c-0x00407c22
0x00407c1c	FF2520A34000	jmp     ds:__imp_?get_accChildCount@CBasePane@@UAEJPAJ@Z; CBasePane::get_accChildCount(long *)
?get_accChild@CBasePane@@UAEJUtagVARIANT@@PAPAUIDispatch@@@Z_0:0x00407c22-0x00407c28
0x00407c22	FF2524A34000	jmp     ds:__imp_?get_accChild@CBasePane@@UAEJUtagVARIANT@@PAPAUIDispatch@@@Z; CBasePane::get_accChild(tagVARIANT,IDispatch * *)
?get_accName@CBasePane@@UAEJUtagVARIANT@@PAPA_W@Z_0:0x00407c28-0x00407c2e
0x00407c28	FF2528A34000	jmp     ds:__imp_?get_accName@CBasePane@@UAEJUtagVARIANT@@PAPA_W@Z; CBasePane::get_accName(tagVARIANT,wchar_t * *)
?get_accValue@CBasePane@@UAEJUtagVARIANT@@PAPA_W@Z_0:0x00407c2e-0x00407c34
0x00407c2e	FF252CA34000	jmp     ds:__imp_?get_accValue@CBasePane@@UAEJUtagVARIANT@@PAPA_W@Z; CBasePane::get_accValue(tagVARIANT,wchar_t * *)
?get_accDescription@CBasePane@@UAEJUtagVARIANT@@PAPA_W@Z_0:0x00407c34-0x00407c3a
0x00407c34	FF2530A34000	jmp     ds:__imp_?get_accDescription@CBasePane@@UAEJUtagVARIANT@@PAPA_W@Z; CBasePane::get_accDescription(tagVARIANT,wchar_t * *)
?get_accRole@CBasePane@@UAEJUtagVARIANT@@PAU2@@Z_0:0x00407c3a-0x00407c40
0x00407c3a	FF2534A34000	jmp     ds:__imp_?get_accRole@CBasePane@@UAEJUtagVARIANT@@PAU2@@Z; CBasePane::get_accRole(tagVARIANT,tagVARIANT *)
?get_accState@CBasePane@@UAEJUtagVARIANT@@PAU2@@Z_0:0x00407c40-0x00407c46
0x00407c40	FF2538A34000	jmp     ds:__imp_?get_accState@CBasePane@@UAEJUtagVARIANT@@PAU2@@Z; CBasePane::get_accState(tagVARIANT,tagVARIANT *)
?get_accHelp@CBasePane@@UAEJUtagVARIANT@@PAPA_W@Z_0:0x00407c46-0x00407c4c
0x00407c46	FF253CA34000	jmp     ds:__imp_?get_accHelp@CBasePane@@UAEJUtagVARIANT@@PAPA_W@Z; CBasePane::get_accHelp(tagVARIANT,wchar_t * *)
?get_accHelpTopic@CBasePane@@UAEJPAPA_WUtagVARIANT@@PAJ@Z_0:0x00407c4c-0x00407c52
0x00407c4c	FF2540A34000	jmp     ds:__imp_?get_accHelpTopic@CBasePane@@UAEJPAPA_WUtagVARIANT@@PAJ@Z; CBasePane::get_accHelpTopic(wchar_t * *,tagVARIANT,long *)
?get_accKeyboardShortcut@CBasePane@@UAEJUtagVARIANT@@PAPA_W@Z_0:0x00407c52-0x00407c58
0x00407c52	FF2544A34000	jmp     ds:__imp_?get_accKeyboardShortcut@CBasePane@@UAEJUtagVARIANT@@PAPA_W@Z; CBasePane::get_accKeyboardShortcut(tagVARIANT,wchar_t * *)
?get_accFocus@CBasePane@@UAEJPAUtagVARIANT@@@Z_0:0x00407c58-0x00407c5e
0x00407c58	FF2548A34000	jmp     ds:__imp_?get_accFocus@CBasePane@@UAEJPAUtagVARIANT@@@Z; CBasePane::get_accFocus(tagVARIANT *)
?get_accSelection@CBasePane@@UAEJPAUtagVARIANT@@@Z_0:0x00407c5e-0x00407c64
0x00407c5e	FF254CA34000	jmp     ds:__imp_?get_accSelection@CBasePane@@UAEJPAUtagVARIANT@@@Z; CBasePane::get_accSelection(tagVARIANT *)
?get_accDefaultAction@CBasePane@@UAEJUtagVARIANT@@PAPA_W@Z_0:0x00407c64-0x00407c6a
0x00407c64	FF2550A34000	jmp     ds:__imp_?get_accDefaultAction@CBasePane@@UAEJUtagVARIANT@@PAPA_W@Z; CBasePane::get_accDefaultAction(tagVARIANT,wchar_t * *)
?accSelect@CBasePane@@UAEJJUtagVARIANT@@@Z_0:0x00407c6a-0x00407c70
0x00407c6a	FF2554A34000	jmp     ds:__imp_?accSelect@CBasePane@@UAEJJUtagVARIANT@@@Z; CBasePane::accSelect(long,tagVARIANT)
?accLocation@CBasePane@@UAEJPAJ000UtagVARIANT@@@Z_0:0x00407c70-0x00407c76
0x00407c70	FF2558A34000	jmp     ds:__imp_?accLocation@CBasePane@@UAEJPAJ000UtagVARIANT@@@Z; CBasePane::accLocation(long *,long *,long *,long *,tagVARIANT)
?accHitTest@CBasePane@@UAEJJJPAUtagVARIANT@@@Z_0:0x00407c76-0x00407c7c
0x00407c76	FF255CA34000	jmp     ds:__imp_?accHitTest@CBasePane@@UAEJJJPAUtagVARIANT@@@Z; CBasePane::accHitTest(long,long,tagVARIANT *)
?OnCommand@CMFCToolBar@@MAEHIJ@Z_0:0x00407c7c-0x00407c82
0x00407c7c	FF2560A34000	jmp     ds:__imp_?OnCommand@CMFCToolBar@@MAEHIJ@Z; CMFCToolBar::OnCommand(uint,long)
?PreTranslateMessage@CMFCToolBar@@MAEHPAUtagMSG@@@Z_0:0x00407c82-0x00407c88
0x00407c82	FF2564A34000	jmp     ds:__imp_?PreTranslateMessage@CMFCToolBar@@MAEHPAUtagMSG@@@Z; CMFCToolBar::PreTranslateMessage(tagMSG *)
?WindowProc@CBasePane@@MAEJIIJ@Z_0:0x00407c88-0x00407c8e
0x00407c88	FF2568A34000	jmp     ds:__imp_?WindowProc@CBasePane@@MAEJIIJ@Z; CBasePane::WindowProc(uint,uint,long)
?DefWindowProcW@CWnd@@MAEJIIJ@Z_0:0x00407c8e-0x00407c94
0x00407c8e	FF256CA34000	jmp     ds:__imp_?DefWindowProcW@CWnd@@MAEJIIJ@Z; CWnd::DefWindowProcW(uint,uint,long)
?PostNcDestroy@CWnd@@MAEXXZ_0:0x00407c94-0x00407c9a
0x00407c94	FF2570A34000	jmp     ds:__imp_?PostNcDestroy@CWnd@@MAEXXZ; CWnd::PostNcDestroy(void)
?IsFrameWnd@CWnd@@UBEHXZ_0:0x00407c9a-0x00407ca0
0x00407c9a	FF2574A34000	jmp     ds:__imp_?IsFrameWnd@CWnd@@UBEHXZ; CWnd::IsFrameWnd(void)
?GetCurrentAlignment@CBasePane@@UBEKXZ_0:0x00407ca0-0x00407ca6
0x00407ca0	FF2578A34000	jmp     ds:__imp_?GetCurrentAlignment@CBasePane@@UBEKXZ; CBasePane::GetCurrentAlignment(void)
?IsDocked@CBasePane@@UBEHXZ_0:0x00407ca6-0x00407cac
0x00407ca6	FF257CA34000	jmp     ds:__imp_?IsDocked@CBasePane@@UBEHXZ; CBasePane::IsDocked(void)
?IsTabbed@CPane@@UBEHXZ_0:0x00407cac-0x00407cb2
0x00407cac	FF2580A34000	jmp     ds:__imp_?IsTabbed@CPane@@UBEHXZ; CPane::IsTabbed(void)
?IsMDITabbed@CBasePane@@UBEHXZ_0:0x00407cb2-0x00407cb8
0x00407cb2	FF2584A34000	jmp     ds:__imp_?IsMDITabbed@CBasePane@@UBEHXZ; CBasePane::IsMDITabbed(void)
?IsVisible@CBasePane@@UBEHXZ_0:0x00407cb8-0x00407cbe
0x00407cb8	FF2588A34000	jmp     ds:__imp_?IsVisible@CBasePane@@UBEHXZ; CBasePane::IsVisible(void)
?CanFloat@CBasePane@@UBEHXZ_0:0x00407cbe-0x00407cc4
0x00407cbe	FF258CA34000	jmp     ds:__imp_?CanFloat@CBasePane@@UBEHXZ; CBasePane::CanFloat(void)
?CanBeTabbedDocument@CPane@@UBEHXZ_0:0x00407cc4-0x00407cca
0x00407cc4	FF2590A34000	jmp     ds:__imp_?CanBeTabbedDocument@CPane@@UBEHXZ; CPane::CanBeTabbedDocument(void)
?GetDockSiteFrameWnd@CBasePane@@UBEPAVCWnd@@XZ_0:0x00407cca-0x00407cd0
0x00407cca	FF2594A34000	jmp     ds:__imp_?GetDockSiteFrameWnd@CBasePane@@UBEPAVCWnd@@XZ; CBasePane::GetDockSiteFrameWnd(void)
?EnableDocking@CMFCToolBar@@UAEXK@Z_0:0x00407cd0-0x00407cd6
0x00407cd0	FF2598A34000	jmp     ds:__imp_?EnableDocking@CMFCToolBar@@UAEXK@Z; CMFCToolBar::EnableDocking(ulong)
?DockPane@CPane@@UAEHPAVCBasePane@@PBUtagRECT@@W4AFX_DOCK_METHOD@@@Z_0:0x00407cd6-0x00407cdc
0x00407cd6	FF259CA34000	jmp     ds:__imp_?DockPane@CPane@@UAEHPAVCBasePane@@PBUtagRECT@@W4AFX_DOCK_METHOD@@@Z; CPane::DockPane(CBasePane *,tagRECT const *,AFX_DOCK_METHOD)
?FloatPane@CPane@@UAEHVCRect@@W4AFX_DOCK_METHOD@@_N@Z_0:0x00407cdc-0x00407ce2
0x00407cdc	FF25A0A34000	jmp     ds:__imp_?FloatPane@CPane@@UAEHVCRect@@W4AFX_DOCK_METHOD@@_N@Z; CPane::FloatPane(CRect,AFX_DOCK_METHOD,bool)
?StretchPane@CMFCToolBar@@UAE?AVCSize@@HH@Z_0:0x00407ce2-0x00407ce8
0x00407ce2	FF25A4A34000	jmp     ds:__imp_?StretchPane@CMFCToolBar@@UAE?AVCSize@@HH@Z; CMFCToolBar::StretchPane(int,int)
?AdjustLayout@CMFCToolBar@@UAEXXZ_0:0x00407ce8-0x00407cee
0x00407ce8	FF25A8A34000	jmp     ds:__imp_?AdjustLayout@CMFCToolBar@@UAEXXZ; CMFCToolBar::AdjustLayout(void)
?RecalcLayout@CPane@@UAEXXZ_0:0x00407cee-0x00407cf4
0x00407cee	FF25ACA34000	jmp     ds:__imp_?RecalcLayout@CPane@@UAEXXZ; CPane::RecalcLayout(void)
?CreateDefaultMiniframe@CPane@@UAEPAVCPaneFrameWnd@@VCRect@@@Z_0:0x00407cf4-0x00407cfa
0x00407cf4	FF25B0A34000	jmp     ds:__imp_?CreateDefaultMiniframe@CPane@@UAEPAVCPaneFrameWnd@@VCRect@@@Z; CPane::CreateDefaultMiniframe(CRect)
?OnBeforeChangeParent@CMFCToolBar@@MAEXPAVCWnd@@H@Z_0:0x00407cfa-0x00407d00
0x00407cfa	FF25B4A34000	jmp     ds:__imp_?OnBeforeChangeParent@CMFCToolBar@@MAEXPAVCWnd@@H@Z; CMFCToolBar::OnBeforeChangeParent(CWnd *,int)
?OnAfterChangeParent@CMFCBaseToolBar@@UAEXPAVCWnd@@@Z_0:0x00407d00-0x00407d06
0x00407d00	FF25B8A34000	jmp     ds:__imp_?OnAfterChangeParent@CMFCBaseToolBar@@UAEXPAVCWnd@@@Z; CMFCBaseToolBar::OnAfterChangeParent(CWnd *)
?ShowPane@CBasePane@@UAEXHHH@Z_0:0x00407d06-0x00407d0c
0x00407d06	FF25BCA34000	jmp     ds:__imp_?ShowPane@CBasePane@@UAEXHHH@Z; CBasePane::ShowPane(int,int,int)
?GetParentMiniFrame@CBasePane@@UBEPAVCPaneFrameWnd@@H@Z_0:0x00407d0c-0x00407d12
0x00407d0c	FF25C0A34000	jmp     ds:__imp_?GetParentMiniFrame@CBasePane@@UBEPAVCPaneFrameWnd@@H@Z; CBasePane::GetParentMiniFrame(int)
?LoadState@CMFCToolBar@@UAEHPB_WHI@Z_0:0x00407d12-0x00407d18
0x00407d12	FF25C4A34000	jmp     ds:__imp_?LoadState@CMFCToolBar@@UAEHPB_WHI@Z; CMFCToolBar::LoadState(wchar_t const *,int,uint)
?SaveState@CMFCToolBar@@UAEHPB_WHI@Z_0:0x00407d18-0x00407d1e
0x00407d18	FF25C8A34000	jmp     ds:__imp_?SaveState@CMFCToolBar@@UAEHPB_WHI@Z; CMFCToolBar::SaveState(wchar_t const *,int,uint)
?MoveWindow@CBasePane@@UAEPAXAAVCRect@@HPAX@Z_0:0x00407d1e-0x00407d24
0x00407d1e	FF25CCA34000	jmp     ds:__imp_?MoveWindow@CBasePane@@UAEPAXAAVCRect@@HPAX@Z; CBasePane::MoveWindow(CRect &,int,void *)
?CopyState@CBasePane@@UAEXPAV1@@Z_0:0x00407d24-0x00407d2a
0x00407d24	FF25D0A34000	jmp     ds:__imp_?CopyState@CBasePane@@UAEXPAV1@@Z; CBasePane::CopyState(CBasePane *)
?UndockPane@CPane@@UAEXH@Z_0:0x00407d2a-0x00407d30
0x00407d2a	FF25D4A34000	jmp     ds:__imp_?UndockPane@CPane@@UAEXH@Z; CPane::UndockPane(int)
?OnPaneContextMenu@CBasePane@@UAEXPAVCWnd@@VCPoint@@@Z_0:0x00407d30-0x00407d36
0x00407d30	FF25D8A34000	jmp     ds:__imp_?OnPaneContextMenu@CBasePane@@UAEXPAVCWnd@@VCPoint@@@Z; CBasePane::OnPaneContextMenu(CWnd *,CPoint)
?CreateEx@CBasePane@@UAEHKPB_W0KABUtagRECT@@PAVCWnd@@IKPAUCCreateContext@@@Z_0:0x00407d36-0x00407d3c
0x00407d36	FF25DCA34000	jmp     ds:__imp_?CreateEx@CBasePane@@UAEHKPB_W0KABUtagRECT@@PAVCWnd@@IKPAUCCreateContext@@@Z; CBasePane::CreateEx(ulong,wchar_t const *,wchar_t const *,ulong,tagRECT const &,CWnd *,uint,ulong,CCreateContext *)
?OnSetAccData@CMFCToolBar@@UAEHJ@Z_0:0x00407d3c-0x00407d42
0x00407d3c	FF25E0A34000	jmp     ds:__imp_?OnSetAccData@CMFCToolBar@@UAEHJ@Z; CMFCToolBar::OnSetAccData(long)
?AccNotifyObjectFocusEvent@CMFCToolBar@@MAEXH@Z_0:0x00407d42-0x00407d48
0x00407d42	FF25E4A34000	jmp     ds:__imp_?AccNotifyObjectFocusEvent@CMFCToolBar@@MAEXH@Z; CMFCToolBar::AccNotifyObjectFocusEvent(int)
?DoPaint@CMFCToolBar@@MAEXPAVCDC@@@Z_0:0x00407d48-0x00407d4e
0x00407d48	FF25E8A34000	jmp     ds:__imp_?DoPaint@CMFCToolBar@@MAEXPAVCDC@@@Z; CMFCToolBar::DoPaint(CDC *)
?AdjustDockingLayout@CBasePane@@UAEXPAX@Z_0:0x00407d4e-0x00407d54
0x00407d4e	FF25ECA34000	jmp     ds:__imp_?AdjustDockingLayout@CBasePane@@UAEXPAX@Z; CBasePane::AdjustDockingLayout(void *)
?GetAvailableExpandSize@CPane@@UBEHXZ_0:0x00407d54-0x00407d5a
0x00407d54	FF25F0A34000	jmp     ds:__imp_?GetAvailableExpandSize@CPane@@UBEHXZ; CPane::GetAvailableExpandSize(void)
?GetAvailableStretchSize@CPane@@UBEHXZ_0:0x00407d5a-0x00407d60
0x00407d5a	FF25F4A34000	jmp     ds:__imp_?GetAvailableStretchSize@CPane@@UBEHXZ; CPane::GetAvailableStretchSize(void)
?CopyState@CPane@@UAEXPAV1@@Z_0:0x00407d60-0x00407d66
0x00407d60	FF25F8A34000	jmp     ds:__imp_?CopyState@CPane@@UAEXPAV1@@Z; CPane::CopyState(CPane *)
?GetPaneName@CPane@@UBEXAAV?$CStringT@_WV?$StrTraitMFC_DLL@_WV?$ChTraitsCRT@_W@ATL@@@@@ATL@@@Z_0:0x00407d66-0x00407d6c
0x00407d66	FF25FCA34000	jmp     ds:__imp_?GetPaneName@CPane@@UBEXAAV?$CStringT@_WV?$StrTraitMFC_DLL@_WV?$ChTraitsCRT@_W@ATL@@@@@ATL@@@Z; CPane::GetPaneName(ATL::CStringT<wchar_t,StrTraitMFC_DLL<wchar_t,ATL::ChTraitsCRT<wchar_t>>> &)
?SetActiveInGroup@CPane@@UAEXH@Z_0:0x00407d6c-0x00407d72
0x00407d6c	FF2500A44000	jmp     ds:__imp_?SetActiveInGroup@CPane@@UAEXH@Z; CPane::SetActiveInGroup(int)
?PrepareToDock@CPane@@UAEXPAVCDockSite@@W4AFX_DOCK_METHOD@@@Z_0:0x00407d72-0x00407d78
0x00407d72	FF2504A44000	jmp     ds:__imp_?PrepareToDock@CPane@@UAEXPAVCDockSite@@W4AFX_DOCK_METHOD@@@Z; CPane::PrepareToDock(CDockSite *,AFX_DOCK_METHOD)
?DockByMouse@CPane@@UAEHPAVCBasePane@@@Z_0:0x00407d78-0x00407d7e
0x00407d78	FF2508A44000	jmp     ds:__imp_?DockByMouse@CPane@@UAEHPAVCBasePane@@@Z; CPane::DockByMouse(CBasePane *)
?CalcSize@CMFCToolBar@@UAE?AVCSize@@H@Z_0:0x00407d7e-0x00407d84
0x00407d7e	FF250CA44000	jmp     ds:__imp_?CalcSize@CMFCToolBar@@UAE?AVCSize@@H@Z; CMFCToolBar::CalcSize(int)
?MovePane@CPane@@UAE?AVCSize@@VCRect@@HAAPAX@Z_0:0x00407d84-0x00407d8a
0x00407d84	FF2510A44000	jmp     ds:__imp_?MovePane@CPane@@UAE?AVCSize@@VCRect@@HAAPAX@Z; CPane::MovePane(CRect,int,void * &)
?StretchPaneDeferWndPos@CPane@@UAEHHAAPAX@Z_0:0x00407d8a-0x00407d90
0x00407d8a	FF2514A44000	jmp     ds:__imp_?StretchPaneDeferWndPos@CPane@@UAEHHAAPAX@Z; CPane::StretchPaneDeferWndPos(int,void * &)
?IsChangeState@CPane@@UBE?AW4AFX_CS_STATUS@@HPAPAVCBasePane@@@Z_0:0x00407d90-0x00407d96
0x00407d90	FF2518A44000	jmp     ds:__imp_?IsChangeState@CPane@@UBE?AW4AFX_CS_STATUS@@HPAPAVCBasePane@@@Z; CPane::IsChangeState(int,CBasePane * *)
?SetDockState@CPane@@UAEXPAVCDockingManager@@@Z_0:0x00407d96-0x00407d9c
0x00407d96	FF251CA44000	jmp     ds:__imp_?SetDockState@CPane@@UAEXPAVCDockingManager@@@Z; CPane::SetDockState(CDockingManager *)
?OnProcessDblClk@CPane@@UAEXXZ_0:0x00407d9c-0x00407da2
0x00407d9c	FF2520A44000	jmp     ds:__imp_?OnProcessDblClk@CPane@@UAEXXZ; CPane::OnProcessDblClk(void)
?OnBeforeFloat@CPane@@UAEHAAVCRect@@W4AFX_DOCK_METHOD@@@Z_0:0x00407da2-0x00407da8
0x00407da2	FF2524A44000	jmp     ds:__imp_?OnBeforeFloat@CPane@@UAEHAAVCRect@@W4AFX_DOCK_METHOD@@@Z; CPane::OnBeforeFloat(CRect &,AFX_DOCK_METHOD)
?OnAfterFloat@CMFCToolBar@@MAEXXZ_0:0x00407da8-0x00407dae
0x00407da8	FF2528A44000	jmp     ds:__imp_?OnAfterFloat@CMFCToolBar@@MAEXXZ; CMFCToolBar::OnAfterFloat(void)
?Create@CPane@@UAEHPB_WKABUtagRECT@@PAVCWnd@@IKPAUCCreateContext@@@Z_0:0x00407dae-0x00407db4
0x00407dae	FF252CA44000	jmp     ds:__imp_?Create@CPane@@UAEHPB_WKABUtagRECT@@PAVCWnd@@IKPAUCCreateContext@@@Z; CPane::Create(wchar_t const *,ulong,tagRECT const &,CWnd *,uint,ulong,CCreateContext *)
?CreateEx@CPane@@UAEHKPB_WKABUtagRECT@@PAVCWnd@@IKPAUCCreateContext@@@Z_0:0x00407db4-0x00407dba
0x00407db4	FF2530A44000	jmp     ds:__imp_?CreateEx@CPane@@UAEHKPB_WKABUtagRECT@@PAVCWnd@@IKPAUCCreateContext@@@Z; CPane::CreateEx(ulong,wchar_t const *,ulong,tagRECT const &,CWnd *,uint,ulong,CCreateContext *)
?CalcAvailableSize@CPane@@UAE?AVCSize@@VCRect@@@Z_0:0x00407dba-0x00407dc0
0x00407dba	FF2534A44000	jmp     ds:__imp_?CalcAvailableSize@CPane@@UAE?AVCSize@@VCRect@@@Z; CPane::CalcAvailableSize(CRect)
?AdjustSizeImmediate@CPane@@UAEXH@Z_0:0x00407dc0-0x00407dc6
0x00407dc0	FF2538A44000	jmp     ds:__imp_?AdjustSizeImmediate@CPane@@UAEXH@Z; CPane::AdjustSizeImmediate(int)
?OnPressCloseButton@CPane@@UAEXXZ_0:0x00407dc6-0x00407dcc
0x00407dc6	FF253CA44000	jmp     ds:__imp_?OnPressCloseButton@CPane@@UAEXXZ; CPane::OnPressCloseButton(void)
?ConvertToTabbedDocument@CPane@@UAEXH@Z_0:0x00407dcc-0x00407dd2
0x00407dcc	FF2540A44000	jmp     ds:__imp_?ConvertToTabbedDocument@CPane@@UAEXH@Z; CPane::ConvertToTabbedDocument(int)
?OnContinueMoving@CPane@@MAEXXZ_0:0x00407dd2-0x00407dd8
0x00407dd2	FF2544A44000	jmp     ds:__imp_?OnContinueMoving@CPane@@MAEXXZ; CPane::OnContinueMoving(void)
?OnBeforeDock@CPane@@MAEHPAPAVCBasePane@@PBUtagRECT@@W4AFX_DOCK_METHOD@@@Z_0:0x00407dd8-0x00407dde
0x00407dd8	FF2548A44000	jmp     ds:__imp_?OnBeforeDock@CPane@@MAEHPAPAVCBasePane@@PBUtagRECT@@W4AFX_DOCK_METHOD@@@Z; CPane::OnBeforeDock(CBasePane * *,tagRECT const *,AFX_DOCK_METHOD)
?OnAfterDock@CMFCToolBar@@MAEXPAVCBasePane@@PBUtagRECT@@W4AFX_DOCK_METHOD@@@Z_0:0x00407dde-0x00407de4
0x00407dde	FF254CA44000	jmp     ds:__imp_?OnAfterDock@CMFCToolBar@@MAEXPAVCBasePane@@PBUtagRECT@@W4AFX_DOCK_METHOD@@@Z; CMFCToolBar::OnAfterDock(CBasePane *,tagRECT const *,AFX_DOCK_METHOD)
?OnAfterStretch@CMFCBaseToolBar@@MAEXH@Z_0:0x00407de4-0x00407dea
0x00407de4	FF2550A44000	jmp     ds:__imp_?OnAfterStretch@CMFCBaseToolBar@@MAEXH@Z; CMFCBaseToolBar::OnAfterStretch(int)
?RemoveFromMiniframe@CPane@@MAEXPAVCWnd@@W4AFX_DOCK_METHOD@@@Z_0:0x00407dea-0x00407df0
0x00407dea	FF2554A44000	jmp     ds:__imp_?RemoveFromMiniframe@CPane@@MAEXPAVCWnd@@W4AFX_DOCK_METHOD@@@Z; CPane::RemoveFromMiniframe(CWnd *,AFX_DOCK_METHOD)
?SetDragMode@CPane@@MAEXH@Z_0:0x00407df0-0x00407df6
0x00407df0	FF2558A44000	jmp     ds:__imp_?SetDragMode@CPane@@MAEXH@Z; CPane::SetDragMode(int)
?Dock@CPane@@MAEHPAVCBasePane@@PBUtagRECT@@W4AFX_DOCK_METHOD@@@Z_0:0x00407df6-0x00407dfc
0x00407df6	FF255CA44000	jmp     ds:__imp_?Dock@CPane@@MAEHPAVCBasePane@@PBUtagRECT@@W4AFX_DOCK_METHOD@@@Z; CPane::Dock(CBasePane *,tagRECT const *,AFX_DOCK_METHOD)
?EnterDragMode@CPane@@MAEXH@Z_0:0x00407dfc-0x00407e02
0x00407dfc	FF2560A44000	jmp     ds:__imp_?EnterDragMode@CPane@@MAEXH@Z; CPane::EnterDragMode(int)
?OnRTLChanged@CPane@@MAEXH@Z_0:0x00407e02-0x00407e08
0x00407e02	FF2564A44000	jmp     ds:__imp_?OnRTLChanged@CPane@@MAEXH@Z; CPane::OnRTLChanged(int)
?StoreRecentDockSiteInfo@CPane@@MAEXXZ_0:0x00407e08-0x00407e0e
0x00407e08	FF2568A44000	jmp     ds:__imp_?StoreRecentDockSiteInfo@CPane@@MAEXXZ; CPane::StoreRecentDockSiteInfo(void)
?CreateEx@CMFCToolBar@@UAEHPAVCWnd@@KKVCRect@@I@Z_0:0x00407e0e-0x00407e14
0x00407e0e	FF256CA44000	jmp     ds:__imp_?CreateEx@CMFCToolBar@@UAEHPAVCWnd@@KKVCRect@@I@Z; CMFCToolBar::CreateEx(CWnd *,ulong,ulong,CRect,uint)
?ResetImages@CMFCToolBar@@UAEXXZ_0:0x00407e14-0x00407e1a
0x00407e14	FF2570A44000	jmp     ds:__imp_?ResetImages@CMFCToolBar@@UAEXXZ; CMFCToolBar::ResetImages(void)
?LoadBitmapEx@CMFCToolBar@@UAEHAAVCMFCToolBarInfo@@H@Z_0:0x00407e1a-0x00407e20
0x00407e1a	FF2574A44000	jmp     ds:__imp_?LoadBitmapEx@CMFCToolBar@@UAEHAAVCMFCToolBarInfo@@H@Z; CMFCToolBar::LoadBitmapEx(CMFCToolBarInfo &,int)
?LoadToolBarEx@CMFCToolBar@@UAEHIAAVCMFCToolBarInfo@@H@Z_0:0x00407e20-0x00407e26
0x00407e20	FF2578A44000	jmp     ds:__imp_?LoadToolBarEx@CMFCToolBar@@UAEHIAAVCMFCToolBarInfo@@H@Z; CMFCToolBar::LoadToolBarEx(uint,CMFCToolBarInfo &,int)
?SetButtons@CMFCToolBar@@UAEHPBIHH@Z_0:0x00407e26-0x00407e2c
0x00407e26	FF257CA44000	jmp     ds:__imp_?SetButtons@CMFCToolBar@@UAEHPBIHH@Z; CMFCToolBar::SetButtons(uint const *,int,int)
?InsertButton@CMFCToolBar@@MAEHPAVCMFCToolBarButton@@H@Z_0:0x00407e2c-0x00407e32
0x00407e2c	FF2580A44000	jmp     ds:__imp_?InsertButton@CMFCToolBar@@MAEHPAVCMFCToolBarButton@@H@Z; CMFCToolBar::InsertButton(CMFCToolBarButton *,int)
?InsertButton@CMFCToolBar@@UAEHABVCMFCToolBarButton@@H@Z_0:0x00407e32-0x00407e38
0x00407e32	FF2584A44000	jmp     ds:__imp_?InsertButton@CMFCToolBar@@UAEHABVCMFCToolBarButton@@H@Z; CMFCToolBar::InsertButton(CMFCToolBarButton const &,int)
?InsertSeparator@CMFCToolBar@@UAEHH@Z_0:0x00407e38-0x00407e3e
0x00407e38	FF2588A44000	jmp     ds:__imp_?InsertSeparator@CMFCToolBar@@UAEHH@Z; CMFCToolBar::InsertSeparator(int)
?RemoveButton@CMFCToolBar@@UAEHH@Z_0:0x00407e3e-0x00407e44
0x00407e3e	FF258CA44000	jmp     ds:__imp_?RemoveButton@CMFCToolBar@@UAEHH@Z; CMFCToolBar::RemoveButton(int)
?RemoveAllButtons@CMFCToolBar@@UAEXXZ_0:0x00407e44-0x00407e4a
0x00407e44	FF2590A44000	jmp     ds:__imp_?RemoveAllButtons@CMFCToolBar@@UAEXXZ; CMFCToolBar::RemoveAllButtons(void)
?Deactivate@CMFCToolBar@@UAEXXZ_0:0x00407e4a-0x00407e50
0x00407e4a	FF25B4A44000	jmp     ds:__imp_?Deactivate@CMFCToolBar@@UAEXXZ; CMFCToolBar::Deactivate(void)
?RestoreFocus@CMFCToolBar@@UAEXXZ_0:0x00407e50-0x00407e56
0x00407e50	FF25B8A44000	jmp     ds:__imp_?RestoreFocus@CMFCToolBar@@UAEXXZ; CMFCToolBar::RestoreFocus(void)
?GetItemRect@CMFCToolBar@@UBEXHPAUtagRECT@@@Z_0:0x00407e56-0x00407e5c
0x00407e56	FF25BCA44000	jmp     ds:__imp_?GetItemRect@CMFCToolBar@@UBEXHPAUtagRECT@@@Z; CMFCToolBar::GetItemRect(int,tagRECT *)
?GetInvalidateItemRect@CMFCToolBar@@UBEXHPAUtagRECT@@@Z_0:0x00407e5c-0x00407e62
0x00407e5c	FF25C0A44000	jmp     ds:__imp_?GetInvalidateItemRect@CMFCToolBar@@UBEXHPAUtagRECT@@@Z; CMFCToolBar::GetInvalidateItemRect(int,tagRECT *)
?SetButtonStyle@CMFCToolBar@@UAEXHI@Z_0:0x00407e62-0x00407e68
0x00407e62	FF25C4A44000	jmp     ds:__imp_?SetButtonStyle@CMFCToolBar@@UAEXHI@Z; CMFCToolBar::SetButtonStyle(int,uint)
?RemoveStateFromRegistry@CMFCToolBar@@UAEHPB_WHI@Z_0:0x00407e68-0x00407e6e
0x00407e68	FF25C8A44000	jmp     ds:__imp_?RemoveStateFromRegistry@CMFCToolBar@@UAEHPB_WHI@Z; CMFCToolBar::RemoveStateFromRegistry(wchar_t const *,int,uint)
?CanBeRestored@CMFCToolBar@@UBEHXZ_0:0x00407e6e-0x00407e74
0x00407e6e	FF25CCA44000	jmp     ds:__imp_?CanBeRestored@CMFCToolBar@@UBEHXZ; CMFCToolBar::CanBeRestored(void)
?RestoreOriginalstate@CMFCToolBar@@UAEHXZ_0:0x00407e74-0x00407e7a
0x00407e74	FF25D0A44000	jmp     ds:__imp_?RestoreOriginalstate@CMFCToolBar@@UAEHXZ; CMFCToolBar::RestoreOriginalstate(void)
?HitTest@CMFCToolBar@@UAEHVCPoint@@@Z_0:0x00407e7a-0x00407e80
0x00407e7a	FF25D4A44000	jmp     ds:__imp_?HitTest@CMFCToolBar@@UAEHVCPoint@@@Z; CMFCToolBar::HitTest(CPoint)
?TranslateChar@CMFCToolBar@@UAEHI@Z_0:0x00407e80-0x00407e86
0x00407e80	FF25D8A44000	jmp     ds:__imp_?TranslateChar@CMFCToolBar@@UAEHI@Z; CMFCToolBar::TranslateChar(uint)
?PrevMenu@CMFCToolBar@@UAEHXZ_0:0x00407e86-0x00407e8c
0x00407e86	FF25DCA44000	jmp     ds:__imp_?PrevMenu@CMFCToolBar@@UAEHXZ; CMFCToolBar::PrevMenu(void)
?NextMenu@CMFCToolBar@@UAEHXZ_0:0x00407e8c-0x00407e92
0x00407e8c	FF25E0A44000	jmp     ds:__imp_?NextMenu@CMFCToolBar@@UAEHXZ; CMFCToolBar::NextMenu(void)
?OnSetDefaultButtonText@CMFCToolBar@@UAEHPAVCMFCToolBarButton@@@Z_0:0x00407e92-0x00407e98
0x00407e92	FF25E4A44000	jmp     ds:__imp_?OnSetDefaultButtonText@CMFCToolBar@@UAEHPAVCMFCToolBarButton@@@Z; CMFCToolBar::OnSetDefaultButtonText(CMFCToolBarButton *)
?OnGlobalFontsChanged@CMFCToolBar@@UAEXXZ_0:0x00407e98-0x00407e9e
0x00407e98	FF25E8A44000	jmp     ds:__imp_?OnGlobalFontsChanged@CMFCToolBar@@UAEXXZ; CMFCToolBar::OnGlobalFontsChanged(void)
?OnUserToolTip@CMFCToolBar@@UBEHPAVCMFCToolBarButton@@AAV?$CStringT@_WV?$StrTraitMFC_DLL@_WV?$ChTraitsCRT@_W@ATL@@@@@ATL@@@Z_0:0x00407e9e-0x00407ea4
0x00407e9e	FF25ECA44000	jmp     ds:__imp_?OnUserToolTip@CMFCToolBar@@UBEHPAVCMFCToolBarButton@@AAV?$CStringT@_WV?$StrTraitMFC_DLL@_WV?$ChTraitsCRT@_W@ATL@@@@@ATL@@@Z; CMFCToolBar::OnUserToolTip(CMFCToolBarButton *,ATL::CStringT<wchar_t,StrTraitMFC_DLL<wchar_t,ATL::ChTraitsCRT<wchar_t>>> &)
?OnChangeHot@CMFCToolBar@@UAEXH@Z_0:0x00407ea4-0x00407eaa
0x00407ea4	FF25F0A44000	jmp     ds:__imp_?OnChangeHot@CMFCToolBar@@UAEXH@Z; CMFCToolBar::OnChangeHot(int)
?OnChangeVisualManager@CMFCToolBar@@UAEXXZ_0:0x00407eaa-0x00407eb0
0x00407eaa	FF25F4A44000	jmp     ds:__imp_?OnChangeVisualManager@CMFCToolBar@@UAEXXZ; CMFCToolBar::OnChangeVisualManager(void)
?CalcLayout@CMFCToolBar@@MAE?AVCSize@@KH@Z_0:0x00407eb0-0x00407eb6
0x00407eb0	FF25F8A44000	jmp     ds:__imp_?CalcLayout@CMFCToolBar@@MAE?AVCSize@@KH@Z; CMFCToolBar::CalcLayout(ulong,int)
?DrawButton@CMFCToolBar@@MAEHPAVCDC@@PAVCMFCToolBarButton@@PAVCMFCToolBarImages@@HH@Z_0:0x00407eb6-0x00407ebc
0x00407eb6	FF25FCA44000	jmp     ds:__imp_?DrawButton@CMFCToolBar@@MAEHPAVCDC@@PAVCMFCToolBarButton@@PAVCMFCToolBarImages@@HH@Z; CMFCToolBar::DrawButton(CDC *,CMFCToolBarButton *,CMFCToolBarImages *,int,int)
?DrawDragCursor@CMFCToolBar@@MAEXPAVCDC@@@Z_0:0x00407ebc-0x00407ec2
0x00407ebc	FF2500A54000	jmp     ds:__imp_?DrawDragCursor@CMFCToolBar@@MAEXPAVCDC@@@Z; CMFCToolBar::DrawDragCursor(CDC *)
?OnDrop@CMFCToolBar@@MAEHPAVCOleDataObject@@KVCPoint@@@Z_0:0x00407ec2-0x00407ec8
0x00407ec2	FF2508A54000	jmp     ds:__imp_?OnDrop@CMFCToolBar@@MAEHPAVCOleDataObject@@KVCPoint@@@Z; CMFCToolBar::OnDrop(COleDataObject *,ulong,CPoint)
?OnDragEnter@CMFCToolBar@@MAEKPAVCOleDataObject@@KVCPoint@@@Z_0:0x00407ec8-0x00407ece
0x00407ec8	FF250CA54000	jmp     ds:__imp_?OnDragEnter@CMFCToolBar@@MAEKPAVCOleDataObject@@KVCPoint@@@Z; CMFCToolBar::OnDragEnter(COleDataObject *,ulong,CPoint)
?OnDragLeave@CMFCToolBar@@MAEXXZ_0:0x00407ece-0x00407ed4
0x00407ece	FF2510A54000	jmp     ds:__imp_?OnDragLeave@CMFCToolBar@@MAEXXZ; CMFCToolBar::OnDragLeave(void)
?OnDragOver@CMFCToolBar@@MAEKPAVCOleDataObject@@KVCPoint@@@Z_0:0x00407ed4-0x00407eda
0x00407ed4	FF2514A54000	jmp     ds:__imp_?OnDragOver@CMFCToolBar@@MAEKPAVCOleDataObject@@KVCPoint@@@Z; CMFCToolBar::OnDragOver(COleDataObject *,ulong,CPoint)
?NotifyControlCommand@CMFCToolBar@@MAEHPAVCMFCToolBarButton@@HHIJ@Z_0:0x00407eda-0x00407ee0
0x00407eda	FF2518A54000	jmp     ds:__imp_?NotifyControlCommand@CMFCToolBar@@MAEHPAVCMFCToolBarButton@@HHIJ@Z; CMFCToolBar::NotifyControlCommand(CMFCToolBarButton *,int,int,uint,long)
?FindDropIndex@CMFCToolBar@@MBEHVCPoint@@AAVCRect@@@Z_0:0x00407ee0-0x00407ee6
0x00407ee0	FF251CA54000	jmp     ds:__imp_?FindDropIndex@CMFCToolBar@@MBEHVCPoint@@AAVCRect@@@Z; CMFCToolBar::FindDropIndex(CPoint,CRect &)
?AdjustLocations@CMFCToolBar@@MAEXXZ_0:0x00407ee6-0x00407eec
0x00407ee6	FF2520A54000	jmp     ds:__imp_?AdjustLocations@CMFCToolBar@@MAEXXZ; CMFCToolBar::AdjustLocations(void)
?DrawSeparator@CMFCToolBar@@MAEXPAVCDC@@ABVCRect@@H@Z_0:0x00407eec-0x00407ef2
0x00407eec	FF2524A54000	jmp     ds:__imp_?DrawSeparator@CMFCToolBar@@MAEXPAVCDC@@ABVCRect@@H@Z; CMFCToolBar::DrawSeparator(CDC *,CRect const &,int)
?CreateDroppedButton@CMFCToolBar@@MAEPAVCMFCToolBarButton@@PAVCOleDataObject@@@Z_0:0x00407ef2-0x00407ef8
0x00407ef2	FF2528A54000	jmp     ds:__imp_?CreateDroppedButton@CMFCToolBar@@MAEPAVCMFCToolBarButton@@PAVCOleDataObject@@@Z; CMFCToolBar::CreateDroppedButton(COleDataObject *)
?OnCustomizeMode@CMFCToolBar@@MAEXH@Z_0:0x00407ef8-0x00407efe
0x00407ef8	FF252CA54000	jmp     ds:__imp_?OnCustomizeMode@CMFCToolBar@@MAEXH@Z; CMFCToolBar::OnCustomizeMode(int)
?EnableContextMenuItems@CMFCToolBar@@MAEHPAVCMFCToolBarButton@@PAVCMenu@@@Z_0:0x00407efe-0x00407f04
0x00407efe	FF2530A54000	jmp     ds:__imp_?EnableContextMenuItems@CMFCToolBar@@MAEHPAVCMFCToolBarButton@@PAVCMenu@@@Z; CMFCToolBar::EnableContextMenuItems(CMFCToolBarButton *,CMenu *)
?OnCalcSeparatorRect@CMFCToolBar@@MAEXPAVCMFCToolBarButton@@AAVCRect@@H@Z_0:0x00407f04-0x00407f0a
0x00407f04	FF2534A54000	jmp     ds:__imp_?OnCalcSeparatorRect@CMFCToolBar@@MAEXPAVCMFCToolBarButton@@AAVCRect@@H@Z; CMFCToolBar::OnCalcSeparatorRect(CMFCToolBarButton *,CRect &,int)
?AddRemoveSeparator@CMFCToolBar@@MAEXPBVCMFCToolBarButton@@ABVCPoint@@1@Z_0:0x00407f0a-0x00407f10
0x00407f0a	FF2538A54000	jmp     ds:__imp_?AddRemoveSeparator@CMFCToolBar@@MAEXPBVCMFCToolBarButton@@ABVCPoint@@1@Z; CMFCToolBar::AddRemoveSeparator(CMFCToolBarButton const *,CPoint const &,CPoint const &)
?ShowCommandMessageString@CMFCToolBar@@MAEXI@Z_0:0x00407f10-0x00407f16
0x00407f10	FF253CA54000	jmp     ds:__imp_?ShowCommandMessageString@CMFCToolBar@@MAEXI@Z; CMFCToolBar::ShowCommandMessageString(uint)
?CalcMaxButtonHeight@CMFCToolBar@@MAEHXZ_0:0x00407f16-0x00407f1c
0x00407f16	FF2540A54000	jmp     ds:__imp_?CalcMaxButtonHeight@CMFCToolBar@@MAEHXZ; CMFCToolBar::CalcMaxButtonHeight(void)
?OnAfterButtonDelete@CMFCToolBar@@MAEXXZ_0:0x00407f1c-0x00407f22
0x00407f1c	FF2544A54000	jmp     ds:__imp_?OnAfterButtonDelete@CMFCToolBar@@MAEXXZ; CMFCToolBar::OnAfterButtonDelete(void)
?SaveOriginalState@CMFCToolBar@@MAEXAAVCSettingsStore@@@Z_0:0x00407f22-0x00407f28
0x00407f22	FF2548A54000	jmp     ds:__imp_?SaveOriginalState@CMFCToolBar@@MAEXAAVCSettingsStore@@@Z; CMFCToolBar::SaveOriginalState(CSettingsStore &)
?LoadLastOriginalState@CMFCToolBar@@MAEHAAVCSettingsStore@@@Z_0:0x00407f28-0x00407f2e
0x00407f28	FF254CA54000	jmp     ds:__imp_?LoadLastOriginalState@CMFCToolBar@@MAEHAAVCSettingsStore@@@Z; CMFCToolBar::LoadLastOriginalState(CSettingsStore &)
?SmartUpdate@CMFCToolBar@@MAEHABVCObList@@@Z_0:0x00407f2e-0x00407f34
0x00407f2e	FF2550A54000	jmp     ds:__imp_?SmartUpdate@CMFCToolBar@@MAEHABVCObList@@@Z; CMFCToolBar::SmartUpdate(CObList const &)
?GetRuntimeClass@CDockablePane@@UBEPAUCRuntimeClass@@XZ_0:0x00407f34-0x00407f3a
0x00407f34	FF2554A54000	jmp     ds:__imp_?GetRuntimeClass@CDockablePane@@UBEPAUCRuntimeClass@@XZ; CDockablePane::GetRuntimeClass(void)
?Serialize@CDockablePane@@UAEXAAVCArchive@@@Z_0:0x00407f3a-0x00407f40
0x00407f3a	FF2558A54000	jmp     ds:__imp_?Serialize@CDockablePane@@UAEXAAVCArchive@@@Z; CDockablePane::Serialize(CArchive &)
?OnCommand@CWnd@@MAEHIJ@Z_0:0x00407f40-0x00407f46
0x00407f40	FF255CA54000	jmp     ds:__imp_?OnCommand@CWnd@@MAEHIJ@Z; CWnd::OnCommand(uint,long)
?IsDocked@CDockablePane@@UBEHXZ_0:0x00407f46-0x00407f4c
0x00407f46	FF2560A54000	jmp     ds:__imp_?IsDocked@CDockablePane@@UBEHXZ; CDockablePane::IsDocked(void)
?IsVisible@CDockablePane@@UBEHXZ_0:0x00407f4c-0x00407f52
0x00407f4c	FF2564A54000	jmp     ds:__imp_?IsVisible@CDockablePane@@UBEHXZ; CDockablePane::IsVisible(void)
?IsInFloatingMultiPaneFrameWnd@CDockablePane@@UBEHXZ_0:0x00407f52-0x00407f58
0x00407f52	FF2568A54000	jmp     ds:__imp_?IsInFloatingMultiPaneFrameWnd@CDockablePane@@UBEHXZ; CDockablePane::IsInFloatingMultiPaneFrameWnd(void)
?GetCaptionHeight@CDockablePane@@UBEHXZ_0:0x00407f58-0x00407f5e
0x00407f58	FF2570A54000	jmp     ds:__imp_?GetCaptionHeight@CDockablePane@@UBEHXZ; CDockablePane::GetCaptionHeight(void)
?GetDockingMode@CBasePane@@UBE?AW4AFX_DOCK_TYPE@@XZ_0:0x00407f5e-0x00407f64
0x00407f5e	FF2574A54000	jmp     ds:__imp_?GetDockingMode@CBasePane@@UBE?AW4AFX_DOCK_TYPE@@XZ; CBasePane::GetDockingMode(void)
?CanAutoHide@CDockablePane@@UBEHXZ_0:0x00407f64-0x00407f6a
0x00407f64	FF2578A54000	jmp     ds:__imp_?CanAutoHide@CDockablePane@@UBEHXZ; CDockablePane::CanAutoHide(void)
?EnableGripper@CDockablePane@@UAEXH@Z_0:0x00407f6a-0x00407f70
0x00407f6a	FF257CA54000	jmp     ds:__imp_?EnableGripper@CDockablePane@@UAEXH@Z; CDockablePane::EnableGripper(int)
?DockToFrameWindow@CDockablePane@@UAEHKPBUtagRECT@@KPAVCBasePane@@HH@Z_0:0x00407f70-0x00407f76
0x00407f70	FF2580A54000	jmp     ds:__imp_?DockToFrameWindow@CDockablePane@@UAEHKPBUtagRECT@@KPAVCBasePane@@HH@Z; CDockablePane::DockToFrameWindow(ulong,tagRECT const *,ulong,CBasePane *,int,int)
?OnBeforeChangeParent@CDockablePane@@UAEXPAVCWnd@@H@Z_0:0x00407f76-0x00407f7c
0x00407f76	FF2584A54000	jmp     ds:__imp_?OnBeforeChangeParent@CDockablePane@@UAEXPAVCWnd@@H@Z; CDockablePane::OnBeforeChangeParent(CWnd *,int)
?OnAfterChangeParent@CDockablePane@@UAEXPAVCWnd@@@Z_0:0x00407f7c-0x00407f82
0x00407f7c	FF2588A54000	jmp     ds:__imp_?OnAfterChangeParent@CDockablePane@@UAEXPAVCWnd@@@Z; CDockablePane::OnAfterChangeParent(CWnd *)
?ShowPane@CDockablePane@@UAEXHHH@Z_0:0x00407f82-0x00407f88
0x00407f82	FF258CA54000	jmp     ds:__imp_?ShowPane@CDockablePane@@UAEXHHH@Z; CDockablePane::ShowPane(int,int,int)
?LoadState@CDockablePane@@UAEHPB_WHI@Z_0:0x00407f88-0x00407f8e
0x00407f88	FF2590A54000	jmp     ds:__imp_?LoadState@CDockablePane@@UAEHPB_WHI@Z; CDockablePane::LoadState(wchar_t const *,int,uint)
?SaveState@CDockablePane@@UAEHPB_WHI@Z_0:0x00407f8e-0x00407f94
0x00407f8e	FF2594A54000	jmp     ds:__imp_?SaveState@CDockablePane@@UAEHPB_WHI@Z; CDockablePane::SaveState(wchar_t const *,int,uint)
?UndockPane@CDockablePane@@UAEXH@Z_0:0x00407f94-0x00407f9a
0x00407f94	FF2598A54000	jmp     ds:__imp_?UndockPane@CDockablePane@@UAEXH@Z; CDockablePane::UndockPane(int)
?OnUpdateCmdUI@CDockablePane@@UAEXPAVCFrameWnd@@H@Z_0:0x00407f9a-0x00407fa0
0x00407f9a	FF259CA54000	jmp     ds:__imp_?OnUpdateCmdUI@CDockablePane@@UAEXPAVCFrameWnd@@H@Z; CDockablePane::OnUpdateCmdUI(CFrameWnd *,int)
?OnSetAccData@CBasePane@@UAEHJ@Z_0:0x00407fa0-0x00407fa6
0x00407fa0	FF25A0A54000	jmp     ds:__imp_?OnSetAccData@CBasePane@@UAEHJ@Z; CBasePane::OnSetAccData(long)
?CalcFixedLayout@CDockablePane@@UAE?AVCSize@@HH@Z_0:0x00407fa6-0x00407fac
0x00407fa6	FF25A4A54000	jmp     ds:__imp_?CalcFixedLayout@CDockablePane@@UAE?AVCSize@@HH@Z; CDockablePane::CalcFixedLayout(int,int)
?DoPaint@CBasePane@@MAEXPAVCDC@@@Z_0:0x00407fac-0x00407fb2
0x00407fac	FF25A8A54000	jmp     ds:__imp_?DoPaint@CBasePane@@MAEXPAVCDC@@@Z; CBasePane::DoPaint(CDC *)
?DockPaneStandard@CDockablePane@@UAEPAVCPane@@AAH@Z_0:0x00407fb2-0x00407fb8
0x00407fb2	FF25ACA54000	jmp     ds:__imp_?DockPaneStandard@CDockablePane@@UAEPAVCPane@@AAH@Z; CDockablePane::DockPaneStandard(int &)
?IsChangeState@CDockablePane@@UBE?AW4AFX_CS_STATUS@@HPAPAVCBasePane@@@Z_0:0x00407fb8-0x00407fbe
0x00407fb8	FF25B0A54000	jmp     ds:__imp_?IsChangeState@CDockablePane@@UBE?AW4AFX_CS_STATUS@@HPAPAVCBasePane@@@Z; CDockablePane::IsChangeState(int,CBasePane * *)
?OnBeforeFloat@CDockablePane@@UAEHAAVCRect@@W4AFX_DOCK_METHOD@@@Z_0:0x00407fbe-0x00407fc4
0x00407fbe	FF25B4A54000	jmp     ds:__imp_?OnBeforeFloat@CDockablePane@@UAEHAAVCRect@@W4AFX_DOCK_METHOD@@@Z; CDockablePane::OnBeforeFloat(CRect &,AFX_DOCK_METHOD)
?OnAfterFloat@CPane@@UAEXXZ_0:0x00407fc4-0x00407fca
0x00407fc4	FF25B8A54000	jmp     ds:__imp_?OnAfterFloat@CPane@@UAEXXZ; CPane::OnAfterFloat(void)
?ToggleAutoHide@CDockablePane@@UAEXXZ_0:0x00407fca-0x00407fd0
0x00407fca	FF25BCA54000	jmp     ds:__imp_?ToggleAutoHide@CDockablePane@@UAEXXZ; CDockablePane::ToggleAutoHide(void)
?OnPressCloseButton@CDockablePane@@MAEXXZ_0:0x00407fd0-0x00407fd6
0x00407fd0	FF25C0A54000	jmp     ds:__imp_?OnPressCloseButton@CDockablePane@@MAEXXZ; CDockablePane::OnPressCloseButton(void)
?ConvertToTabbedDocument@CDockablePane@@UAEXH@Z_0:0x00407fd6-0x00407fdc
0x00407fd6	FF25C4A54000	jmp     ds:__imp_?ConvertToTabbedDocument@CDockablePane@@UAEXH@Z; CDockablePane::ConvertToTabbedDocument(int)
?OnShowControlBarMenu@CPane@@UAEHVCPoint@@@Z_0:0x00407fdc-0x00407fe2
0x00407fdc	FF25C8A54000	jmp     ds:__imp_?OnShowControlBarMenu@CPane@@UAEHVCPoint@@@Z; CPane::OnShowControlBarMenu(CPoint)
?OnDrawDragRect@CDockablePane@@MAEXPBUtagRECT@@0@Z_0:0x00407fe2-0x00407fe8
0x00407fe2	FF25CCA54000	jmp     ds:__imp_?OnDrawDragRect@CDockablePane@@MAEXPBUtagRECT@@0@Z; CDockablePane::OnDrawDragRect(tagRECT const *,tagRECT const *)
?OnAfterDock@CDockablePane@@MAEXPAVCBasePane@@PBUtagRECT@@W4AFX_DOCK_METHOD@@@Z_0:0x00407fe8-0x00407fee
0x00407fe8	FF25D0A54000	jmp     ds:__imp_?OnAfterDock@CDockablePane@@MAEXPAVCBasePane@@PBUtagRECT@@W4AFX_DOCK_METHOD@@@Z; CDockablePane::OnAfterDock(CBasePane *,tagRECT const *,AFX_DOCK_METHOD)
?Dock@CDockablePane@@MAEHPAVCBasePane@@PBUtagRECT@@W4AFX_DOCK_METHOD@@@Z_0:0x00407fee-0x00407ff4
0x00407fee	FF25D4A54000	jmp     ds:__imp_?Dock@CDockablePane@@MAEHPAVCBasePane@@PBUtagRECT@@W4AFX_DOCK_METHOD@@@Z; CDockablePane::Dock(CBasePane *,tagRECT const *,AFX_DOCK_METHOD)
?EnterDragMode@CDockablePane@@MAEXH@Z_0:0x00407ff4-0x00407ffa
0x00407ff4	FF25D8A54000	jmp     ds:__imp_?EnterDragMode@CDockablePane@@MAEXH@Z; CDockablePane::EnterDragMode(int)
?StoreRecentDockSiteInfo@CDockablePane@@MAEXXZ_0:0x00407ffa-0x00408000
0x00407ffa	FF25DCA54000	jmp     ds:__imp_?StoreRecentDockSiteInfo@CDockablePane@@MAEXXZ; CDockablePane::StoreRecentDockSiteInfo(void)
?Create@CDockablePane@@UAEHPB_WPAVCWnd@@VCSize@@HIKKK@Z_0:0x00408000-0x00408006
0x00408000	FF25E0A54000	jmp     ds:__imp_?Create@CDockablePane@@UAEHPB_WPAVCWnd@@VCSize@@HIKKK@Z; CDockablePane::Create(wchar_t const *,CWnd *,CSize,int,uint,ulong,ulong,ulong)
?Create@CDockablePane@@UAEHPB_WPAVCWnd@@ABUtagRECT@@HIKKKPAUCCreateContext@@@Z_0:0x00408006-0x0040800c
0x00408006	FF25E4A54000	jmp     ds:__imp_?Create@CDockablePane@@UAEHPB_WPAVCWnd@@ABUtagRECT@@HIKKKPAUCCreateContext@@@Z; CDockablePane::Create(wchar_t const *,CWnd *,tagRECT const &,int,uint,ulong,ulong,ulong,CCreateContext *)
?CreateEx@CDockablePane@@UAEHKPB_WPAVCWnd@@ABUtagRECT@@HIKKKPAUCCreateContext@@@Z_0:0x0040800c-0x00408012
0x0040800c	FF25E8A54000	jmp     ds:__imp_?CreateEx@CDockablePane@@UAEHKPB_WPAVCWnd@@ABUtagRECT@@HIKKKPAUCCreateContext@@@Z; CDockablePane::CreateEx(ulong,wchar_t const *,CWnd *,tagRECT const &,int,uint,ulong,ulong,ulong,CCreateContext *)
?HitTest@CDockablePane@@UAEHVCPoint@@H@Z_0:0x00408012-0x00408018
0x00408012	FF25ECA54000	jmp     ds:__imp_?HitTest@CDockablePane@@UAEHVCPoint@@H@Z; CDockablePane::HitTest(CPoint,int)
?CanAcceptMiniFrame@CDockablePane@@UBEHPAVCPaneFrameWnd@@@Z_0:0x00408018-0x0040801e
0x00408018	FF25F0A54000	jmp     ds:__imp_?CanAcceptMiniFrame@CDockablePane@@UBEHPAVCPaneFrameWnd@@@Z; CDockablePane::CanAcceptMiniFrame(CPaneFrameWnd *)
?Slide@CDockablePane@@UAEXHH@Z_0:0x0040801e-0x00408024
0x0040801e	FF25F4A54000	jmp     ds:__imp_?Slide@CDockablePane@@UAEXHH@Z; CDockablePane::Slide(int,int)
?GetDockingStatus@CDockablePane@@UAE?AW4AFX_CS_STATUS@@VCPoint@@H@Z_0:0x00408024-0x0040802a
0x00408024	FF25F8A54000	jmp     ds:__imp_?GetDockingStatus@CDockablePane@@UAE?AW4AFX_CS_STATUS@@VCPoint@@H@Z; CDockablePane::GetDockingStatus(CPoint,int)
?AttachToTabWnd@CDockablePane@@UAEPAV1@PAV1@W4AFX_DOCK_METHOD@@HPAPAV1@@Z_0:0x0040802a-0x00408030
0x0040802a	FF25FCA54000	jmp     ds:__imp_?AttachToTabWnd@CDockablePane@@UAEPAV1@PAV1@W4AFX_DOCK_METHOD@@HPAPAV1@@Z; CDockablePane::AttachToTabWnd(CDockablePane *,AFX_DOCK_METHOD,int,CDockablePane * *)
?CreateTabbedPane@CDockablePane@@UAEPAVCTabbedPane@@XZ_0:0x00408030-0x00408036
0x00408030	FF2500A64000	jmp     ds:__imp_?CreateTabbedPane@CDockablePane@@UAEPAVCTabbedPane@@XZ; CDockablePane::CreateTabbedPane(void)
?DockToWindow@CDockablePane@@UAEHPAV1@KPBUtagRECT@@@Z_0:0x00408036-0x0040803c
0x00408036	FF2504A64000	jmp     ds:__imp_?DockToWindow@CDockablePane@@UAEHPAV1@KPBUtagRECT@@@Z; CDockablePane::DockToWindow(CDockablePane *,ulong,tagRECT const *)
?DockPaneContainer@CDockablePane@@UAEHAAVCPaneContainerManager@@KW4AFX_DOCK_METHOD@@@Z_0:0x0040803c-0x00408042
0x0040803c	FF2508A64000	jmp     ds:__imp_?DockPaneContainer@CDockablePane@@UAEHAAVCPaneContainerManager@@KW4AFX_DOCK_METHOD@@@Z; CDockablePane::DockPaneContainer(CPaneContainerManager &,ulong,AFX_DOCK_METHOD)
?UnSetAutoHideMode@CDockablePane@@UAEXPAV1@@Z_0:0x00408042-0x00408048
0x00408042	FF250CA64000	jmp     ds:__imp_?UnSetAutoHideMode@CDockablePane@@UAEXPAV1@@Z; CDockablePane::UnSetAutoHideMode(CDockablePane *)
?SetAutoHideMode@CDockablePane@@UAEPAVCMFCAutoHideBar@@HKPAV2@H@Z_0:0x00408048-0x0040804e
0x00408048	FF2510A64000	jmp     ds:__imp_?SetAutoHideMode@CDockablePane@@UAEPAVCMFCAutoHideBar@@HKPAV2@H@Z; CDockablePane::SetAutoHideMode(int,ulong,CMFCAutoHideBar *,int)
?CopyState@CDockablePane@@UAEXPAV1@@Z_0:0x0040804e-0x00408054
0x0040804e	FF2518A64000	jmp     ds:__imp_?CopyState@CDockablePane@@UAEXPAV1@@Z; CDockablePane::CopyState(CDockablePane *)
?StoreRecentTabRelatedInfo@CDockablePane@@MAEXXZ_0:0x00408054-0x0040805a
0x00408054	FF251CA64000	jmp     ds:__imp_?StoreRecentTabRelatedInfo@CDockablePane@@MAEXXZ; CDockablePane::StoreRecentTabRelatedInfo(void)
?DrawCaption@CDockablePane@@MAEXPAVCDC@@VCRect@@@Z_0:0x0040805a-0x00408060
0x0040805a	FF2520A64000	jmp     ds:__imp_?DrawCaption@CDockablePane@@MAEXPAVCDC@@VCRect@@@Z; CDockablePane::DrawCaption(CDC *,CRect)
?AdjustPaneToPaneContainer@CDockablePane@@MAEXPAVCPaneDivider@@@Z_0:0x00408060-0x00408066
0x00408060	FF2524A64000	jmp     ds:__imp_?AdjustPaneToPaneContainer@CDockablePane@@MAEXPAVCPaneDivider@@@Z; CDockablePane::AdjustPaneToPaneContainer(CPaneDivider *)
?OnTrackCaptionButtons@CDockablePane@@MAEXVCPoint@@@Z_0:0x00408066-0x0040806c
0x00408066	FF2528A64000	jmp     ds:__imp_?OnTrackCaptionButtons@CDockablePane@@MAEXVCPoint@@@Z; CDockablePane::OnTrackCaptionButtons(CPoint)
?StopCaptionButtonsTracking@CDockablePane@@MAEXXZ_0:0x0040806c-0x00408072
0x0040806c	FF252CA64000	jmp     ds:__imp_?StopCaptionButtonsTracking@CDockablePane@@MAEXXZ; CDockablePane::StopCaptionButtonsTracking(void)
?SetCaptionButtons@CDockablePane@@MAEXXZ_0:0x00408072-0x00408078
0x00408072	FF2530A64000	jmp     ds:__imp_?SetCaptionButtons@CDockablePane@@MAEXXZ; CDockablePane::SetCaptionButtons(void)
?CheckAutoHideCondition@CDockablePane@@MAEHXZ_0:0x00408078-0x0040807e
0x00408078	FF2534A64000	jmp     ds:__imp_?CheckAutoHideCondition@CDockablePane@@MAEHXZ; CDockablePane::CheckAutoHideCondition(void)
?CheckStopSlideCondition@CDockablePane@@MAEHH@Z_0:0x0040807e-0x00408084
0x0040807e	FF2538A64000	jmp     ds:__imp_?CheckStopSlideCondition@CDockablePane@@MAEHH@Z; CDockablePane::CheckStopSlideCondition(int)
?OnSlide@CDockablePane@@MAEXH@Z_0:0x00408084-0x0040808a
0x00408084	FF253CA64000	jmp     ds:__imp_?OnSlide@CDockablePane@@MAEXH@Z; CDockablePane::OnSlide(int)
?Serialize@CMFCToolBarMenuButton@@UAEXAAVCArchive@@@Z_0:0x0040808a-0x00408090
0x0040808a	FF2540A64000	jmp     ds:__imp_?Serialize@CMFCToolBarMenuButton@@UAEXAAVCArchive@@@Z; CMFCToolBarMenuButton::Serialize(CArchive &)
?PrepareDrag@CMFCToolBarButton@@UAEHAAVCOleDataSource@@@Z_0:0x00408090-0x00408096
0x00408090	FF2544A64000	jmp     ds:__imp_?PrepareDrag@CMFCToolBarButton@@UAEHAAVCOleDataSource@@@Z; CMFCToolBarButton::PrepareDrag(COleDataSource &)
?CopyFrom@CMFCToolBarMenuButton@@UAEXABVCMFCToolBarButton@@@Z_0:0x00408096-0x0040809c
0x00408096	FF2548A64000	jmp     ds:__imp_?CopyFrom@CMFCToolBarMenuButton@@UAEXABVCMFCToolBarButton@@@Z; CMFCToolBarMenuButton::CopyFrom(CMFCToolBarButton const &)
?OnCalculateSize@CMFCToolBarMenuButton@@UAE?AUtagSIZE@@PAVCDC@@ABVCSize@@H@Z_0:0x0040809c-0x004080a2
0x0040809c	FF254CA64000	jmp     ds:__imp_?OnCalculateSize@CMFCToolBarMenuButton@@UAE?AUtagSIZE@@PAVCDC@@ABVCSize@@H@Z; CMFCToolBarMenuButton::OnCalculateSize(CDC *,CSize const &,int)
?OnClick@CMFCToolBarMenuButton@@UAEHPAVCWnd@@H@Z_0:0x004080a2-0x004080a8
0x004080a2	FF2550A64000	jmp     ds:__imp_?OnClick@CMFCToolBarMenuButton@@UAEHPAVCWnd@@H@Z; CMFCToolBarMenuButton::OnClick(CWnd *,int)
?OnChangeParentWnd@CMFCToolBarMenuButton@@UAEXPAVCWnd@@@Z_0:0x004080a8-0x004080ae
0x004080a8	FF2554A64000	jmp     ds:__imp_?OnChangeParentWnd@CMFCToolBarMenuButton@@UAEXPAVCWnd@@@Z; CMFCToolBarMenuButton::OnChangeParentWnd(CWnd *)
?ExportToMenuButton@CMFCToolBarButton@@UBEHAAVCMFCToolBarMenuButton@@@Z_0:0x004080ae-0x004080b4
0x004080ae	FF2558A64000	jmp     ds:__imp_?ExportToMenuButton@CMFCToolBarButton@@UBEHAAVCMFCToolBarMenuButton@@@Z; CMFCToolBarButton::ExportToMenuButton(CMFCToolBarMenuButton &)
?OnCancelMode@CMFCToolBarMenuButton@@UAEXXZ_0:0x004080b4-0x004080ba
0x004080b4	FF255CA64000	jmp     ds:__imp_?OnCancelMode@CMFCToolBarMenuButton@@UAEXXZ; CMFCToolBarMenuButton::OnCancelMode(void)
?OnDrawOnCustomizeList@CMFCToolBarMenuButton@@UAEHPAVCDC@@ABVCRect@@H@Z_0:0x004080ba-0x004080c0
0x004080ba	FF2568A64000	jmp     ds:__imp_?OnDrawOnCustomizeList@CMFCToolBarMenuButton@@UAEHPAVCDC@@ABVCRect@@H@Z; CMFCToolBarMenuButton::OnDrawOnCustomizeList(CDC *,CRect const &,int)
?OnBeforeDrag@CMFCToolBarMenuButton@@UBEHXZ_0:0x004080c0-0x004080c6
0x004080c0	FF256CA64000	jmp     ds:__imp_?OnBeforeDrag@CMFCToolBarMenuButton@@UBEHXZ; CMFCToolBarMenuButton::OnBeforeDrag(void)
?OnToolHitTest@CMFCToolBarButton@@UAEHPBVCWnd@@PAUtagTOOLINFOW@@@Z_0:0x004080c6-0x004080cc
0x004080c6	FF2570A64000	jmp     ds:__imp_?OnToolHitTest@CMFCToolBarButton@@UAEHPBVCWnd@@PAUtagTOOLINFOW@@@Z; CMFCToolBarButton::OnToolHitTest(CWnd const *,tagTOOLINFOW *)
?SaveBarState@CMFCToolBarMenuButton@@UAEXXZ_0:0x004080cc-0x004080d2
0x004080cc	FF2574A64000	jmp     ds:__imp_?SaveBarState@CMFCToolBarMenuButton@@UAEXXZ; CMFCToolBarMenuButton::SaveBarState(void)
?ResetImageToDefault@CMFCToolBarMenuButton@@UAEXXZ_0:0x004080d2-0x004080d8
0x004080d2	FF2578A64000	jmp     ds:__imp_?ResetImageToDefault@CMFCToolBarMenuButton@@UAEXXZ; CMFCToolBarMenuButton::ResetImageToDefault(void)
?CompareWith@CMFCToolBarMenuButton@@UBEHABVCMFCToolBarButton@@@Z_0:0x004080d8-0x004080de
0x004080d8	FF257CA64000	jmp     ds:__imp_?CompareWith@CMFCToolBarMenuButton@@UBEHABVCMFCToolBarButton@@@Z; CMFCToolBarMenuButton::CompareWith(CMFCToolBarButton const &)
?IsFirstInGroup@CMFCToolBarButton@@UBEHXZ_0:0x004080de-0x004080e4
0x004080de	FF2580A64000	jmp     ds:__imp_?IsFirstInGroup@CMFCToolBarButton@@UBEHXZ; CMFCToolBarButton::IsFirstInGroup(void)
?IsLastInGroup@CMFCToolBarButton@@UBEHXZ_0:0x004080e4-0x004080ea
0x004080e4	FF2584A64000	jmp     ds:__imp_?IsLastInGroup@CMFCToolBarButton@@UBEHXZ; CMFCToolBarButton::IsLastInGroup(void)
?SetACCData@CMFCToolBarMenuButton@@UAEHPAVCWnd@@AAVCAccessibilityData@@@Z_0:0x004080ea-0x004080f0
0x004080ea	FF2588A64000	jmp     ds:__imp_?SetACCData@CMFCToolBarMenuButton@@UAEHPAVCWnd@@AAVCAccessibilityData@@@Z; CMFCToolBarMenuButton::SetACCData(CWnd *,CAccessibilityData &)
?SetRadio@CMFCToolBarMenuButton@@UAEXXZ_0:0x004080f0-0x004080f6
0x004080f0	FF258CA64000	jmp     ds:__imp_?SetRadio@CMFCToolBarMenuButton@@UAEXXZ; CMFCToolBarMenuButton::SetRadio(void)
?OpenPopupMenu@CMFCToolBarMenuButton@@UAEHPAVCWnd@@@Z_0:0x004080f6-0x004080fc
0x004080f6	FF2590A64000	jmp     ds:__imp_?OpenPopupMenu@CMFCToolBarMenuButton@@UAEHPAVCWnd@@@Z; CMFCToolBarMenuButton::OpenPopupMenu(CWnd *)
?CreateFromMenu@CMFCToolBarMenuButton@@UAEXPAUHMENU__@@@Z_0:0x004080fc-0x00408102
0x004080fc	FF2594A64000	jmp     ds:__imp_?CreateFromMenu@CMFCToolBarMenuButton@@UAEXPAUHMENU__@@@Z; CMFCToolBarMenuButton::CreateFromMenu(HMENU__ *)
?CreateMenu@CMFCToolBarMenuButton@@UBEPAUHMENU__@@XZ_0:0x00408102-0x00408108
0x00408102	FF2598A64000	jmp     ds:__imp_?CreateMenu@CMFCToolBarMenuButton@@UBEPAUHMENU__@@XZ; CMFCToolBarMenuButton::CreateMenu(void)
?SetTearOff@CMFCToolBarMenuButton@@UAEXI@Z_0:0x00408108-0x0040810e
0x00408108	FF259CA64000	jmp     ds:__imp_?SetTearOff@CMFCToolBarMenuButton@@UAEXI@Z; CMFCToolBarMenuButton::SetTearOff(uint)
?GetThisMessageMap@CMDIFrameWndEx@@KGPBUAFX_MSGMAP@@XZ_0:0x0040810e-0x00408114
0x0040810e	FF25ACA64000	jmp     ds:__imp_?GetThisMessageMap@CMDIFrameWndEx@@KGPBUAFX_MSGMAP@@XZ; CMDIFrameWndEx::GetThisMessageMap(void)
?GetRuntimeClass@CObject@@UBEPAUCRuntimeClass@@XZ_0:0x00408114-0x0040811a
0x00408114	FF2544A74000	jmp     ds:__imp_?GetRuntimeClass@CObject@@UBEPAUCRuntimeClass@@XZ; CObject::GetRuntimeClass(void)
?OnCmdMsg@CMDIFrameWndEx@@UAEHIHPAXPAUAFX_CMDHANDLERINFO@@@Z_0:0x0040811a-0x00408120
0x0040811a	FF25ACA74000	jmp     ds:__imp_?OnCmdMsg@CMDIFrameWndEx@@UAEHIHPAXPAUAFX_CMDHANDLERINFO@@@Z; CMDIFrameWndEx::OnCmdMsg(uint,int,void *,AFX_CMDHANDLERINFO *)
?WinHelpW@CMDIFrameWndEx@@UAEXKI@Z_0:0x00408120-0x00408126
0x00408120	FF25B0A74000	jmp     ds:__imp_?WinHelpW@CMDIFrameWndEx@@UAEXKI@Z; CMDIFrameWndEx::WinHelpW(ulong,uint)
?HtmlHelpW@CMDIFrameWndEx@@MAEXKI@Z_0:0x00408126-0x0040812c
0x00408126	FF25B4A74000	jmp     ds:__imp_?HtmlHelpW@CMDIFrameWndEx@@MAEXKI@Z; CMDIFrameWndEx::HtmlHelpW(ulong,uint)
?OnCommand@CMDIFrameWndEx@@MAEHIJ@Z_0:0x0040812c-0x00408132
0x0040812c	FF25B8A74000	jmp     ds:__imp_?OnCommand@CMDIFrameWndEx@@MAEHIJ@Z; CMDIFrameWndEx::OnCommand(uint,long)
?PreTranslateMessage@CMDIFrameWndEx@@UAEHPAUtagMSG@@@Z_0:0x00408132-0x00408138
0x00408132	FF25BCA74000	jmp     ds:__imp_?PreTranslateMessage@CMDIFrameWndEx@@UAEHPAUtagMSG@@@Z; CMDIFrameWndEx::PreTranslateMessage(tagMSG *)
?DefWindowProcW@CMDIFrameWnd@@MAEJIIJ@Z_0:0x00408138-0x0040813e
0x00408138	FF25C0A74000	jmp     ds:__imp_?DefWindowProcW@CMDIFrameWnd@@MAEJIIJ@Z; CMDIFrameWnd::DefWindowProcW(uint,uint,long)
?GetActiveFrame@CMDIFrameWnd@@UAEPAVCFrameWnd@@XZ_0:0x0040813e-0x00408144
0x0040813e	FF25C4A74000	jmp     ds:__imp_?GetActiveFrame@CMDIFrameWnd@@UAEPAVCFrameWnd@@XZ; CMDIFrameWnd::GetActiveFrame(void)
?RecalcLayout@CMDIFrameWndEx@@UAEXH@Z_0:0x00408144-0x0040814a
0x00408144	FF25C8A74000	jmp     ds:__imp_?RecalcLayout@CMDIFrameWndEx@@UAEXH@Z; CMDIFrameWndEx::RecalcLayout(int)
?ActivateFrame@CFrameWnd@@UAEXH@Z_0:0x0040814a-0x00408150
0x0040814a	FF25CCA74000	jmp     ds:__imp_?ActivateFrame@CFrameWnd@@UAEXH@Z; CFrameWnd::ActivateFrame(int)
?SetMenuBarVisibility@CMDIFrameWnd@@UAEXK@Z_0:0x00408150-0x00408156
0x00408150	FF25D0A74000	jmp     ds:__imp_?SetMenuBarVisibility@CMDIFrameWnd@@UAEXK@Z; CMDIFrameWnd::SetMenuBarVisibility(ulong)
?SetMenuBarState@CMDIFrameWnd@@UAEHK@Z_0:0x00408156-0x0040815c
0x00408156	FF25D4A74000	jmp     ds:__imp_?SetMenuBarState@CMDIFrameWnd@@UAEHK@Z; CMDIFrameWnd::SetMenuBarState(ulong)
?OnSetPreviewMode@CMDIFrameWndEx@@UAEXHPAUCPrintPreviewState@@@Z_0:0x0040815c-0x00408162
0x0040815c	FF25D8A74000	jmp     ds:__imp_?OnSetPreviewMode@CMDIFrameWndEx@@UAEXHPAUCPrintPreviewState@@@Z; CMDIFrameWndEx::OnSetPreviewMode(int,CPrintPreviewState *)
?GetMessageBar@CFrameWnd@@UAEPAVCWnd@@XZ_0:0x00408162-0x00408168
0x00408162	FF25DCA74000	jmp     ds:__imp_?GetMessageBar@CFrameWnd@@UAEPAVCWnd@@XZ; CFrameWnd::GetMessageBar(void)
?NegotiateBorderSpace@CMDIFrameWndEx@@UAEHIPAUtagRECT@@@Z_0:0x00408168-0x0040816e
0x00408168	FF25E0A74000	jmp     ds:__imp_?NegotiateBorderSpace@CMDIFrameWndEx@@UAEHIPAUtagRECT@@@Z; CMDIFrameWndEx::NegotiateBorderSpace(uint,tagRECT *)
?OnCreateClient@CMDIFrameWndEx@@MAEHPAUtagCREATESTRUCTW@@PAUCCreateContext@@@Z_0:0x0040816e-0x00408174
0x0040816e	FF25E4A74000	jmp     ds:__imp_?OnCreateClient@CMDIFrameWndEx@@MAEHPAUtagCREATESTRUCTW@@PAUCCreateContext@@@Z; CMDIFrameWndEx::OnCreateClient(tagCREATESTRUCTW *,CCreateContext *)
?OnUpdateFrameTitle@CMDIFrameWnd@@UAEXH@Z_0:0x00408174-0x0040817a
0x00408174	FF25E8A74000	jmp     ds:__imp_?OnUpdateFrameTitle@CMDIFrameWnd@@UAEXH@Z; CMDIFrameWnd::OnUpdateFrameTitle(int)
?OnUpdateFrameMenu@CMDIFrameWndEx@@UAEXPAUHMENU__@@@Z_0:0x0040817a-0x00408180
0x0040817a	FF25ECA74000	jmp     ds:__imp_?OnUpdateFrameMenu@CMDIFrameWndEx@@UAEXPAUHMENU__@@@Z; CMDIFrameWndEx::OnUpdateFrameMenu(HMENU__ *)
?DelayUpdateFrameMenu@CMDIFrameWnd@@UAEXPAUHMENU__@@@Z_0:0x00408180-0x00408186
0x00408180	FF25F0A74000	jmp     ds:__imp_?DelayUpdateFrameMenu@CMDIFrameWnd@@UAEXPAUHMENU__@@@Z; CMDIFrameWnd::DelayUpdateFrameMenu(HMENU__ *)
?CreateClient@CMDIFrameWnd@@UAEHPAUtagCREATESTRUCTW@@PAVCMenu@@@Z_0:0x00408186-0x0040818c
0x00408186	FF25F4A74000	jmp     ds:__imp_?CreateClient@CMDIFrameWnd@@UAEHPAUtagCREATESTRUCTW@@PAVCMenu@@@Z; CMDIFrameWnd::CreateClient(tagCREATESTRUCTW *,CMenu *)
?GetWindowMenuPopup@CMDIFrameWndEx@@MAEPAUHMENU__@@PAU2@@Z_0:0x0040818c-0x00408192
0x0040818c	FF25F8A74000	jmp     ds:__imp_?GetWindowMenuPopup@CMDIFrameWndEx@@MAEPAUHMENU__@@PAU2@@Z; CMDIFrameWndEx::GetWindowMenuPopup(HMENU__ *)
?AdjustDockingLayout@CMDIFrameWndEx@@UAEXPAX@Z_0:0x00408192-0x00408198
0x00408192	FF25FCA74000	jmp     ds:__imp_?AdjustDockingLayout@CMDIFrameWndEx@@UAEXPAX@Z; CMDIFrameWndEx::AdjustDockingLayout(void *)
?OnMoveMiniFrame@CMDIFrameWndEx@@UAEHPAVCWnd@@@Z_0:0x00408198-0x0040819e
0x00408198	FF2500A84000	jmp     ds:__imp_?OnMoveMiniFrame@CMDIFrameWndEx@@UAEHPAVCWnd@@@Z; CMDIFrameWndEx::OnMoveMiniFrame(CWnd *)
?OnShowMDITabContextMenu@CMDIFrameWndEx@@UAEHVCPoint@@KH@Z_0:0x0040819e-0x004081a4
0x0040819e	FF2504A84000	jmp     ds:__imp_?OnShowMDITabContextMenu@CMDIFrameWndEx@@UAEHVCPoint@@KH@Z; CMDIFrameWndEx::OnShowMDITabContextMenu(CPoint,ulong,int)
?ControlBarToTabbedDocument@CMDIFrameWndEx@@UAEPAVCMDIChildWndEx@@PAVCDockablePane@@@Z_0:0x004081a4-0x004081aa
0x004081a4	FF2508A84000	jmp     ds:__imp_?ControlBarToTabbedDocument@CMDIFrameWndEx@@UAEPAVCMDIChildWndEx@@PAVCDockablePane@@@Z; CMDIFrameWndEx::ControlBarToTabbedDocument(CDockablePane *)
?TabbedDocumentToControlBar@CMDIFrameWndEx@@UAEHPAVCMDIChildWndEx@@@Z_0:0x004081aa-0x004081b0
0x004081aa	FF250CA84000	jmp     ds:__imp_?TabbedDocumentToControlBar@CMDIFrameWndEx@@UAEHPAVCMDIChildWndEx@@@Z; CMDIFrameWndEx::TabbedDocumentToControlBar(CMDIChildWndEx *)
?OnSetMenu@CMDIFrameWndEx@@MAEHPAUHMENU__@@@Z_0:0x004081b0-0x004081b6
0x004081b0	FF2510A84000	jmp     ds:__imp_?OnSetMenu@CMDIFrameWndEx@@MAEHPAUHMENU__@@@Z; CMDIFrameWndEx::OnSetMenu(HMENU__ *)
?OnShowPopupMenu@CMDIFrameWndEx@@UAEHPAVCMFCPopupMenu@@@Z_0:0x004081b6-0x004081bc
0x004081b6	FF2514A84000	jmp     ds:__imp_?OnShowPopupMenu@CMDIFrameWndEx@@UAEHPAVCMFCPopupMenu@@@Z; CMDIFrameWndEx::OnShowPopupMenu(CMFCPopupMenu *)
?OnClosePopupMenu@CMDIFrameWndEx@@UAEXPAVCMFCPopupMenu@@@Z_0:0x004081bc-0x004081c2
0x004081bc	FF251CA84000	jmp     ds:__imp_?OnClosePopupMenu@CMDIFrameWndEx@@UAEXPAVCMFCPopupMenu@@@Z; CMDIFrameWndEx::OnClosePopupMenu(CMFCPopupMenu *)
?OnDrawMenuImage@CMDIFrameWndEx@@UAEHPAVCDC@@PBVCMFCToolBarMenuButton@@ABVCRect@@@Z_0:0x004081c2-0x004081c8
0x004081c2	FF2520A84000	jmp     ds:__imp_?OnDrawMenuImage@CMDIFrameWndEx@@UAEHPAVCDC@@PBVCMFCToolBarMenuButton@@ABVCRect@@@Z; CMDIFrameWndEx::OnDrawMenuImage(CDC *,CMFCToolBarMenuButton const *,CRect const &)
?OnShowPanes@CMDIFrameWndEx@@UAEHH@Z_0:0x004081c8-0x004081ce
0x004081c8	FF2524A84000	jmp     ds:__imp_?OnShowPanes@CMDIFrameWndEx@@UAEHH@Z; CMDIFrameWndEx::OnShowPanes(int)
?AdjustClientArea@CMDIFrameWndEx@@UAEXXZ_0:0x004081ce-0x004081d4
0x004081ce	FF2528A84000	jmp     ds:__imp_?AdjustClientArea@CMDIFrameWndEx@@UAEXXZ; CMDIFrameWndEx::AdjustClientArea(void)
?LoadMDIState@CMDIFrameWndEx@@UAEHPB_W@Z_0:0x004081d4-0x004081da
0x004081d4	FF252CA84000	jmp     ds:__imp_?LoadMDIState@CMDIFrameWndEx@@UAEHPB_W@Z; CMDIFrameWndEx::LoadMDIState(wchar_t const *)
?SaveMDIState@CMDIFrameWndEx@@UAEHPB_W@Z_0:0x004081da-0x004081e0
0x004081da	FF2530A84000	jmp     ds:__imp_?SaveMDIState@CMDIFrameWndEx@@UAEHPB_W@Z; CMDIFrameWndEx::SaveMDIState(wchar_t const *)
?CreateDocumentWindow@CMDIFrameWndEx@@UAEPAVCMDIChildWndEx@@PB_WPAVCObject@@@Z_0:0x004081e0-0x004081e6
0x004081e0	FF2534A84000	jmp     ds:__imp_?CreateDocumentWindow@CMDIFrameWndEx@@UAEPAVCMDIChildWndEx@@PB_WPAVCObject@@@Z; CMDIFrameWndEx::CreateDocumentWindow(wchar_t const *,CObject *)
?CreateNewWindow@CMDIFrameWndEx@@UAEPAVCMDIChildWndEx@@PB_WPAVCObject@@@Z_0:0x004081e6-0x004081ec
0x004081e6	FF2538A84000	jmp     ds:__imp_?CreateNewWindow@CMDIFrameWndEx@@UAEPAVCMDIChildWndEx@@PB_WPAVCObject@@@Z; CMDIFrameWndEx::CreateNewWindow(wchar_t const *,CObject *)
?GetInPlaceActiveItem@CMDIFrameWndEx@@MAEPAVCOleClientItem@@XZ_0:0x004081ec-0x004081f2
0x004081ec	FF253CA84000	jmp     ds:__imp_?GetInPlaceActiveItem@CMDIFrameWndEx@@MAEPAVCOleClientItem@@XZ; CMDIFrameWndEx::GetInPlaceActiveItem(void)
?OnFileNew@CWinApp@@IAEXXZ_0:0x004081f2-0x004081f8
0x004081f2	FF2540A84000	jmp     ds:__imp_?OnFileNew@CWinApp@@IAEXXZ; CWinApp::OnFileNew(void)
?OnFilePrintSetup@CWinApp@@IAEXXZ_0:0x004081f8-0x004081fe
0x004081f8	FF2544A84000	jmp     ds:__imp_?OnFilePrintSetup@CWinApp@@IAEXXZ; CWinApp::OnFilePrintSetup(void)
?GetThisMessageMap@CWinApp@@KGPBUAFX_MSGMAP@@XZ_0:0x004081fe-0x00408204
0x004081fe	FF2548A84000	jmp     ds:__imp_?GetThisMessageMap@CWinApp@@KGPBUAFX_MSGMAP@@XZ; CWinApp::GetThisMessageMap(void)
?GetRuntimeClass@CBrush@@UBEPAUCRuntimeClass@@XZ_0:0x00408204-0x0040820a
0x00408204	FF25F0A84000	jmp     ds:__imp_?GetRuntimeClass@CBrush@@UBEPAUCRuntimeClass@@XZ; CBrush::GetRuntimeClass(void)
?GetThisMessageMap@CDialogEx@@KGPBUAFX_MSGMAP@@XZ_0:0x0040820a-0x00408210
0x0040820a	FF25F8A84000	jmp     ds:__imp_?GetThisMessageMap@CDialogEx@@KGPBUAFX_MSGMAP@@XZ; CDialogEx::GetThisMessageMap(void)
?DoModal@CDialog@@UAEHXZ_0:0x00408210-0x00408216
0x00408210	FF25FCA84000	jmp     ds:__imp_?DoModal@CDialog@@UAEHXZ; CDialog::DoModal(void)
?GetRuntimeClass@CWinAppEx@@UBEPAUCRuntimeClass@@XZ_0:0x00408216-0x0040821c
0x00408216	FF2504A94000	jmp     ds:__imp_?GetRuntimeClass@CWinAppEx@@UBEPAUCRuntimeClass@@XZ; CWinAppEx::GetRuntimeClass(void)
?OnFinalRelease@CCmdTarget@@UAEXXZ_0:0x0040821c-0x00408222
0x0040821c	FF2508A94000	jmp     ds:__imp_?OnFinalRelease@CCmdTarget@@UAEXXZ; CCmdTarget::OnFinalRelease(void)
?GetInterfaceMap@CCmdTarget@@MBEPBUAFX_INTERFACEMAP@@XZ_0:0x00408222-0x00408228
0x00408222	FF250CA94000	jmp     ds:__imp_?GetInterfaceMap@CCmdTarget@@MBEPBUAFX_INTERFACEMAP@@XZ; CCmdTarget::GetInterfaceMap(void)
?Run@CWinApp@@UAEHXZ_0:0x00408228-0x0040822e
0x00408228	FF2510A94000	jmp     ds:__imp_?Run@CWinApp@@UAEHXZ; CWinApp::Run(void)
?PreTranslateMessage@CWinThread@@UAEHPAUtagMSG@@@Z_0:0x0040822e-0x00408234
0x0040822e	FF2514A94000	jmp     ds:__imp_?PreTranslateMessage@CWinThread@@UAEHPAUtagMSG@@@Z; CWinThread::PreTranslateMessage(tagMSG *)
?PumpMessage@CWinThread@@UAEHXZ_0:0x00408234-0x0040823a
0x00408234	FF2518A94000	jmp     ds:__imp_?PumpMessage@CWinThread@@UAEHXZ; CWinThread::PumpMessage(void)
?OnIdle@CWinApp@@UAEHJ@Z_0:0x0040823a-0x00408240
0x0040823a	FF251CA94000	jmp     ds:__imp_?OnIdle@CWinApp@@UAEHJ@Z; CWinApp::OnIdle(long)
?IsIdleMessage@CWinThread@@UAEHPAUtagMSG@@@Z_0:0x00408240-0x00408246
0x00408240	FF2520A94000	jmp     ds:__imp_?IsIdleMessage@CWinThread@@UAEHPAUtagMSG@@@Z; CWinThread::IsIdleMessage(tagMSG *)
?ProcessWndProcException@CWinApp@@UAEJPAVCException@@PBUtagMSG@@@Z_0:0x00408246-0x0040824c
0x00408246	FF2524A94000	jmp     ds:__imp_?ProcessWndProcException@CWinApp@@UAEJPAVCException@@PBUtagMSG@@@Z; CWinApp::ProcessWndProcException(CException *,tagMSG const *)
?ProcessMessageFilter@CWinThread@@UAEHHPAUtagMSG@@@Z_0:0x0040824c-0x00408252
0x0040824c	FF2528A94000	jmp     ds:__imp_?ProcessMessageFilter@CWinThread@@UAEHHPAUtagMSG@@@Z; CWinThread::ProcessMessageFilter(int,tagMSG *)
?GetMainWnd@CWinThread@@UAEPAVCWnd@@XZ_0:0x00408252-0x00408258
0x00408252	FF252CA94000	jmp     ds:__imp_?GetMainWnd@CWinThread@@UAEPAVCWnd@@XZ; CWinThread::GetMainWnd(void)
?Delete@CWinThread@@UAEXXZ_0:0x00408258-0x0040825e
0x00408258	FF2530A94000	jmp     ds:__imp_?Delete@CWinThread@@UAEXXZ; CWinThread::Delete(void)
?GetProfileIntW@CWinApp@@UAEIPB_W0H@Z_0:0x0040825e-0x00408264
0x0040825e	FF2534A94000	jmp     ds:__imp_?GetProfileIntW@CWinApp@@UAEIPB_W0H@Z; CWinApp::GetProfileIntW(wchar_t const *,wchar_t const *,int)
?WriteProfileInt@CWinApp@@UAEHPB_W0H@Z_0:0x00408264-0x0040826a
0x00408264	FF2538A94000	jmp     ds:__imp_?WriteProfileInt@CWinApp@@UAEHPB_W0H@Z; CWinApp::WriteProfileInt(wchar_t const *,wchar_t const *,int)
?GetProfileStringW@CWinApp@@UAE?AV?$CStringT@_WV?$StrTraitMFC_DLL@_WV?$ChTraitsCRT@_W@ATL@@@@@ATL@@PB_W00@Z_0:0x0040826a-0x00408270
0x0040826a	FF253CA94000	jmp     ds:__imp_?GetProfileStringW@CWinApp@@UAE?AV?$CStringT@_WV?$StrTraitMFC_DLL@_WV?$ChTraitsCRT@_W@ATL@@@@@ATL@@PB_W00@Z; CWinApp::GetProfileStringW(wchar_t const *,wchar_t const *,wchar_t const *)
?WriteProfileStringW@CWinApp@@UAEHPB_W00@Z_0:0x00408270-0x00408276
0x00408270	FF2540A94000	jmp     ds:__imp_?WriteProfileStringW@CWinApp@@UAEHPB_W00@Z; CWinApp::WriteProfileStringW(wchar_t const *,wchar_t const *,wchar_t const *)
?GetProfileBinary@CWinApp@@UAEHPB_W0PAPAEPAI@Z_0:0x00408276-0x0040827c
0x00408276	FF2544A94000	jmp     ds:__imp_?GetProfileBinary@CWinApp@@UAEHPB_W0PAPAEPAI@Z; CWinApp::GetProfileBinary(wchar_t const *,wchar_t const *,uchar * *,uint *)
?WriteProfileBinary@CWinApp@@UAEHPB_W0PAEI@Z_0:0x0040827c-0x00408282
0x0040827c	FF2548A94000	jmp     ds:__imp_?WriteProfileBinary@CWinApp@@UAEHPB_W0PAEI@Z; CWinApp::WriteProfileBinary(wchar_t const *,wchar_t const *,uchar *,uint)
?InitLibId@CWinApp@@UAEXXZ_0:0x00408282-0x00408288
0x00408282	FF254CA94000	jmp     ds:__imp_?InitLibId@CWinApp@@UAEXXZ; CWinApp::InitLibId(void)
?Register@CWinApp@@UAEHXZ_0:0x00408288-0x0040828e
0x00408288	FF2550A94000	jmp     ds:__imp_?Register@CWinApp@@UAEHXZ; CWinApp::Register(void)
?Unregister@CWinApp@@UAEHXZ_0:0x0040828e-0x00408294
0x0040828e	FF2554A94000	jmp     ds:__imp_?Unregister@CWinApp@@UAEHXZ; CWinApp::Unregister(void)
?OpenDocumentFile@CWinApp@@UAEPAVCDocument@@PB_WH@Z_0:0x00408294-0x0040829a
0x00408294	FF2558A94000	jmp     ds:__imp_?OpenDocumentFile@CWinApp@@UAEPAVCDocument@@PB_WH@Z; CWinApp::OpenDocumentFile(wchar_t const *,int)
?OpenDocumentFile@CWinApp@@UAEPAVCDocument@@PB_W@Z_0:0x0040829a-0x004082a0
0x0040829a	FF255CA94000	jmp     ds:__imp_?OpenDocumentFile@CWinApp@@UAEPAVCDocument@@PB_W@Z; CWinApp::OpenDocumentFile(wchar_t const *)
?AddToRecentFileList@CWinApp@@UAEXPB_W@Z_0:0x004082a0-0x004082a6
0x004082a0	FF2560A94000	jmp     ds:__imp_?AddToRecentFileList@CWinApp@@UAEXPB_W@Z; CWinApp::AddToRecentFileList(wchar_t const *)
?InitApplication@CWinApp@@UAEHXZ_0:0x004082a6-0x004082ac
0x004082a6	FF2564A94000	jmp     ds:__imp_?InitApplication@CWinApp@@UAEHXZ; CWinApp::InitApplication(void)
?SaveAllModified@CWinApp@@UAEHXZ_0:0x004082ac-0x004082b2
0x004082ac	FF2568A94000	jmp     ds:__imp_?SaveAllModified@CWinApp@@UAEHXZ; CWinApp::SaveAllModified(void)
?DoMessageBox@CWinApp@@UAEHPB_WII@Z_0:0x004082b2-0x004082b8
0x004082b2	FF256CA94000	jmp     ds:__imp_?DoMessageBox@CWinApp@@UAEHPB_WII@Z; CWinApp::DoMessageBox(wchar_t const *,uint,uint)
?DoWaitCursor@CWinApp@@UAEXH@Z_0:0x004082b8-0x004082be
0x004082b8	FF2570A94000	jmp     ds:__imp_?DoWaitCursor@CWinApp@@UAEXH@Z; CWinApp::DoWaitCursor(int)
?OnDDECommand@CWinApp@@UAEHPA_W@Z_0:0x004082be-0x004082c4
0x004082be	FF2574A94000	jmp     ds:__imp_?OnDDECommand@CWinApp@@UAEHPA_W@Z; CWinApp::OnDDECommand(wchar_t *)
?WinHelpW@CWinApp@@UAEXKI@Z_0:0x004082c4-0x004082ca
0x004082c4	FF2578A94000	jmp     ds:__imp_?WinHelpW@CWinApp@@UAEXKI@Z; CWinApp::WinHelpW(ulong,uint)
?HtmlHelpW@CWinApp@@UAEXKI@Z_0:0x004082ca-0x004082d0
0x004082ca	FF257CA94000	jmp     ds:__imp_?HtmlHelpW@CWinApp@@UAEXKI@Z; CWinApp::HtmlHelpW(ulong,uint)
?WinHelpInternal@CWinApp@@UAEXKI@Z_0:0x004082d0-0x004082d6
0x004082d0	FF2580A94000	jmp     ds:__imp_?WinHelpInternal@CWinApp@@UAEXKI@Z; CWinApp::WinHelpInternal(ulong,uint)
?RegisterWithRestartManager@CWinApp@@UAEJPB_WKP6GKPAX@Z1KK@Z_0:0x004082d6-0x004082dc
0x004082d6	FF2584A94000	jmp     ds:__imp_?RegisterWithRestartManager@CWinApp@@UAEJPB_WKP6GKPAX@Z1KK@Z; CWinApp::RegisterWithRestartManager(wchar_t const *,ulong,ulong (*)(void *),void *,ulong,ulong)
?RegisterWithRestartManager@CWinApp@@UAEJHABV?$CStringT@_WV?$StrTraitMFC_DLL@_WV?$ChTraitsCRT@_W@ATL@@@@@ATL@@@Z_0:0x004082dc-0x004082e2
0x004082dc	FF2588A94000	jmp     ds:__imp_?RegisterWithRestartManager@CWinApp@@UAEJHABV?$CStringT@_WV?$StrTraitMFC_DLL@_WV?$ChTraitsCRT@_W@ATL@@@@@ATL@@@Z; CWinApp::RegisterWithRestartManager(int,ATL::CStringT<wchar_t,StrTraitMFC_DLL<wchar_t,ATL::ChTraitsCRT<wchar_t>>> const &)
?ApplicationRecoveryCallback@CWinApp@@UAEKPAX@Z_0:0x004082e2-0x004082e8
0x004082e2	FF258CA94000	jmp     ds:__imp_?ApplicationRecoveryCallback@CWinApp@@UAEKPAX@Z; CWinApp::ApplicationRecoveryCallback(void *)
?GetDataRecoveryHandler@CWinApp@@UAEPAVCDataRecoveryHandler@@XZ_0:0x004082e8-0x004082ee
0x004082e8	FF2590A94000	jmp     ds:__imp_?GetDataRecoveryHandler@CWinApp@@UAEPAVCDataRecoveryHandler@@XZ; CWinApp::GetDataRecoveryHandler(void)
?IsTaskbarInteractionEnabled@CWinApp@@UAEHXZ_0:0x004082ee-0x004082f4
0x004082ee	FF2594A94000	jmp     ds:__imp_?IsTaskbarInteractionEnabled@CWinApp@@UAEHXZ; CWinApp::IsTaskbarInteractionEnabled(void)
?RestartInstance@CWinApp@@UAEHXZ_0:0x004082f4-0x004082fa
0x004082f4	FF2598A94000	jmp     ds:__imp_?RestartInstance@CWinApp@@UAEHXZ; CWinApp::RestartInstance(void)
?LoadAppLangResourceDLL@CWinApp@@UAEPAUHINSTANCE__@@XZ_0:0x004082fa-0x00408300
0x004082fa	FF259CA94000	jmp     ds:__imp_?LoadAppLangResourceDLL@CWinApp@@UAEPAUHINSTANCE__@@XZ; CWinApp::LoadAppLangResourceDLL(void)
?LoadSysPolicies@CWinApp@@UAEHXZ_0:0x00408300-0x00408306
0x00408300	FF25A0A94000	jmp     ds:__imp_?LoadSysPolicies@CWinApp@@UAEHXZ; CWinApp::LoadSysPolicies(void)
?LoadState@CWinAppEx@@UAEHPB_WPAVCFrameImpl@@@Z_0:0x00408306-0x0040830c
0x00408306	FF25A4A94000	jmp     ds:__imp_?LoadState@CWinAppEx@@UAEHPB_WPAVCFrameImpl@@@Z; CWinAppEx::LoadState(wchar_t const *,CFrameImpl *)
?CleanState@CWinAppEx@@UAEHPB_W@Z_0:0x0040830c-0x00408312
0x0040830c	FF25A8A94000	jmp     ds:__imp_?CleanState@CWinAppEx@@UAEHPB_W@Z; CWinAppEx::CleanState(wchar_t const *)
?SaveState@CWinAppEx@@UAEHPB_WPAVCFrameImpl@@@Z_0:0x00408312-0x00408318
0x00408312	FF25ACA94000	jmp     ds:__imp_?SaveState@CWinAppEx@@UAEHPB_WPAVCFrameImpl@@@Z; CWinAppEx::SaveState(wchar_t const *,CFrameImpl *)
?OnViewDoubleClick@CWinAppEx@@UAEHPAVCWnd@@H@Z_0:0x00408318-0x0040831e
0x00408318	FF25B0A94000	jmp     ds:__imp_?OnViewDoubleClick@CWinAppEx@@UAEHPAVCWnd@@H@Z; CWinAppEx::OnViewDoubleClick(CWnd *,int)
?ShowPopupMenu@CWinAppEx@@UAEHIABVCPoint@@PAVCWnd@@@Z_0:0x0040831e-0x00408324
0x0040831e	FF25B4A94000	jmp     ds:__imp_?ShowPopupMenu@CWinAppEx@@UAEHIABVCPoint@@PAVCWnd@@@Z; CWinAppEx::ShowPopupMenu(uint,CPoint const &,CWnd *)
?OnAppContextHelp@CWinAppEx@@UAEXPAVCWnd@@QBK@Z_0:0x00408324-0x0040832a
0x00408324	FF25B8A94000	jmp     ds:__imp_?OnAppContextHelp@CWinAppEx@@UAEXPAVCWnd@@QBK@Z; CWinAppEx::OnAppContextHelp(CWnd *,ulong const * const)
?OnClosingMainFrame@CWinAppEx@@MAEXPAVCFrameImpl@@@Z_0:0x0040832a-0x00408330
0x0040832a	FF25BCA94000	jmp     ds:__imp_?OnClosingMainFrame@CWinAppEx@@MAEXPAVCFrameImpl@@@Z; CWinAppEx::OnClosingMainFrame(CFrameImpl *)
?LoadWindowPlacement@CWinAppEx@@MAEHAAVCRect@@AAH1@Z_0:0x00408330-0x00408336
0x00408330	FF25C0A94000	jmp     ds:__imp_?LoadWindowPlacement@CWinAppEx@@MAEHAAVCRect@@AAH1@Z; CWinAppEx::LoadWindowPlacement(CRect &,int &,int &)
?StoreWindowPlacement@CWinAppEx@@MAEHABVCRect@@HH@Z_0:0x00408336-0x0040833c
0x00408336	FF25C4A94000	jmp     ds:__imp_?StoreWindowPlacement@CWinAppEx@@MAEHABVCRect@@HH@Z; CWinAppEx::StoreWindowPlacement(CRect const &,int,int)
?ReloadWindowPlacement@CWinAppEx@@MAEHPAVCFrameWnd@@@Z_0:0x0040833c-0x00408342
0x0040833c	FF25C8A94000	jmp     ds:__imp_?ReloadWindowPlacement@CWinAppEx@@MAEHPAVCFrameWnd@@@Z; CWinAppEx::ReloadWindowPlacement(CFrameWnd *)
?GetRuntimeClass@CDialogEx@@UBEPAUCRuntimeClass@@XZ_0:0x00408342-0x00408348
0x00408342	FF25CCA94000	jmp     ds:__imp_?GetRuntimeClass@CDialogEx@@UBEPAUCRuntimeClass@@XZ; CDialogEx::GetRuntimeClass(void)
?OnCmdMsg@CDialog@@UAEHIHPAXPAUAFX_CMDHANDLERINFO@@@Z_0:0x00408348-0x0040834e
0x00408348	FF25D0A94000	jmp     ds:__imp_?OnCmdMsg@CDialog@@UAEHIHPAXPAUAFX_CMDHANDLERINFO@@@Z; CDialog::OnCmdMsg(uint,int,void *,AFX_CMDHANDLERINFO *)
?OnCommand@CDialogEx@@MAEHIJ@Z_0:0x0040834e-0x00408354
0x0040834e	FF25D4A94000	jmp     ds:__imp_?OnCommand@CDialogEx@@MAEHIJ@Z; CDialogEx::OnCommand(uint,long)
?PreTranslateMessage@CDialogEx@@UAEHPAUtagMSG@@@Z_0:0x00408354-0x0040835a
0x00408354	FF25D8A94000	jmp     ds:__imp_?PreTranslateMessage@CDialogEx@@UAEHPAUtagMSG@@@Z; CDialogEx::PreTranslateMessage(tagMSG *)
?CheckAutoCenter@CDialog@@UAEHXZ_0:0x0040835a-0x00408360
0x0040835a	FF25DCA94000	jmp     ds:__imp_?CheckAutoCenter@CDialog@@UAEHXZ; CDialog::CheckAutoCenter(void)
?SetOccDialogInfo@CDialog@@MAEHPAU_AFX_OCC_DIALOG_INFO@@@Z_0:0x00408360-0x00408366
0x00408360	FF25E0A94000	jmp     ds:__imp_?SetOccDialogInfo@CDialog@@MAEHPAU_AFX_OCC_DIALOG_INFO@@@Z; CDialog::SetOccDialogInfo(_AFX_OCC_DIALOG_INFO *)
?GetOccDialogInfo@CDialog@@MAEPAU_AFX_OCC_DIALOG_INFO@@XZ_0:0x00408366-0x0040836c
0x00408366	FF25E4A94000	jmp     ds:__imp_?GetOccDialogInfo@CDialog@@MAEPAU_AFX_OCC_DIALOG_INFO@@XZ; CDialog::GetOccDialogInfo(void)
?Create@CDialog@@UAEHPB_WPAVCWnd@@@Z_0:0x0040836c-0x00408372
0x0040836c	FF25E8A94000	jmp     ds:__imp_?Create@CDialog@@UAEHPB_WPAVCWnd@@@Z; CDialog::Create(wchar_t const *,CWnd *)
?CreateIndirect@CDialog@@UAEHPAXPAVCWnd@@@Z_0:0x00408372-0x00408378
0x00408372	FF25ECA94000	jmp     ds:__imp_?CreateIndirect@CDialog@@UAEHPAXPAVCWnd@@@Z; CDialog::CreateIndirect(void *,CWnd *)
?CreateIndirect@CDialog@@UAEHPBUDLGTEMPLATE@@PAVCWnd@@PAX@Z_0:0x00408378-0x0040837e
0x00408378	FF25F0A94000	jmp     ds:__imp_?CreateIndirect@CDialog@@UAEHPBUDLGTEMPLATE@@PAVCWnd@@PAX@Z; CDialog::CreateIndirect(DLGTEMPLATE const *,CWnd *,void *)
?OnInitDialog@CDialog@@UAEHXZ_0:0x0040837e-0x00408384
0x0040837e	FF25F4A94000	jmp     ds:__imp_?OnInitDialog@CDialog@@UAEHXZ; CDialog::OnInitDialog(void)
?OnSetFont@CDialog@@UAEXPAVCFont@@@Z_0:0x00408384-0x0040838a
0x00408384	FF25F8A94000	jmp     ds:__imp_?OnSetFont@CDialog@@UAEXPAVCFont@@@Z; CDialog::OnSetFont(CFont *)
?OnOK@CDialog@@MAEXXZ_0:0x0040838a-0x00408390
0x0040838a	FF25FCA94000	jmp     ds:__imp_?OnOK@CDialog@@MAEXXZ; CDialog::OnOK(void)
?OnCancel@CDialog@@MAEXXZ_0:0x00408390-0x00408396
0x00408390	FF2500AA4000	jmp     ds:__imp_?OnCancel@CDialog@@MAEXXZ; CDialog::OnCancel(void)
?PreInitDialog@CDialog@@MAEXXZ_0:0x00408396-0x0040839c
0x00408396	FF2504AA4000	jmp     ds:__imp_?PreInitDialog@CDialog@@MAEXXZ; CDialog::PreInitDialog(void)
?GetThisMessageMap@CDocument@@KGPBUAFX_MSGMAP@@XZ_0:0x0040839c-0x004083a2
0x0040839c	FF250CAA4000	jmp     ds:__imp_?GetThisMessageMap@CDocument@@KGPBUAFX_MSGMAP@@XZ; CDocument::GetThisMessageMap(void)
?OnCmdMsg@CDocument@@UAEHIHPAXPAUAFX_CMDHANDLERINFO@@@Z_0:0x004083a2-0x004083a8
0x004083a2	FF251CAA4000	jmp     ds:__imp_?OnCmdMsg@CDocument@@UAEHIHPAXPAUAFX_CMDHANDLERINFO@@@Z; CDocument::OnCmdMsg(uint,int,void *,AFX_CMDHANDLERINFO *)
?OnFinalRelease@CDocument@@UAEXXZ_0:0x004083a8-0x004083ae
0x004083a8	FF2520AA4000	jmp     ds:__imp_?OnFinalRelease@CDocument@@UAEXXZ; CDocument::OnFinalRelease(void)
?GetInterfaceMap@CDocument@@MBEPBUAFX_INTERFACEMAP@@XZ_0:0x004083ae-0x004083b4
0x004083ae	FF2524AA4000	jmp     ds:__imp_?GetInterfaceMap@CDocument@@MBEPBUAFX_INTERFACEMAP@@XZ; CDocument::GetInterfaceMap(void)
?FindChunk@CDocument@@UAEPAU__POSITION@@ABU_GUID@@K@Z_0:0x004083b4-0x004083ba
0x004083b4	FF252CAA4000	jmp     ds:__imp_?FindChunk@CDocument@@UAEPAU__POSITION@@ABU_GUID@@K@Z; CDocument::FindChunk(_GUID const &,ulong)
?RemoveChunk@CDocument@@UAEXABU_GUID@@K@Z_0:0x004083ba-0x004083c0
0x004083ba	FF2530AA4000	jmp     ds:__imp_?RemoveChunk@CDocument@@UAEXABU_GUID@@K@Z; CDocument::RemoveChunk(_GUID const &,ulong)
?ReadNextChunkValue@CDocument@@UAEHPAPAUIFilterChunkValue@ATL@@@Z_0:0x004083c0-0x004083c6
0x004083c0	FF2534AA4000	jmp     ds:__imp_?ReadNextChunkValue@CDocument@@UAEHPAPAUIFilterChunkValue@ATL@@@Z; CDocument::ReadNextChunkValue(ATL::IFilterChunkValue * *)
?SetChunkValue@CDocument@@UAEHPAUIFilterChunkValue@ATL@@@Z_0:0x004083c6-0x004083cc
0x004083c6	FF2538AA4000	jmp     ds:__imp_?SetChunkValue@CDocument@@UAEHPAUIFilterChunkValue@ATL@@@Z; CDocument::SetChunkValue(ATL::IFilterChunkValue *)
?ClearChunkList@CDocument@@UAEXXZ_0:0x004083cc-0x004083d2
0x004083cc	FF253CAA4000	jmp     ds:__imp_?ClearChunkList@CDocument@@UAEXXZ; CDocument::ClearChunkList(void)
?GetThumbnail@CDocument@@UAEHIPAPAUHBITMAP__@@PAW4WTS_ALPHATYPE@@@Z_0:0x004083d2-0x004083d8
0x004083d2	FF2540AA4000	jmp     ds:__imp_?GetThumbnail@CDocument@@UAEHIPAPAUHBITMAP__@@PAW4WTS_ALPHATYPE@@@Z; CDocument::GetThumbnail(uint,HBITMAP__ * *,WTS_ALPHATYPE *)
?BeginReadChunks@CDocument@@UAEXXZ_0:0x004083d8-0x004083de
0x004083d8	FF2544AA4000	jmp     ds:__imp_?BeginReadChunks@CDocument@@UAEXXZ; CDocument::BeginReadChunks(void)
?LoadDocumentFromStream@CDocument@@UAEJPAUIStream@@K@Z_0:0x004083de-0x004083e4
0x004083de	FF2548AA4000	jmp     ds:__imp_?LoadDocumentFromStream@CDocument@@UAEJPAUIStream@@K@Z; CDocument::LoadDocumentFromStream(IStream *,ulong)
?SetTitle@CDocument@@UAEXPB_W@Z_0:0x004083e4-0x004083ea
0x004083e4	FF254CAA4000	jmp     ds:__imp_?SetTitle@CDocument@@UAEXPB_W@Z; CDocument::SetTitle(wchar_t const *)
?SetPathName@CDocument@@UAEXPB_WH@Z_0:0x004083ea-0x004083f0
0x004083ea	FF2550AA4000	jmp     ds:__imp_?SetPathName@CDocument@@UAEXPB_WH@Z; CDocument::SetPathName(wchar_t const *,int)
?ClearPathName@CDocument@@UAEXXZ_0:0x004083f0-0x004083f6
0x004083f0	FF2554AA4000	jmp     ds:__imp_?ClearPathName@CDocument@@UAEXXZ; CDocument::ClearPathName(void)
?GetFirstViewPosition@CDocument@@UBEPAU__POSITION@@XZ_0:0x004083f6-0x004083fc
0x004083f6	FF2558AA4000	jmp     ds:__imp_?GetFirstViewPosition@CDocument@@UBEPAU__POSITION@@XZ; CDocument::GetFirstViewPosition(void)
?GetNextView@CDocument@@UBEPAVCView@@AAPAU__POSITION@@@Z_0:0x004083fc-0x00408402
0x004083fc	FF255CAA4000	jmp     ds:__imp_?GetNextView@CDocument@@UBEPAVCView@@AAPAU__POSITION@@@Z; CDocument::GetNextView(__POSITION * &)
?OnChangedViewList@CDocument@@UAEXXZ_0:0x00408402-0x00408408
0x00408402	FF2560AA4000	jmp     ds:__imp_?OnChangedViewList@CDocument@@UAEXXZ; CDocument::OnChangedViewList(void)
?DeleteContents@CDocument@@UAEXXZ_0:0x00408408-0x0040840e
0x00408408	FF2564AA4000	jmp     ds:__imp_?DeleteContents@CDocument@@UAEXXZ; CDocument::DeleteContents(void)
?OnOpenDocument@CDocument@@UAEHPB_W@Z_0:0x0040840e-0x00408414
0x0040840e	FF2568AA4000	jmp     ds:__imp_?OnOpenDocument@CDocument@@UAEHPB_W@Z; CDocument::OnOpenDocument(wchar_t const *)
?OnSaveDocument@CDocument@@UAEHPB_W@Z_0:0x00408414-0x0040841a
0x00408414	FF256CAA4000	jmp     ds:__imp_?OnSaveDocument@CDocument@@UAEHPB_W@Z; CDocument::OnSaveDocument(wchar_t const *)
?OnCloseDocument@CDocument@@UAEXXZ_0:0x0040841a-0x00408420
0x0040841a	FF2570AA4000	jmp     ds:__imp_?OnCloseDocument@CDocument@@UAEXXZ; CDocument::OnCloseDocument(void)
?ReportSaveLoadException@CDocument@@UAEXPB_WPAVCException@@HI@Z_0:0x00408420-0x00408426
0x00408420	FF2574AA4000	jmp     ds:__imp_?ReportSaveLoadException@CDocument@@UAEXPB_WPAVCException@@HI@Z; CDocument::ReportSaveLoadException(wchar_t const *,CException *,int,uint)
?GetFile@CDocument@@UAEPAVCFile@@PB_WIPAVCFileException@@@Z_0:0x00408426-0x0040842c
0x00408426	FF2578AA4000	jmp     ds:__imp_?GetFile@CDocument@@UAEPAVCFile@@PB_WIPAVCFileException@@@Z; CDocument::GetFile(wchar_t const *,uint,CFileException *)
?ReleaseFile@CDocument@@UAEXPAVCFile@@H@Z_0:0x0040842c-0x00408432
0x0040842c	FF257CAA4000	jmp     ds:__imp_?ReleaseFile@CDocument@@UAEXPAVCFile@@H@Z; CDocument::ReleaseFile(CFile *,int)
?OnRichPreviewUnload@CDocument@@UAEXXZ_0:0x00408432-0x00408438
0x00408432	FF2580AA4000	jmp     ds:__imp_?OnRichPreviewUnload@CDocument@@UAEXXZ; CDocument::OnRichPreviewUnload(void)
?OnDocumentEvent@CDocument@@UAEXW4DocumentEvent@1@@Z_0:0x00408438-0x0040843e
0x00408438	FF2584AA4000	jmp     ds:__imp_?OnDocumentEvent@CDocument@@UAEXW4DocumentEvent@1@@Z; CDocument::OnDocumentEvent(CDocument::DocumentEvent)
?CanCloseFrame@CDocument@@UAEHPAVCFrameWnd@@@Z_0:0x0040843e-0x00408444
0x0040843e	FF2588AA4000	jmp     ds:__imp_?CanCloseFrame@CDocument@@UAEHPAVCFrameWnd@@@Z; CDocument::CanCloseFrame(CFrameWnd *)
?SaveModified@CDocument@@UAEHXZ_0:0x00408444-0x0040844a
0x00408444	FF258CAA4000	jmp     ds:__imp_?SaveModified@CDocument@@UAEHXZ; CDocument::SaveModified(void)
?PreCloseFrame@CDocument@@UAEXPAVCFrameWnd@@@Z_0:0x0040844a-0x00408450
0x0040844a	FF2590AA4000	jmp     ds:__imp_?PreCloseFrame@CDocument@@UAEXPAVCFrameWnd@@@Z; CDocument::PreCloseFrame(CFrameWnd *)
?DoSave@CDocument@@UAEHPB_WH@Z_0:0x00408450-0x00408456
0x00408450	FF2594AA4000	jmp     ds:__imp_?DoSave@CDocument@@UAEHPB_WH@Z; CDocument::DoSave(wchar_t const *,int)
?DoFileSave@CDocument@@UAEHXZ_0:0x00408456-0x0040845c
0x00408456	FF2598AA4000	jmp     ds:__imp_?DoFileSave@CDocument@@UAEHXZ; CDocument::DoFileSave(void)
?UpdateFrameCounts@CDocument@@UAEXXZ_0:0x0040845c-0x00408462
0x0040845c	FF259CAA4000	jmp     ds:__imp_?UpdateFrameCounts@CDocument@@UAEXXZ; CDocument::UpdateFrameCounts(void)
?GetDefaultMenu@CDocument@@UAEPAUHMENU__@@XZ_0:0x00408462-0x00408468
0x00408462	FF25A0AA4000	jmp     ds:__imp_?GetDefaultMenu@CDocument@@UAEPAUHMENU__@@XZ; CDocument::GetDefaultMenu(void)
?GetDefaultAccelerator@CDocument@@UAEPAUHACCEL__@@XZ_0:0x00408468-0x0040846e
0x00408468	FF25A4AA4000	jmp     ds:__imp_?GetDefaultAccelerator@CDocument@@UAEPAUHACCEL__@@XZ; CDocument::GetDefaultAccelerator(void)
?OnIdle@CDocument@@UAEXXZ_0:0x0040846e-0x00408474
0x0040846e	FF25A8AA4000	jmp     ds:__imp_?OnIdle@CDocument@@UAEXXZ; CDocument::OnIdle(void)
?OnLoadDocumentFromStream@CDocument@@UAEJPAUIStream@@K@Z_0:0x00408474-0x0040847a
0x00408474	FF25ACAA4000	jmp     ds:__imp_?OnLoadDocumentFromStream@CDocument@@UAEJPAUIStream@@K@Z; CDocument::OnLoadDocumentFromStream(IStream *,ulong)
?OnPreviewHandlerQueryFocus@CDocument@@UAEJPAPAUHWND__@@@Z_0:0x0040847a-0x00408480
0x0040847a	FF25B0AA4000	jmp     ds:__imp_?OnPreviewHandlerQueryFocus@CDocument@@UAEJPAPAUHWND__@@@Z; CDocument::OnPreviewHandlerQueryFocus(HWND__ * *)
?OnPreviewHandlerTranslateAccelerator@CDocument@@UAEJPAUtagMSG@@@Z_0:0x00408480-0x00408486
0x00408480	FF25B4AA4000	jmp     ds:__imp_?OnPreviewHandlerTranslateAccelerator@CDocument@@UAEJPAUtagMSG@@@Z; CDocument::OnPreviewHandlerTranslateAccelerator(tagMSG *)
?OnCreatePreviewFrame@CDocument@@UAEHXZ_0:0x00408486-0x0040848c
0x00408486	FF25B8AA4000	jmp     ds:__imp_?OnCreatePreviewFrame@CDocument@@UAEHXZ; CDocument::OnCreatePreviewFrame(void)
?OnUnloadHandler@CDocument@@UAEXXZ_0:0x0040848c-0x00408492
0x0040848c	FF25BCAA4000	jmp     ds:__imp_?OnUnloadHandler@CDocument@@UAEXXZ; CDocument::OnUnloadHandler(void)
?OnDrawThumbnail@CDocument@@UAEXAAVCDC@@PAUtagRECT@@@Z_0:0x00408492-0x00408498
0x00408492	FF25C0AA4000	jmp     ds:__imp_?OnDrawThumbnail@CDocument@@UAEXAAVCDC@@PAUtagRECT@@@Z; CDocument::OnDrawThumbnail(CDC &,tagRECT *)
?OnFilePrint@CView@@IAEXXZ_0:0x00408498-0x0040849e
0x00408498	FF25C8AA4000	jmp     ds:__imp_?OnFilePrint@CView@@IAEXXZ; CView::OnFilePrint(void)
?GetThisMessageMap@CView@@KGPBUAFX_MSGMAP@@XZ_0:0x0040849e-0x004084a4
0x0040849e	FF25CCAA4000	jmp     ds:__imp_?GetThisMessageMap@CView@@KGPBUAFX_MSGMAP@@XZ; CView::GetThisMessageMap(void)
?OnCmdMsg@CView@@UAEHIHPAXPAUAFX_CMDHANDLERINFO@@@Z_0:0x004084a4-0x004084aa
0x004084a4	FF25E4AA4000	jmp     ds:__imp_?OnCmdMsg@CView@@UAEHIHPAXPAUAFX_CMDHANDLERINFO@@@Z; CView::OnCmdMsg(uint,int,void *,AFX_CMDHANDLERINFO *)
?CalcWindowRect@CView@@UAEXPAUtagRECT@@I@Z_0:0x004084aa-0x004084b0
0x004084aa	FF25E8AA4000	jmp     ds:__imp_?CalcWindowRect@CView@@UAEXPAUtagRECT@@I@Z; CView::CalcWindowRect(tagRECT *,uint)
?GetScrollBarCtrl@CView@@UBEPAVCScrollBar@@H@Z_0:0x004084b0-0x004084b6
0x004084b0	FF25ECAA4000	jmp     ds:__imp_?GetScrollBarCtrl@CView@@UBEPAVCScrollBar@@H@Z; CView::GetScrollBarCtrl(int)
?PreTranslateMessage@CWnd@@UAEHPAUtagMSG@@@Z_0:0x004084b6-0x004084bc
0x004084b6	FF25F0AA4000	jmp     ds:__imp_?PreTranslateMessage@CWnd@@UAEHPAUtagMSG@@@Z; CWnd::PreTranslateMessage(tagMSG *)
?PostNcDestroy@CView@@MAEXXZ_0:0x004084bc-0x004084c2
0x004084bc	FF25F4AA4000	jmp     ds:__imp_?PostNcDestroy@CView@@MAEXXZ; CView::PostNcDestroy(void)
?IsSelected@CView@@UBEHPBVCObject@@@Z_0:0x004084c2-0x004084c8
0x004084c2	FF25F8AA4000	jmp     ds:__imp_?IsSelected@CView@@UBEHPBVCObject@@@Z; CView::IsSelected(CObject const *)
?OnScroll@CView@@UAEHIIH@Z_0:0x004084c8-0x004084ce
0x004084c8	FF25FCAA4000	jmp     ds:__imp_?OnScroll@CView@@UAEHIIH@Z; CView::OnScroll(uint,uint,int)
?OnScrollBy@CView@@UAEHVCSize@@H@Z_0:0x004084ce-0x004084d4
0x004084ce	FF2500AB4000	jmp     ds:__imp_?OnScrollBy@CView@@UAEHVCSize@@H@Z; CView::OnScrollBy(CSize,int)
?OnDragEnter@CView@@UAEKPAVCOleDataObject@@KVCPoint@@@Z_0:0x004084d4-0x004084da
0x004084d4	FF2504AB4000	jmp     ds:__imp_?OnDragEnter@CView@@UAEKPAVCOleDataObject@@KVCPoint@@@Z; CView::OnDragEnter(COleDataObject *,ulong,CPoint)
?OnDragOver@CView@@UAEKPAVCOleDataObject@@KVCPoint@@@Z_0:0x004084da-0x004084e0
0x004084da	FF2508AB4000	jmp     ds:__imp_?OnDragOver@CView@@UAEKPAVCOleDataObject@@KVCPoint@@@Z; CView::OnDragOver(COleDataObject *,ulong,CPoint)
?OnDragLeave@CView@@UAEXXZ_0:0x004084e0-0x004084e6
0x004084e0	FF250CAB4000	jmp     ds:__imp_?OnDragLeave@CView@@UAEXXZ; CView::OnDragLeave(void)
?OnDrop@CView@@UAEHPAVCOleDataObject@@KVCPoint@@@Z_0:0x004084e6-0x004084ec
0x004084e6	FF2510AB4000	jmp     ds:__imp_?OnDrop@CView@@UAEHPAVCOleDataObject@@KVCPoint@@@Z; CView::OnDrop(COleDataObject *,ulong,CPoint)
?OnDropEx@CView@@UAEKPAVCOleDataObject@@KKVCPoint@@@Z_0:0x004084ec-0x004084f2
0x004084ec	FF2514AB4000	jmp     ds:__imp_?OnDropEx@CView@@UAEKPAVCOleDataObject@@KKVCPoint@@@Z; CView::OnDropEx(COleDataObject *,ulong,ulong,CPoint)
?OnDragScroll@CView@@UAEKKVCPoint@@@Z_0:0x004084f2-0x004084f8
0x004084f2	FF2518AB4000	jmp     ds:__imp_?OnDragScroll@CView@@UAEKKVCPoint@@@Z; CView::OnDragScroll(ulong,CPoint)
?OnPrepareDC@CView@@UAEXPAVCDC@@PAUCPrintInfo@@@Z_0:0x004084f8-0x004084fe
0x004084f8	FF251CAB4000	jmp     ds:__imp_?OnPrepareDC@CView@@UAEXPAVCDC@@PAUCPrintInfo@@@Z; CView::OnPrepareDC(CDC *,CPrintInfo *)
?OnInitialUpdate@CView@@UAEXXZ_0:0x004084fe-0x00408504
0x004084fe	FF2520AB4000	jmp     ds:__imp_?OnInitialUpdate@CView@@UAEXXZ; CView::OnInitialUpdate(void)
?OnActivateView@CView@@MAEXHPAV1@0@Z_0:0x00408504-0x0040850a
0x00408504	FF2524AB4000	jmp     ds:__imp_?OnActivateView@CView@@MAEXHPAV1@0@Z; CView::OnActivateView(int,CView *,CView *)
?OnActivateFrame@CView@@MAEXIPAVCFrameWnd@@@Z_0:0x0040850a-0x00408510
0x0040850a	FF2528AB4000	jmp     ds:__imp_?OnActivateFrame@CView@@MAEXIPAVCFrameWnd@@@Z; CView::OnActivateFrame(uint,CFrameWnd *)
?OnUpdate@CView@@MAEXPAV1@JPAVCObject@@@Z_0:0x00408510-0x00408516
0x00408510	FF252CAB4000	jmp     ds:__imp_?OnUpdate@CView@@MAEXPAV1@JPAVCObject@@@Z; CView::OnUpdate(CView *,long,CObject *)
?OnPrint@CView@@MAEXPAVCDC@@PAUCPrintInfo@@@Z_0:0x00408516-0x0040851c
0x00408516	FF2530AB4000	jmp     ds:__imp_?OnPrint@CView@@MAEXPAVCDC@@PAUCPrintInfo@@@Z; CView::OnPrint(CDC *,CPrintInfo *)
?OnEndPrintPreview@CView@@MAEXPAVCDC@@PAUCPrintInfo@@UtagPOINT@@PAVCPreviewView@@@Z_0:0x0040851c-0x00408522
0x0040851c	FF2534AB4000	jmp     ds:__imp_?OnEndPrintPreview@CView@@MAEXPAVCDC@@PAUCPrintInfo@@UtagPOINT@@PAVCPreviewView@@@Z; CView::OnEndPrintPreview(CDC *,CPrintInfo *,tagPOINT,CPreviewView *)
?Create@CListBox@@UAEHKABUtagRECT@@PAVCWnd@@I@Z_0:0x00408522-0x00408528
0x00408522	FF2544AB4000	jmp     ds:__imp_?Create@CListBox@@UAEHKABUtagRECT@@PAVCWnd@@I@Z; CListBox::Create(ulong,tagRECT const &,CWnd *,uint)
?CharToItem@CListBox@@UAEHII@Z_0:0x00408528-0x0040852e
0x00408528	FF2548AB4000	jmp     ds:__imp_?CharToItem@CListBox@@UAEHII@Z; CListBox::CharToItem(uint,uint)
?VKeyToItem@CListBox@@UAEHII@Z_0:0x0040852e-0x00408534
0x0040852e	FF254CAB4000	jmp     ds:__imp_?VKeyToItem@CListBox@@UAEHII@Z; CListBox::VKeyToItem(uint,uint)
?DeleteItem@CListBox@@UAEXPAUtagDELETEITEMSTRUCT@@@Z_0:0x00408534-0x0040853a
0x00408534	FF2550AB4000	jmp     ds:__imp_?DeleteItem@CListBox@@UAEXPAUtagDELETEITEMSTRUCT@@@Z; CListBox::DeleteItem(tagDELETEITEMSTRUCT *)
?CompareItem@CListBox@@UAEHPAUtagCOMPAREITEMSTRUCT@@@Z_0:0x0040853a-0x00408540
0x0040853a	FF2554AB4000	jmp     ds:__imp_?CompareItem@CListBox@@UAEHPAUtagCOMPAREITEMSTRUCT@@@Z; CListBox::CompareItem(tagCOMPAREITEMSTRUCT *)
?MeasureItem@CListBox@@UAEXPAUtagMEASUREITEMSTRUCT@@@Z_0:0x00408540-0x00408546
0x00408540	FF2558AB4000	jmp     ds:__imp_?MeasureItem@CListBox@@UAEXPAUtagMEASUREITEMSTRUCT@@@Z; CListBox::MeasureItem(tagMEASUREITEMSTRUCT *)
?DrawItem@CListBox@@UAEXPAUtagDRAWITEMSTRUCT@@@Z_0:0x00408546-0x0040854c
0x00408546	FF255CAB4000	jmp     ds:__imp_?DrawItem@CListBox@@UAEXPAUtagDRAWITEMSTRUCT@@@Z; CListBox::DrawItem(tagDRAWITEMSTRUCT *)
?OnChildNotify@CListBox@@MAEHIIJPAJ@Z_0:0x0040854c-0x00408552
0x0040854c	FF2560AB4000	jmp     ds:__imp_?OnChildNotify@CListBox@@MAEHIIJPAJ@Z; CListBox::OnChildNotify(uint,uint,long,long *)
?GetMessageMap@CWnd@@MBEPBUAFX_MSGMAP@@XZ_0:0x00408552-0x00408558
0x00408552	FF2564AB4000	jmp     ds:__imp_?GetMessageMap@CWnd@@MBEPBUAFX_MSGMAP@@XZ; CWnd::GetMessageMap(void)
?GetRuntimeClass@CListBox@@UBEPAUCRuntimeClass@@XZ_0:0x00408558-0x0040855e
0x00408558	FF2568AB4000	jmp     ds:__imp_?GetRuntimeClass@CListBox@@UBEPAUCRuntimeClass@@XZ; CListBox::GetRuntimeClass(void)
?GetThisMessageMap@CWnd@@KGPBUAFX_MSGMAP@@XZ_0:0x0040855e-0x00408564
0x0040855e	FF2578AB4000	jmp     ds:__imp_?GetThisMessageMap@CWnd@@KGPBUAFX_MSGMAP@@XZ; CWnd::GetThisMessageMap(void)
?GetRuntimeClass@CFont@@UBEPAUCRuntimeClass@@XZ_0:0x00408564-0x0040856a
0x00408564	FF258CAB4000	jmp     ds:__imp_?GetRuntimeClass@CFont@@UBEPAUCRuntimeClass@@XZ; CFont::GetRuntimeClass(void)
?DeleteItem@CComboBox@@UAEXPAUtagDELETEITEMSTRUCT@@@Z_0:0x0040856a-0x00408570
0x0040856a	FF2590AB4000	jmp     ds:__imp_?DeleteItem@CComboBox@@UAEXPAUtagDELETEITEMSTRUCT@@@Z; CComboBox::DeleteItem(tagDELETEITEMSTRUCT *)
?CompareItem@CComboBox@@UAEHPAUtagCOMPAREITEMSTRUCT@@@Z_0:0x00408570-0x00408576
0x00408570	FF2594AB4000	jmp     ds:__imp_?CompareItem@CComboBox@@UAEHPAUtagCOMPAREITEMSTRUCT@@@Z; CComboBox::CompareItem(tagCOMPAREITEMSTRUCT *)
?MeasureItem@CComboBox@@UAEXPAUtagMEASUREITEMSTRUCT@@@Z_0:0x00408576-0x0040857c
0x00408576	FF2598AB4000	jmp     ds:__imp_?MeasureItem@CComboBox@@UAEXPAUtagMEASUREITEMSTRUCT@@@Z; CComboBox::MeasureItem(tagMEASUREITEMSTRUCT *)
?DrawItem@CComboBox@@UAEXPAUtagDRAWITEMSTRUCT@@@Z_0:0x0040857c-0x00408582
0x0040857c	FF259CAB4000	jmp     ds:__imp_?DrawItem@CComboBox@@UAEXPAUtagDRAWITEMSTRUCT@@@Z; CComboBox::DrawItem(tagDRAWITEMSTRUCT *)
?Create@CComboBox@@UAEHKABUtagRECT@@PAVCWnd@@I@Z_0:0x00408582-0x00408588
0x00408582	FF25A0AB4000	jmp     ds:__imp_?Create@CComboBox@@UAEHKABUtagRECT@@PAVCWnd@@I@Z; CComboBox::Create(ulong,tagRECT const &,CWnd *,uint)
?OnChildNotify@CComboBox@@MAEHIIJPAJ@Z_0:0x00408588-0x0040858e
0x00408588	FF25A4AB4000	jmp     ds:__imp_?OnChildNotify@CComboBox@@MAEHIIJPAJ@Z; CComboBox::OnChildNotify(uint,uint,long,long *)
?GetRuntimeClass@CComboBox@@UBEPAUCRuntimeClass@@XZ_0:0x0040858e-0x00408594
0x0040858e	FF25A8AB4000	jmp     ds:__imp_?GetRuntimeClass@CComboBox@@UBEPAUCRuntimeClass@@XZ; CComboBox::GetRuntimeClass(void)
?GetRuntimeClass@CTreeCtrl@@UBEPAUCRuntimeClass@@XZ_0:0x00408594-0x0040859a
0x00408594	FF2520AC4000	jmp     ds:__imp_?GetRuntimeClass@CTreeCtrl@@UBEPAUCRuntimeClass@@XZ; CTreeCtrl::GetRuntimeClass(void)
?GetThisMessageMap@CTreeCtrl@@KGPBUAFX_MSGMAP@@XZ_0:0x0040859a-0x004085a0
0x0040859a	FF2528AC4000	jmp     ds:__imp_?GetThisMessageMap@CTreeCtrl@@KGPBUAFX_MSGMAP@@XZ; CTreeCtrl::GetThisMessageMap(void)
pre_cpp_init:0x004085a0-0x004085eb
0x004085a0	68C88A4000	push    offset _RTC_Terminate; Func
0x004085a5	E8C3030000	call    atexit
0x004085aa	A1BC264100	mov     eax, _newmode
0x004085af	C70424AC264100	mov     [esp+4+var_4], offset startinfo
0x004085b6	FF35B8264100	push    _dowildcard
0x004085bc	A3AC264100	mov     startinfo, eax
0x004085c1	689C264100	push    offset envp
0x004085c6	68A0264100	push    offset argv
0x004085cb	6898264100	push    offset argc
0x004085d0	FF15F0A04000	call    ds:__imp____wgetmainargs
0x004085d6	83C414	add     esp, 14h
0x004085d9	A3A8264100	mov     argret, eax
0x004085de	85C0	test    eax, eax
0x004085e0	7908	jns     short locret_4085EA
0x004085e2	6A08	push    8
0x004085e4	E8B3040000	call    __amsg_exit
0x004085e9	59	pop     ecx
0x004085ea	C3	retn
__tmainCRTStartup:0x004085eb-0x004087bc
0x004085eb	6A5C	push    5Ch
0x004085ed	6890FD4000	push    offset stru_40FD90
0x004085f2	E869060000	call    __SEH_prolog4
0x004085f7	33DB	xor     ebx, ebx
0x004085f9	895DE4	mov     [ebp+var_1C], ebx
0x004085fc	8D4594	lea     eax, [ebp+StartupInfo]
0x004085ff	50	push    eax; lpStartupInfo
0x00408600	FF155CA04000	call    ds:__imp__GetStartupInfoW@4; GetStartupInfoW(x)
0x00408606	391D3C2B4100	cmp     _NoHeapEnableTerminationOnCorruption, ebx
0x0040860c	750B	jnz     short loc_408619
0x0040860e	53	push    ebx; HeapInformationLength
0x0040860f	53	push    ebx; HeapInformation
0x00408610	6A01	push    1; HeapInformationClass
0x00408612	53	push    ebx; HeapHandle
0x00408613	FF1560A04000	call    ds:__imp__HeapSetInformation@16; HeapSetInformation(x,x,x,x)
0x00408619	895DFC	mov     [ebp+ms_exc.registration.TryLevel], ebx
0x0040861c	64A118000000	mov     eax, large fs:18h
0x00408622	8B7004	mov     esi, [eax+4]
0x00408625	895DE0	mov     [ebp+var_20], ebx
0x00408628	BF302B4100	mov     edi, offset __native_startup_lock
0x0040862d	53	push    ebx; Comperand
0x0040862e	56	push    esi; Exchange
0x0040862f	57	push    edi; Destination
0x00408630	FF1564A04000	call    ds:__imp__InterlockedCompareExchange@12; InterlockedCompareExchange(x,x,x)
0x00408636	3BC3	cmp     eax, ebx
0x00408638	7419	jz      short loc_408653
0x0040863a	3BC6	cmp     eax, esi
0x0040863c	7508	jnz     short loc_408646
0x0040863e	33F6	xor     esi, esi
0x00408640	46	inc     esi
0x00408641	8975E0	mov     [ebp+var_20], esi
0x00408644	EB10	jmp     short loc_408656
0x00408646	68E8030000	push    3E8h; dwMilliseconds
0x0040864b	FF1568A04000	call    ds:__imp__Sleep@4; Sleep(x)
0x00408651	EBDA	jmp     short loc_40862D
0x00408653	33F6	xor     esi, esi
0x00408655	46	inc     esi
0x00408656	A12C2B4100	mov     eax, __native_startup_state
0x0040865b	3BC6	cmp     eax, esi
0x0040865d	750A	jnz     short loc_408669
0x0040865f	6A1F	push    1Fh
0x00408661	E836040000	call    __amsg_exit
0x00408666	59	pop     ecx
0x00408667	EB3B	jmp     short loc_4086A4
0x00408669	A12C2B4100	mov     eax, __native_startup_state
0x0040866e	85C0	test    eax, eax
0x00408670	752C	jnz     short loc_40869E
0x00408672	89352C2B4100	mov     __native_startup_state, esi
0x00408678	68FCAD4000	push    offset __xi_z
0x0040867d	68F0AD4000	push    offset __xi_a
0x00408682	E8CB050000	call    __initterm_e
0x00408687	59	pop     ecx
0x00408688	59	pop     ecx
0x00408689	85C0	test    eax, eax
0x0040868b	7417	jz      short loc_4086A4
0x0040868d	C745FCFEFFFFFF	mov     [ebp+ms_exc.registration.TryLevel], 0FFFFFFFEh
0x00408694	B8FF000000	mov     eax, 0FFh
0x00408699	E918010000	jmp     loc_4087B6
0x0040869e	8935B4264100	mov     has_cctor, esi
0x004086a4	A12C2B4100	mov     eax, __native_startup_state
0x004086a9	3BC6	cmp     eax, esi
0x004086ab	751B	jnz     short loc_4086C8
0x004086ad	68ECAD4000	push    offset __xc_z
0x004086b2	68D4AD4000	push    offset __xc_a
0x004086b7	E890050000	call    __initterm
0x004086bc	59	pop     ecx
0x004086bd	59	pop     ecx
0x004086be	C7052C2B410002000000	mov     __native_startup_state, 2
0x004086c8	395DE0	cmp     [ebp+var_20], ebx
0x004086cb	7508	jnz     short loc_4086D5
0x004086cd	53	push    ebx; Value
0x004086ce	57	push    edi; Target
0x004086cf	FF156CA04000	call    ds:__imp__InterlockedExchange@8; InterlockedExchange(x,x)
0x004086d5	391D402B4100	cmp     __dyn_tls_init_callback, ebx
0x004086db	7419	jz      short loc_4086F6
0x004086dd	68402B4100	push    offset __dyn_tls_init_callback
0x004086e2	E8A9040000	call    _IsNonwritableInCurrentImage
0x004086e7	59	pop     ecx
0x004086e8	85C0	test    eax, eax
0x004086ea	740A	jz      short loc_4086F6
0x004086ec	53	push    ebx
0x004086ed	6A02	push    2
0x004086ef	53	push    ebx
0x004086f0	FF15402B4100	call    __dyn_tls_init_callback
0x004086f6	A1DCA04000	mov     eax, ds:_imp___wcmdln
0x004086fb	8B00	mov     eax, [eax]
0x004086fd	8945DC	mov     [ebp+var_24], eax
0x00408700	0FB708	movzx   ecx, word ptr [eax]
0x00408703	83F920	cmp     ecx, 20h
0x00408706	774F	ja      short $LN50
0x00408708	663BCB	cmp     cx, bx
0x0040870b	7405	jz      short loc_408712
0x0040870d	395DE4	cmp     [ebp+var_1C], ebx
0x00408710	7545	jnz     short $LN50
0x00408712	0FB708	movzx   ecx, word ptr [eax]
0x00408715	663BCB	cmp     cx, bx
0x00408718	740D	jz      short loc_408727
0x0040871a	83F920	cmp     ecx, 20h
0x0040871d	7708	ja      short loc_408727
0x0040871f	83C002	add     eax, 2
0x00408722	8945DC	mov     [ebp+var_24], eax
0x00408725	EBEB	jmp     short loc_408712
0x00408727	F645C001	test    byte ptr [ebp+StartupInfo.dwFlags], 1
0x0040872b	7406	jz      short loc_408733
0x0040872d	0FB74DC4	movzx   ecx, [ebp+StartupInfo.wShowWindow]
0x00408731	EB03	jmp     short loc_408736
0x00408733	6A0A	push    0Ah
0x00408735	59	pop     ecx
0x00408736	51	push    ecx; nShowCmd
0x00408737	50	push    eax; lpCmdLine
0x00408738	53	push    ebx; hPrevInstance
0x00408739	6800004000	push    400000h; hInstance
0x0040873e	E8BE080000	call    _wWinMain@16; wWinMain(x,x,x,x)
0x00408743	A3B0264100	mov     mainret, eax
0x00408748	391DA4264100	cmp     managedapp, ebx
0x0040874e	754C	jnz     short $LN51
0x00408750	50	push    eax; Code
0x00408751	FF15E0A04000	call    ds:__imp__exit
0x00408757	83F922	cmp     ecx, 22h
0x0040875a	750B	jnz     short loc_408767
0x0040875c	33C9	xor     ecx, ecx
0x0040875e	395DE4	cmp     [ebp+var_1C], ebx
0x00408761	0F94C1	setz    cl
0x00408764	894DE4	mov     [ebp+var_1C], ecx
0x00408767	83C002	add     eax, 2
0x0040876a	EB91	jmp     short loc_4086FD
0x0040876c	8B45EC	mov     eax, [ebp+ms_exc.exc_ptr]
0x0040876f	8B08	mov     ecx, [eax]
0x00408771	8B09	mov     ecx, [ecx]
0x00408773	894DD8	mov     [ebp+Code], ecx
0x00408776	50	push    eax
0x00408777	51	push    ecx
0x00408778	E871030000	call    __XcptFilter
0x0040877d	59	pop     ecx
0x0040877e	59	pop     ecx
0x0040877f	C3	retn
0x00408780	8B65E8	mov     esp, [ebp+ms_exc.old_esp]
0x00408783	8B45D8	mov     eax, [ebp+Code]
0x00408786	A3B0264100	mov     mainret, eax
0x0040878b	33DB	xor     ebx, ebx
0x0040878d	391DA4264100	cmp     managedapp, ebx
0x00408793	7507	jnz     short $LN51
0x00408795	50	push    eax; Code
0x00408796	FF15E8A04000	call    ds:__imp___exit
0x0040879c	391DB4264100	cmp     has_cctor, ebx
0x004087a2	7506	jnz     short loc_4087AA
0x004087a4	FF15ECA04000	call    ds:__imp___cexit
0x004087aa	C745FCFEFFFFFF	mov     [ebp+ms_exc.registration.TryLevel], 0FFFFFFFEh
0x004087b1	A1B0264100	mov     eax, mainret
0x004087b6	E8EA040000	call    __SEH_epilog4
0x004087bb	C3	retn
pre_c_init:0x004087bc-0x00408876
0x004087bc	B84D5A0000	mov     eax, 5A4Dh
0x004087c1	66390500004000	cmp     ds:400000h, ax
0x004087c8	7404	jz      short loc_4087CE
0x004087ca	33C0	xor     eax, eax
0x004087cc	EB35	jmp     short loc_408803
0x004087ce	A13C004000	mov     eax, ds:40003Ch
0x004087d3	81B80000400050450000	cmp     dword ptr [eax+400000h], 4550h
0x004087dd	75EB	jnz     short loc_4087CA
0x004087df	B90B010000	mov     ecx, 10Bh
0x004087e4	66398818004000	cmp     [eax+400018h], cx
0x004087eb	75DD	jnz     short loc_4087CA
0x004087ed	83B8740040000E	cmp     dword ptr [eax+400074h], 0Eh
0x004087f4	76D4	jbe     short loc_4087CA
0x004087f6	33C9	xor     ecx, ecx
0x004087f8	3988E8004000	cmp     [eax+4000E8h], ecx
0x004087fe	0F95C1	setnz   cl
0x00408801	8BC1	mov     eax, ecx
0x00408803	6A02	push    2
0x00408805	A3A4264100	mov     managedapp, eax
0x0040880a	FF15C0A04000	call    ds:__imp____set_app_type
0x00408810	59	pop     ecx
0x00408811	6AFF	push    0FFFFFFFFh; Ptr
0x00408813	FF1558A04000	call    ds:__imp__EncodePointer@4; EncodePointer(x)
0x00408819	8B0DC4264100	mov     ecx, _fmode
0x0040881f	A3342B4100	mov     __onexitend, eax
0x00408824	A3382B4100	mov     __onexitbegin, eax
0x00408829	A1C4A04000	mov     eax, ds:_imp___fmode
0x0040882e	8908	mov     [eax], ecx
0x00408830	A1C8A04000	mov     eax, ds:_imp___commode
0x00408835	8B0DC0264100	mov     ecx, _commode
0x0040883b	8908	mov     [eax], ecx
0x0040883d	E860020000	call    _RTC_Initialize
0x00408842	E8BF040000	call    _matherr
0x00408847	833D2420410000	cmp     __defaultmatherr, 0
0x0040884e	750C	jnz     short loc_40885C
0x00408850	68068D4000	push    offset _matherr
0x00408855	FF15CCA04000	call    ds:__imp____setusermatherr
0x0040885b	59	pop     ecx
0x0040885c	E87D040000	call    _setdefaultprecision
0x00408861	833D20204100FF	cmp     __globallocalestatus, 0FFFFFFFFh
0x00408868	7509	jnz     short loc_408873
0x0040886a	6AFF	push    0FFFFFFFFh
0x0040886c	FF15D0A04000	call    ds:__imp___configthreadlocale
0x00408872	59	pop     ecx
0x00408873	33C0	xor     eax, eax
0x00408875	C3	retn
wWinMainCRTStartup:0x00408876-0x00408880
0x00408876	E88E040000	call    __security_init_cookie
0x0040887b	E96BFDFFFF	jmp     __tmainCRTStartup
type_info::_vector_deleting_destructor_:0x00408880-0x004088cc
0x00408880	8BFF	mov     edi, edi
0x00408882	55	push    ebp
0x00408883	8BEC	mov     ebp, esp
0x00408885	F6450802	test    [ebp+arg_0], 2
0x00408889	57	push    edi
0x0040888a	8BF9	mov     edi, ecx
0x0040888c	7425	jz      short loc_4088B3
0x0040888e	56	push    esi
0x0040888f	68DE8D4000	push    offset ??1type_info@@UAE@XZ; type_info::~type_info(void)
0x00408894	8D77FC	lea     esi, [edi-4]
0x00408897	FF36	push    dword ptr [esi]
0x00408899	6A0C	push    0Ch
0x0040889b	57	push    edi
0x0040889c	E847010000	call    _eh_vector_destructor_iterator_
0x004088a1	F6450801	test    [ebp+arg_0], 1
0x004088a5	7407	jz      short loc_4088AE
0x004088a7	56	push    esi; void *
0x004088a8	E8F7EFFFFF	call    ??3@YAXPAX@Z_0; operator delete(void *)
0x004088ad	59	pop     ecx
0x004088ae	8BC6	mov     eax, esi
0x004088b0	5E	pop     esi
0x004088b1	EB14	jmp     short loc_4088C7
0x004088b3	E826050000	call    ??1type_info@@UAE@XZ; type_info::~type_info(void)
0x004088b8	F6450801	test    [ebp+arg_0], 1
0x004088bc	7407	jz      short loc_4088C5
0x004088be	57	push    edi; void *
0x004088bf	E8E0EFFFFF	call    ??3@YAXPAX@Z_0; operator delete(void *)
0x004088c4	59	pop     ecx
0x004088c5	8BC7	mov     eax, edi
0x004088c7	5F	pop     edi
0x004088c8	5D	pop     ebp
0x004088c9	C20400	retn    4
_onexit_0:0x004088cc-0x0040896d
0x004088cc	6A14	push    14h
0x004088ce	68B0FD4000	push    offset stru_40FDB0
0x004088d3	E888030000	call    __SEH_prolog4
0x004088d8	FF35382B4100	push    __onexitbegin; Ptr
0x004088de	8B3554A04000	mov     esi, ds:__imp__DecodePointer@4; DecodePointer(x)
0x004088e4	FFD6	call    esi ; DecodePointer(x); DecodePointer(x)
0x004088e6	8945E4	mov     [ebp+Ptr], eax
0x004088e9	83F8FF	cmp     eax, 0FFFFFFFFh
0x004088ec	750C	jnz     short loc_4088FA
0x004088ee	FF7508	push    [ebp+Func]; Func
0x004088f1	FF15B0A04000	call    ds:_imp___onexit
0x004088f7	59	pop     ecx
0x004088f8	EB64	jmp     short loc_40895E
0x004088fa	6A08	push    8
0x004088fc	E8AF040000	call    __lock
0x00408901	59	pop     ecx
0x00408902	8365FC00	and     [ebp+ms_exc.registration.TryLevel], 0
0x00408906	FF35382B4100	push    __onexitbegin; Ptr
0x0040890c	FFD6	call    esi ; DecodePointer(x); DecodePointer(x)
0x0040890e	8945E4	mov     [ebp+Ptr], eax
0x00408911	FF35342B4100	push    __onexitend; Ptr
0x00408917	FFD6	call    esi ; DecodePointer(x); DecodePointer(x)
0x00408919	8945E0	mov     [ebp+var_20], eax
0x0040891c	8D45E0	lea     eax, [ebp+var_20]
0x0040891f	50	push    eax
0x00408920	8D45E4	lea     eax, [ebp+Ptr]
0x00408923	50	push    eax
0x00408924	FF7508	push    [ebp+Func]; Ptr
0x00408927	8B3558A04000	mov     esi, ds:__imp__EncodePointer@4; EncodePointer(x)
0x0040892d	FFD6	call    esi ; EncodePointer(x); EncodePointer(x)
0x0040892f	50	push    eax
0x00408930	E875040000	call    ___dllonexit
0x00408935	83C40C	add     esp, 0Ch
0x00408938	8945DC	mov     [ebp+var_24], eax
0x0040893b	FF75E4	push    [ebp+Ptr]; Ptr
0x0040893e	FFD6	call    esi ; EncodePointer(x); EncodePointer(x)
0x00408940	A3382B4100	mov     __onexitbegin, eax
0x00408945	FF75E0	push    [ebp+var_20]; Ptr
0x00408948	FFD6	call    esi ; EncodePointer(x); EncodePointer(x)
0x0040894a	A3342B4100	mov     __onexitend, eax
0x0040894f	C745FCFEFFFFFF	mov     [ebp+ms_exc.registration.TryLevel], 0FFFFFFFEh
0x00408956	E809000000	call    loc_408964
0x0040895b	8B45DC	mov     eax, [ebp+var_24]
0x0040895e	E842030000	call    __SEH_epilog4
0x00408963	C3	retn
0x00408964	6A08	push    8
0x00408966	E839040000	call    __unlock
0x0040896b	59	pop     ecx
0x0040896c	C3	retn
atexit:0x0040896d-0x00408984
0x0040896d	8BFF	mov     edi, edi
0x0040896f	55	push    ebp
0x00408970	8BEC	mov     ebp, esp
0x00408972	FF7508	push    [ebp+Func]; Func
0x00408975	E852FFFFFF	call    _onexit_0
0x0040897a	F7D8	neg     eax
0x0040897c	1BC0	sbb     eax, eax
0x0040897e	F7D8	neg     eax
0x00408980	59	pop     ecx
0x00408981	48	dec     eax
0x00408982	5D	pop     ebp
0x00408983	C3	retn
__purecall:0x00408984-0x0040898a
0x00408984	FF25F8A04000	jmp     ds:__imp___purecall
__ArrayUnwind:0x0040898a-0x004089e8
0x0040898a	6A14	push    14h
0x0040898c	68D0FD4000	push    offset stru_40FDD0
0x00408991	E8CA020000	call    __SEH_prolog4
0x00408996	8365FC00	and     [ebp+ms_exc.registration.TryLevel], 0
0x0040899a	FF4D10	dec     [ebp+arg_8]
0x0040899d	783A	js      short loc_4089D9
0x0040899f	8B4D08	mov     ecx, [ebp+arg_0]
0x004089a2	2B4D0C	sub     ecx, [ebp+arg_4]
0x004089a5	894D08	mov     [ebp+arg_0], ecx
0x004089a8	FF5514	call    [ebp+arg_C]
0x004089ab	EBED	jmp     short loc_40899A
0x004089ad	8B45EC	mov     eax, [ebp+ms_exc.exc_ptr]
0x004089b0	8945E4	mov     [ebp+var_1C], eax
0x004089b3	8B45E4	mov     eax, [ebp+var_1C]
0x004089b6	8B00	mov     eax, [eax]
0x004089b8	8945E0	mov     [ebp+var_20], eax
0x004089bb	8B45E0	mov     eax, [ebp+var_20]
0x004089be	813863736DE0	cmp     dword ptr [eax], 0E06D7363h
0x004089c4	740B	jz      short loc_4089D1
0x004089c6	C745DC00000000	mov     [ebp+var_24], 0
0x004089cd	8B45DC	mov     eax, [ebp+var_24]
0x004089d0	C3	retn
0x004089d1	E8E0030000	call    ?terminate@@YAXXZ_0; terminate(void)
0x004089d6	8B65E8	mov     esp, [ebp+ms_exc.old_esp]
0x004089d9	C745FCFEFFFFFF	mov     [ebp+ms_exc.registration.TryLevel], 0FFFFFFFEh
0x004089e0	E8C0020000	call    __SEH_epilog4
0x004089e5	C21000	retn    10h
_eh_vector_destructor_iterator_:0x004089e8-0x00408a4b
0x004089e8	6A0C	push    0Ch
0x004089ea	68F0FD4000	push    offset stru_40FDF0
0x004089ef	E86C020000	call    __SEH_prolog4
0x004089f4	8365E400	and     [ebp+var_1C], 0
0x004089f8	8B750C	mov     esi, [ebp+arg_4]
0x004089fb	8BC6	mov     eax, esi
0x004089fd	0FAF4510	imul    eax, [ebp+arg_8]
0x00408a01	014508	add     [ebp+arg_0], eax
0x00408a04	8365FC00	and     [ebp+ms_exc.registration.TryLevel], 0
0x00408a08	FF4D10	dec     [ebp+arg_8]
0x00408a0b	780B	js      short loc_408A18
0x00408a0d	297508	sub     [ebp+arg_0], esi
0x00408a10	8B4D08	mov     ecx, [ebp+arg_0]
0x00408a13	FF5514	call    [ebp+arg_C]
0x00408a16	EBF0	jmp     short loc_408A08
0x00408a18	C745E401000000	mov     [ebp+var_1C], 1
0x00408a1f	C745FCFEFFFFFF	mov     [ebp+ms_exc.registration.TryLevel], 0FFFFFFFEh
0x00408a26	E808000000	call    loc_408A33
0x00408a2b	E875020000	call    __SEH_epilog4
0x00408a30	C21000	retn    10h
0x00408a33	837DE400	cmp     [ebp+var_1C], 0
0x00408a37	7511	jnz     short loc_408A4A
0x00408a39	FF7514	push    [ebp+arg_C]
0x00408a3c	FF7510	push    [ebp+arg_8]
0x00408a3f	FF750C	push    [ebp+arg_4]
0x00408a42	FF7508	push    [ebp+arg_0]
0x00408a45	E840FFFFFF	call    __ArrayUnwind
0x00408a4a	C3	retn
__CxxUnhandledExceptionFilter:0x00408a4b-0x00408a8d
0x00408a4b	8BFF	mov     edi, edi
0x00408a4d	55	push    ebp
0x00408a4e	8BEC	mov     ebp, esp
0x00408a50	8B4508	mov     eax, [ebp+ExceptionInfo]
0x00408a53	8B00	mov     eax, [eax]
0x00408a55	813863736DE0	cmp     dword ptr [eax], 0E06D7363h
0x00408a5b	752A	jnz     short loc_408A87
0x00408a5d	83781003	cmp     dword ptr [eax+10h], 3
0x00408a61	7524	jnz     short loc_408A87
0x00408a63	8B4014	mov     eax, [eax+14h]
0x00408a66	3D20059319	cmp     eax, 19930520h
0x00408a6b	7415	jz      short loc_408A82
0x00408a6d	3D21059319	cmp     eax, 19930521h
0x00408a72	740E	jz      short loc_408A82
0x00408a74	3D22059319	cmp     eax, 19930522h
0x00408a79	7407	jz      short loc_408A82
0x00408a7b	3D00409901	cmp     eax, 1994000h
0x00408a80	7505	jnz     short loc_408A87
0x00408a82	E82F030000	call    ?terminate@@YAXXZ_0; terminate(void)
0x00408a87	33C0	xor     eax, eax
0x00408a89	5D	pop     ebp
0x00408a8a	C20400	retn    4
__CxxSetUnhandledExceptionFilter:0x00408a8d-0x00408a9b
0x00408a8d	684B8A4000	push    offset __CxxUnhandledExceptionFilter; lpTopLevelExceptionFilter
0x00408a92	FF1550A04000	call    ds:__imp__SetUnhandledExceptionFilter@4; SetUnhandledExceptionFilter(x)
0x00408a98	33C0	xor     eax, eax
0x00408a9a	C3	retn
__amsg_exit:0x00408a9c-0x00408aa2
0x00408a9c	FF25F4A04000	jmp     ds:__imp___amsg_exit
_RTC_Initialize:0x00408aa2-0x00408ac8
0x00408aa2	8BFF	mov     edi, edi
0x00408aa4	56	push    esi
0x00408aa5	B880FD4000	mov     eax, offset __rtc_izz
0x00408aaa	BE80FD4000	mov     esi, offset __rtc_izz
0x00408aaf	57	push    edi
0x00408ab0	8BF8	mov     edi, eax
0x00408ab2	3BC6	cmp     eax, esi
0x00408ab4	730F	jnb     short loc_408AC5
0x00408ab6	8B07	mov     eax, [edi]
0x00408ab8	85C0	test    eax, eax
0x00408aba	7402	jz      short loc_408ABE
0x00408abc	FFD0	call    eax
0x00408abe	83C704	add     edi, 4
0x00408ac1	3BFE	cmp     edi, esi
0x00408ac3	72F1	jb      short loc_408AB6
0x00408ac5	5F	pop     edi
0x00408ac6	5E	pop     esi
0x00408ac7	C3	retn
_RTC_Terminate:0x00408ac8-0x00408aee
0x00408ac8	8BFF	mov     edi, edi
0x00408aca	56	push    esi
0x00408acb	B888FD4000	mov     eax, offset __rtc_tzz
0x00408ad0	BE88FD4000	mov     esi, offset __rtc_tzz
0x00408ad5	57	push    edi
0x00408ad6	8BF8	mov     edi, eax
0x00408ad8	3BC6	cmp     eax, esi
0x00408ada	730F	jnb     short loc_408AEB
0x00408adc	8B07	mov     eax, [edi]
0x00408ade	85C0	test    eax, eax
0x00408ae0	7402	jz      short loc_408AE4
0x00408ae2	FFD0	call    eax
0x00408ae4	83C704	add     edi, 4
0x00408ae7	3BFE	cmp     edi, esi
0x00408ae9	72F1	jb      short loc_408ADC
0x00408aeb	5F	pop     edi
0x00408aec	5E	pop     esi
0x00408aed	C3	retn
__XcptFilter:0x00408aee-0x00408af4
0x00408aee	FF25E4A04000	jmp     ds:__imp___XcptFilter
_ValidateImageBase:0x00408b00-0x00408b35
0x00408b00	8BFF	mov     edi, edi
0x00408b02	55	push    ebp
0x00408b03	8BEC	mov     ebp, esp
0x00408b05	8B4D08	mov     ecx, [ebp+arg_0]
0x00408b08	B84D5A0000	mov     eax, 5A4Dh
0x00408b0d	663901	cmp     [ecx], ax
0x00408b10	7404	jz      short loc_408B16
0x00408b12	33C0	xor     eax, eax
0x00408b14	5D	pop     ebp
0x00408b15	C3	retn
0x00408b16	8B413C	mov     eax, [ecx+3Ch]
0x00408b19	03C1	add     eax, ecx
0x00408b1b	813850450000	cmp     dword ptr [eax], 4550h
0x00408b21	75EF	jnz     short loc_408B12
0x00408b23	33D2	xor     edx, edx
0x00408b25	B90B010000	mov     ecx, 10Bh
0x00408b2a	66394818	cmp     [eax+18h], cx
0x00408b2e	0F94C2	setz    dl
0x00408b31	8BC2	mov     eax, edx
0x00408b33	5D	pop     ebp
0x00408b34	C3	retn
_FindPESection:0x00408b40-0x00408b84
0x00408b40	8BFF	mov     edi, edi
0x00408b42	55	push    ebp
0x00408b43	8BEC	mov     ebp, esp
0x00408b45	8B4508	mov     eax, [ebp+arg_0]
0x00408b48	8B483C	mov     ecx, [eax+3Ch]
0x00408b4b	03C8	add     ecx, eax
0x00408b4d	0FB74114	movzx   eax, word ptr [ecx+14h]
0x00408b51	53	push    ebx
0x00408b52	56	push    esi
0x00408b53	0FB77106	movzx   esi, word ptr [ecx+6]
0x00408b57	33D2	xor     edx, edx
0x00408b59	57	push    edi
0x00408b5a	8D440818	lea     eax, [eax+ecx+18h]
0x00408b5e	85F6	test    esi, esi
0x00408b60	741B	jz      short loc_408B7D
0x00408b62	8B7D0C	mov     edi, [ebp+arg_4]
0x00408b65	8B480C	mov     ecx, [eax+0Ch]
0x00408b68	3BF9	cmp     edi, ecx
0x00408b6a	7209	jb      short loc_408B75
0x00408b6c	8B5808	mov     ebx, [eax+8]
0x00408b6f	03D9	add     ebx, ecx
0x00408b71	3BFB	cmp     edi, ebx
0x00408b73	720A	jb      short loc_408B7F
0x00408b75	42	inc     edx
0x00408b76	83C028	add     eax, 28h
0x00408b79	3BD6	cmp     edx, esi
0x00408b7b	72E8	jb      short loc_408B65
0x00408b7d	33C0	xor     eax, eax
0x00408b7f	5F	pop     edi
0x00408b80	5E	pop     esi
0x00408b81	5B	pop     ebx
0x00408b82	5D	pop     ebp
0x00408b83	C3	retn
_IsNonwritableInCurrentImage:0x00408b90-0x00408c4c
0x00408b90	8BFF	mov     edi, edi
0x00408b92	55	push    ebp
0x00408b93	8BEC	mov     ebp, esp
0x00408b95	6AFE	push    0FFFFFFFEh
0x00408b97	6810FE4000	push    offset stru_40FE10
0x00408b9c	68B98C4000	push    offset _except_handler4
0x00408ba1	64A100000000	mov     eax, large fs:0
0x00408ba7	50	push    eax
0x00408ba8	83EC08	sub     esp, 8
0x00408bab	53	push    ebx
0x00408bac	56	push    esi
0x00408bad	57	push    edi
0x00408bae	A128204100	mov     eax, __security_cookie
0x00408bb3	3145F8	xor     [ebp+ms_exc.registration.ScopeTable], eax
0x00408bb6	33C5	xor     eax, ebp
0x00408bb8	50	push    eax
0x00408bb9	8D45F0	lea     eax, [ebp+ms_exc.registration]
0x00408bbc	64A300000000	mov     large fs:0, eax
0x00408bc2	8965E8	mov     [ebp+ms_exc.old_esp], esp
0x00408bc5	C745FC00000000	mov     [ebp+ms_exc.registration.TryLevel], 0
0x00408bcc	6800004000	push    400000h
0x00408bd1	E82AFFFFFF	call    _ValidateImageBase
0x00408bd6	83C404	add     esp, 4
0x00408bd9	85C0	test    eax, eax
0x00408bdb	7454	jz      short loc_408C31
0x00408bdd	8B4508	mov     eax, [ebp+arg_0]
0x00408be0	2D00004000	sub     eax, 400000h
0x00408be5	50	push    eax
0x00408be6	6800004000	push    400000h
0x00408beb	E850FFFFFF	call    _FindPESection
0x00408bf0	83C408	add     esp, 8
0x00408bf3	85C0	test    eax, eax
0x00408bf5	743A	jz      short loc_408C31
0x00408bf7	8B4024	mov     eax, [eax+24h]
0x00408bfa	C1E81F	shr     eax, 1Fh
0x00408bfd	F7D0	not     eax
0x00408bff	83E001	and     eax, 1
0x00408c02	C745FCFEFFFFFF	mov     [ebp+ms_exc.registration.TryLevel], 0FFFFFFFEh
0x00408c09	8B4DF0	mov     ecx, [ebp+ms_exc.registration.Next]
0x00408c0c	64890D00000000	mov     large fs:0, ecx
0x00408c13	59	pop     ecx
0x00408c14	5F	pop     edi
0x00408c15	5E	pop     esi
0x00408c16	5B	pop     ebx
0x00408c17	8BE5	mov     esp, ebp
0x00408c19	5D	pop     ebp
0x00408c1a	C3	retn
0x00408c1b	8B45EC	mov     eax, [ebp+ms_exc.exc_ptr]
0x00408c1e	8B08	mov     ecx, [eax]
0x00408c20	33D2	xor     edx, edx
0x00408c22	8139050000C0	cmp     dword ptr [ecx], 0C0000005h
0x00408c28	0F94C2	setz    dl
0x00408c2b	8BC2	mov     eax, edx
0x00408c2d	C3	retn
0x00408c2e	8B65E8	mov     esp, [ebp+ms_exc.old_esp]
0x00408c31	C745FCFEFFFFFF	mov     [ebp+ms_exc.registration.TryLevel], 0FFFFFFFEh
0x00408c38	33C0	xor     eax, eax
0x00408c3a	8B4DF0	mov     ecx, [ebp+ms_exc.registration.Next]
0x00408c3d	64890D00000000	mov     large fs:0, ecx
0x00408c44	59	pop     ecx
0x00408c45	5F	pop     edi
0x00408c46	5E	pop     esi
0x00408c47	5B	pop     ebx
0x00408c48	8BE5	mov     esp, ebp
0x00408c4a	5D	pop     ebp
0x00408c4b	C3	retn
__initterm:0x00408c4c-0x00408c52
0x00408c4c	FF25D8A04000	jmp     ds:__imp___initterm
__initterm_e:0x00408c52-0x00408c58
0x00408c52	FF25D4A04000	jmp     ds:__imp___initterm_e
__SEH_prolog4:0x00408c60-0x00408ca5
0x00408c60	68B98C4000	push    offset _except_handler4
0x00408c65	64FF3500000000	push    large dword ptr fs:0
0x00408c6c	8B442410	mov     eax, [esp+8+arg_4]
0x00408c70	896C2410	mov     [esp+8+arg_4], ebp
0x00408c74	8D6C2410	lea     ebp, [esp+8+arg_4]
0x00408c78	2BE0	sub     esp, eax
0x00408c7a	53	push    ebx
0x00408c7b	56	push    esi
0x00408c7c	57	push    edi
0x00408c7d	A128204100	mov     eax, __security_cookie
0x00408c82	3145FC	xor     [ebp-4], eax
0x00408c85	33C5	xor     eax, ebp
0x00408c87	50	push    eax
0x00408c88	8965E8	mov     [ebp-18h], esp
0x00408c8b	FF75F8	push    dword ptr [ebp-8]
0x00408c8e	8B45FC	mov     eax, [ebp-4]
0x00408c91	C745FCFEFFFFFF	mov     dword ptr [ebp-4], 0FFFFFFFEh
0x00408c98	8945F8	mov     [ebp-8], eax
0x00408c9b	8D45F0	lea     eax, [ebp-10h]
0x00408c9e	64A300000000	mov     large fs:0, eax
0x00408ca4	C3	retn
__SEH_epilog4:0x00408ca5-0x00408cb9
0x00408ca5	8B4DF0	mov     ecx, [ebp-10h]
0x00408ca8	64890D00000000	mov     large fs:0, ecx
0x00408caf	59	pop     ecx
0x00408cb0	5F	pop     edi
0x00408cb1	5F	pop     edi
0x00408cb2	5E	pop     esi
0x00408cb3	5B	pop     ebx
0x00408cb4	8BE5	mov     esp, ebp
0x00408cb6	5D	pop     ebp
0x00408cb7	51	push    ecx
0x00408cb8	C3	retn
_except_handler4:0x00408cb9-0x00408cde
0x00408cb9	8BFF	mov     edi, edi
0x00408cbb	55	push    ebp
0x00408cbc	8BEC	mov     ebp, esp
0x00408cbe	FF7514	push    [ebp+arg_C]
0x00408cc1	FF7510	push    [ebp+arg_8]
0x00408cc4	FF750C	push    [ebp+arg_4]
0x00408cc7	FF7508	push    [ebp+arg_0]
0x00408cca	68BC8D4000	push    offset __security_check_cookie
0x00408ccf	6828204100	push    offset __security_cookie
0x00408cd4	E8F3000000	call    __except_handler4_common
0x00408cd9	83C418	add     esp, 18h
0x00408cdc	5D	pop     ebp
0x00408cdd	C3	retn
_setdefaultprecision:0x00408cde-0x00408d06
0x00408cde	8BFF	mov     edi, edi
0x00408ce0	56	push    esi
0x00408ce1	6800000300	push    30000h; Mask
0x00408ce6	6800000100	push    10000h; NewValue
0x00408ceb	33F6	xor     esi, esi
0x00408ced	56	push    esi; CurrentState
0x00408cee	E8E5000000	call    __controlfp_s
0x00408cf3	83C40C	add     esp, 0Ch
0x00408cf6	85C0	test    eax, eax
0x00408cf8	740A	jz      short loc_408D04
0x00408cfa	56	push    esi
0x00408cfb	56	push    esi
0x00408cfc	56	push    esi
0x00408cfd	56	push    esi
0x00408cfe	56	push    esi
0x00408cff	E8CE000000	call    __invoke_watson
0x00408d04	5E	pop     esi
0x00408d05	C3	retn
_matherr:0x00408d06-0x00408d09
0x00408d06	33C0	xor     eax, eax
0x00408d08	C3	retn
__security_init_cookie:0x00408d09-0x00408da4
0x00408d09	8BFF	mov     edi, edi
0x00408d0b	55	push    ebp
0x00408d0c	8BEC	mov     ebp, esp
0x00408d0e	83EC10	sub     esp, 10h
0x00408d11	A128204100	mov     eax, __security_cookie
0x00408d16	8365F800	and     [ebp+SystemTimeAsFileTime.dwLowDateTime], 0
0x00408d1a	8365FC00	and     [ebp+SystemTimeAsFileTime.dwHighDateTime], 0
0x00408d1e	53	push    ebx
0x00408d1f	57	push    edi
0x00408d20	BF4EE640BB	mov     edi, 0BB40E64Eh
0x00408d25	BB0000FFFF	mov     ebx, 0FFFF0000h
0x00408d2a	3BC7	cmp     eax, edi
0x00408d2c	740D	jz      short loc_408D3B
0x00408d2e	85C3	test    ebx, eax
0x00408d30	7409	jz      short loc_408D3B
0x00408d32	F7D0	not     eax
0x00408d34	A32C204100	mov     __security_cookie_complement, eax
0x00408d39	EB65	jmp     short loc_408DA0
0x00408d3b	56	push    esi
0x00408d3c	8D45F8	lea     eax, [ebp+SystemTimeAsFileTime]
0x00408d3f	50	push    eax; lpSystemTimeAsFileTime
0x00408d40	FF153CA04000	call    ds:__imp__GetSystemTimeAsFileTime@4; GetSystemTimeAsFileTime(x)
0x00408d46	8B75FC	mov     esi, [ebp+SystemTimeAsFileTime.dwHighDateTime]
0x00408d49	3375F8	xor     esi, [ebp+SystemTimeAsFileTime.dwLowDateTime]
0x00408d4c	FF1540A04000	call    ds:__imp__GetCurrentProcessId@0; GetCurrentProcessId()
0x00408d52	33F0	xor     esi, eax
0x00408d54	FF1524A04000	call    ds:__imp__GetCurrentThreadId@0; GetCurrentThreadId()
0x00408d5a	33F0	xor     esi, eax
0x00408d5c	FF1548A04000	call    ds:__imp__GetTickCount@0; GetTickCount()
0x00408d62	33F0	xor     esi, eax
0x00408d64	8D45F0	lea     eax, [ebp+PerformanceCount]
0x00408d67	50	push    eax; lpPerformanceCount
0x00408d68	FF154CA04000	call    ds:__imp__QueryPerformanceCounter@4; QueryPerformanceCounter(x)
0x00408d6e	8B45F4	mov     eax, dword ptr [ebp+PerformanceCount+4]
0x00408d71	3345F0	xor     eax, dword ptr [ebp+PerformanceCount]
0x00408d74	33F0	xor     esi, eax
0x00408d76	3BF7	cmp     esi, edi
0x00408d78	7507	jnz     short loc_408D81
0x00408d7a	BE4FE640BB	mov     esi, 0BB40E64Fh
0x00408d7f	EB10	jmp     short loc_408D91
0x00408d81	85F3	test    ebx, esi
0x00408d83	750C	jnz     short loc_408D91
0x00408d85	8BC6	mov     eax, esi
0x00408d87	0D11470000	or      eax, 4711h
0x00408d8c	C1E010	shl     eax, 10h
0x00408d8f	0BF0	or      esi, eax
0x00408d91	893528204100	mov     __security_cookie, esi
0x00408d97	F7D6	not     esi
0x00408d99	89352C204100	mov     __security_cookie_complement, esi
0x00408d9f	5E	pop     esi
0x00408da0	5F	pop     edi
0x00408da1	5B	pop     ebx
0x00408da2	C9	leave
0x00408da3	C3	retn
__unlock:0x00408da4-0x00408daa
0x00408da4	FF25BCA04000	jmp     ds:__imp___unlock
___dllonexit:0x00408daa-0x00408db0
0x00408daa	FF25B8A04000	jmp     ds:__imp____dllonexit
__lock:0x00408db0-0x00408db6
0x00408db0	FF25B4A04000	jmp     ds:__imp___lock
?terminate@@YAXXZ_0:0x00408db6-0x00408dbc
0x00408db6	FF25ACA04000	jmp     ds:__imp_?terminate@@YAXXZ; terminate(void)
__security_check_cookie:0x00408dbc-0x00408dcb
0x00408dbc	3B0D28204100	cmp     ecx, __security_cookie
0x00408dc2	7502	jnz     short loc_408DC6
0x00408dc4	F3C3	rep retn
0x00408dc6	E919000000	jmp     __report_gsfailure
__except_handler4_common:0x00408dcc-0x00408dd2
0x00408dcc	FF25A8A04000	jmp     ds:__imp___except_handler4_common
__invoke_watson:0x00408dd2-0x00408dd8
0x00408dd2	FF25A4A04000	jmp     ds:__imp___invoke_watson
__controlfp_s:0x00408dd8-0x00408dde
0x00408dd8	FF25A0A04000	jmp     ds:__imp___controlfp_s
??1type_info@@UAE@XZ:0x00408dde-0x00408de4
0x00408dde	FF259CA04000	jmp     ds:__imp_?_type_info_dtor_internal_method@type_info@@QAEXXZ; type_info::_type_info_dtor_internal_method(void)
__report_gsfailure:0x00408de4-0x00408eea
0x00408de4	8BFF	mov     edi, edi
0x00408de6	55	push    ebp
0x00408de7	8BEC	mov     ebp, esp
0x00408de9	81EC28030000	sub     esp, 328h
0x00408def	A3D0274100	mov     dword_4127D0, eax
0x00408df4	890DCC274100	mov     dword_4127CC, ecx
0x00408dfa	8915C8274100	mov     dword_4127C8, edx
0x00408e00	891DC4274100	mov     dword_4127C4, ebx
0x00408e06	8935C0274100	mov     dword_4127C0, esi
0x00408e0c	893DBC274100	mov     dword_4127BC, edi
0x00408e12	668C15E8274100	mov     word_4127E8, ss
0x00408e19	668C0DDC274100	mov     word_4127DC, cs
0x00408e20	668C1DB8274100	mov     word_4127B8, ds
0x00408e27	668C05B4274100	mov     word_4127B4, es
0x00408e2e	668C25B0274100	mov     word_4127B0, fs
0x00408e35	668C2DAC274100	mov     word_4127AC, gs
0x00408e3c	9C	pushf
0x00408e3d	8F05E0274100	pop     dword_4127E0
0x00408e43	8B4500	mov     eax, [ebp+var_s0]
0x00408e46	A3D4274100	mov     dword_4127D4, eax
0x00408e4b	8B4504	mov     eax, [ebp+4]
0x00408e4e	A3D8274100	mov     dword_4127D8, eax
0x00408e53	8D4508	lea     eax, [ebp+arg_0]
0x00408e56	A3E4274100	mov     dword_4127E4, eax
0x00408e5b	8B85E0FCFFFF	mov     eax, [ebp+var_320]
0x00408e61	C7052027410001000100	mov     GS_ContextRecord, 10001h
0x00408e6b	A1D8274100	mov     eax, dword_4127D8
0x00408e70	A3D4264100	mov     dword_4126D4, eax
0x00408e75	C705C8264100090400C0	mov     GS_ExceptionRecord, 0C0000409h
0x00408e7f	C705CC26410001000000	mov     dword_4126CC, 1
0x00408e89	A128204100	mov     eax, __security_cookie
0x00408e8e	8985D8FCFFFF	mov     [ebp+var_328], eax
0x00408e94	A12C204100	mov     eax, __security_cookie_complement
0x00408e99	8985DCFCFFFF	mov     [ebp+var_324], eax
0x00408e9f	FF152CA04000	call    ds:__imp__IsDebuggerPresent@0; IsDebuggerPresent()
0x00408ea5	A318274100	mov     DebuggerWasPresent, eax
0x00408eaa	6A01	push    1
0x00408eac	E839000000	call    __crt_debugger_hook
0x00408eb1	59	pop     ecx
0x00408eb2	6A00	push    0; lpTopLevelExceptionFilter
0x00408eb4	FF1550A04000	call    ds:__imp__SetUnhandledExceptionFilter@4; SetUnhandledExceptionFilter(x)
0x00408eba	6864AE4000	push    offset GS_ExceptionPointers; ExceptionInfo
0x00408ebf	FF1530A04000	call    ds:__imp__UnhandledExceptionFilter@4; UnhandledExceptionFilter(x)
0x00408ec5	833D1827410000	cmp     DebuggerWasPresent, 0
0x00408ecc	7508	jnz     short loc_408ED6
0x00408ece	6A01	push    1
0x00408ed0	E815000000	call    __crt_debugger_hook
0x00408ed5	59	pop     ecx
0x00408ed6	68090400C0	push    0C0000409h; uExitCode
0x00408edb	FF1534A04000	call    ds:__imp__GetCurrentProcess@0; GetCurrentProcess()
0x00408ee1	50	push    eax; hProcess
0x00408ee2	FF1538A04000	call    ds:__imp__TerminateProcess@8; TerminateProcess(x,x)
0x00408ee8	C9	leave
0x00408ee9	C3	retn
__crt_debugger_hook:0x00408eea-0x00408ef0
0x00408eea	FF2598A04000	jmp     ds:__imp___crt_debugger_hook
_com_issue_error:0x00408ef0-0x00408f01
0x00408ef0	8BFF	mov     edi, edi
0x00408ef2	55	push    ebp
0x00408ef3	8BEC	mov     ebp, esp
0x00408ef5	8B4508	mov     eax, [ebp+arg_0]
0x00408ef8	6A00	push    0
0x00408efa	50	push    eax
0x00408efb	FF1530204100	call    __errorPfn
_com_error::__com_error:0x00408f10-0x00408f3a
0x00408f10	8BFF	mov     edi, edi
0x00408f12	56	push    esi
0x00408f13	8BF1	mov     esi, ecx
0x00408f15	8B4608	mov     eax, [esi+8]
0x00408f18	C7066CAE4000	mov     dword ptr [esi], offset ??_7_com_error@@6B@; const _com_error::`vftable'
0x00408f1e	85C0	test    eax, eax
0x00408f20	7408	jz      short loc_408F2A
0x00408f22	8B08	mov     ecx, [eax]
0x00408f24	8B5108	mov     edx, [ecx+8]
0x00408f27	50	push    eax
0x00408f28	FFD2	call    edx
0x00408f2a	8B760C	mov     esi, [esi+0Ch]
0x00408f2d	85F6	test    esi, esi
0x00408f2f	7407	jz      short loc_408F38
0x00408f31	56	push    esi; hMem
0x00408f32	FF1520A04000	call    ds:__imp__LocalFree@4; LocalFree(x)
0x00408f38	5E	pop     esi
0x00408f39	C3	retn
_com_raise_error:0x00408f40-0x00408f70
0x00408f40	8BFF	mov     edi, edi
0x00408f42	55	push    ebp
0x00408f43	8BEC	mov     ebp, esp
0x00408f45	83EC10	sub     esp, 10h
0x00408f48	8B4508	mov     eax, [ebp+arg_0]
0x00408f4b	8B4D0C	mov     ecx, [ebp+arg_4]
0x00408f4e	682CFE4000	push    offset __TI1?AV_com_error@@; throw info for 'class _com_error'
0x00408f53	8D55F0	lea     edx, [ebp+var_10]
0x00408f56	52	push    edx
0x00408f57	C745F06CAE4000	mov     [ebp+var_10], offset ??_7_com_error@@6B@; const _com_error::`vftable'
0x00408f5e	8945F4	mov     [ebp+var_C], eax
0x00408f61	894DF8	mov     [ebp+var_8], ecx
0x00408f64	C745FC00000000	mov     [ebp+var_4], 0
0x00408f6b	E8BA000000	call    __CxxThrowException@8; _CxxThrowException(x,x)
_com_error::_com_error:0x00408f80-0x00408fb9
0x00408f80	8BFF	mov     edi, edi
0x00408f82	55	push    ebp
0x00408f83	8BEC	mov     ebp, esp
0x00408f85	8B4508	mov     eax, [ebp+arg_0]
0x00408f88	56	push    esi
0x00408f89	8BF1	mov     esi, ecx
0x00408f8b	C7066CAE4000	mov     dword ptr [esi], offset ??_7_com_error@@6B@; const _com_error::`vftable'
0x00408f91	8B4804	mov     ecx, [eax+4]
0x00408f94	894E04	mov     [esi+4], ecx
0x00408f97	8B5008	mov     edx, [eax+8]
0x00408f9a	8BC2	mov     eax, edx
0x00408f9c	895608	mov     [esi+8], edx
0x00408f9f	C7460C00000000	mov     dword ptr [esi+0Ch], 0
0x00408fa6	85C0	test    eax, eax
0x00408fa8	7408	jz      short loc_408FB2
0x00408faa	8B08	mov     ecx, [eax]
0x00408fac	8B5104	mov     edx, [ecx+4]
0x00408faf	50	push    eax
0x00408fb0	FFD2	call    edx
0x00408fb2	8BC6	mov     eax, esi
0x00408fb4	5E	pop     esi
0x00408fb5	5D	pop     ebp
0x00408fb6	C20400	retn    4
_com_error::_scalar_deleting_destructor_:0x00408fc0-0x00409001
0x00408fc0	8BFF	mov     edi, edi
0x00408fc2	55	push    ebp
0x00408fc3	8BEC	mov     ebp, esp
0x00408fc5	56	push    esi
0x00408fc6	8BF1	mov     esi, ecx
0x00408fc8	8B4608	mov     eax, [esi+8]
0x00408fcb	C7066CAE4000	mov     dword ptr [esi], offset ??_7_com_error@@6B@; const _com_error::`vftable'
0x00408fd1	85C0	test    eax, eax
0x00408fd3	7408	jz      short loc_408FDD
0x00408fd5	8B08	mov     ecx, [eax]
0x00408fd7	8B5108	mov     edx, [ecx+8]
0x00408fda	50	push    eax
0x00408fdb	FFD2	call    edx
0x00408fdd	8B460C	mov     eax, [esi+0Ch]
0x00408fe0	85C0	test    eax, eax
0x00408fe2	7407	jz      short loc_408FEB
0x00408fe4	50	push    eax; hMem
0x00408fe5	FF1520A04000	call    ds:__imp__LocalFree@4; LocalFree(x)
0x00408feb	F6450801	test    [ebp+arg_0], 1
0x00408fef	7409	jz      short loc_408FFA
0x00408ff1	56	push    esi; void *
0x00408ff2	E8ADE8FFFF	call    ??3@YAXPAX@Z_0; operator delete(void *)
0x00408ff7	83C404	add     esp, 4
0x00408ffa	8BC6	mov     eax, esi
0x00408ffc	5E	pop     esi
0x00408ffd	5D	pop     ebp
0x00408ffe	C20400	retn    4
_wWinMain@16:0x00409001-0x0040900c
0x00409001	8BFF	mov     edi, edi
0x00409003	55	push    ebp
0x00409004	8BEC	mov     ebp, esp
0x00409006	5D	pop     ebp
0x00409007	E980000000	jmp     ?AfxWinMain@@YGHPAUHINSTANCE__@@0PA_WH@Z_0; AfxWinMain(HINSTANCE__ *,HINSTANCE__ *,wchar_t *,int)
AfxInitialize:0x0040900c-0x00409029
0x0040900c	8BFF	mov     edi, edi
0x0040900e	55	push    ebp
0x0040900f	8BEC	mov     ebp, esp
0x00409011	E8BEEBFFFF	call    ?AfxGetModuleState@@YGPAVAFX_MODULE_STATE@@XZ_0; AfxGetModuleState(void)
0x00409016	8A4D08	mov     cl, [ebp+arg_0]
0x00409019	884814	mov     [eax+14h], cl
0x0040901c	8B4D0C	mov     ecx, [ebp+arg_4]
0x0040901f	894844	mov     [eax+44h], ecx
0x00409022	33C0	xor     eax, eax
0x00409024	40	inc     eax
0x00409025	5D	pop     ebp
0x00409026	C20800	retn    8
__CxxThrowException@8:0x0040902a-0x00409030
0x0040902a	FF2594A04000	jmp     ds:__imp___CxxThrowException@8; _CxxThrowException(x,x)
_alloca_probe_16:0x00409030-0x00409046
0x00409030	51	push    ecx
0x00409031	8D4C2408	lea     ecx, [esp+4+arg_0]
0x00409035	2BC8	sub     ecx, eax
0x00409037	83E10F	and     ecx, 0Fh
0x0040903a	03C1	add     eax, ecx
0x0040903c	1BC9	sbb     ecx, ecx
0x0040903e	0BC1	or      eax, ecx
0x00409040	59	pop     ecx
0x00409041	E91A000000	jmp     _chkstk
__alloca_probe_8:0x00409046-0x0040905c
0x00409046	51	push    ecx
0x00409047	8D4C2408	lea     ecx, [esp+4+arg_0]
0x0040904b	2BC8	sub     ecx, eax
0x0040904d	83E107	and     ecx, 7
0x00409050	03C1	add     eax, ecx
0x00409052	1BC9	sbb     ecx, ecx
0x00409054	0BC1	or      eax, ecx
0x00409056	59	pop     ecx
0x00409057	E904000000	jmp     _chkstk
_chkstk:0x00409060-0x0040908b
0x00409060	51	push    ecx
0x00409061	8D4C2404	lea     ecx, [esp+4]
0x00409065	2BC8	sub     ecx, eax
0x00409067	1BC0	sbb     eax, eax
0x00409069	F7D0	not     eax
0x0040906b	23C8	and     ecx, eax
0x0040906d	8BC4	mov     eax, esp
0x0040906f	2500F0FFFF	and     eax, 0FFFFF000h
0x00409074	3BC8	cmp     ecx, eax
0x00409076	720A	jb      short cs20
0x00409078	8BC1	mov     eax, ecx
0x0040907a	59	pop     ecx
0x0040907b	94	xchg    eax, esp
0x0040907c	8B00	mov     eax, [eax]
0x0040907e	890424	mov     [esp+0], eax
0x00409081	C3	retn
0x00409082	2D00100000	sub     eax, 1000h
0x00409087	8500	test    [eax], eax
0x00409089	EBE9	jmp     short cs10
?AfxWinMain@@YGHPAUHINSTANCE__@@0PA_WH@Z_0:0x0040908c-0x00409092
0x0040908c	FF25C4AD4000	jmp     ds:__imp_?AfxWinMain@@YGHPAUHINSTANCE__@@0PA_WH@Z; AfxWinMain(HINSTANCE__ *,HINSTANCE__ *,wchar_t *,int)
___CxxFrameHandler3:0x00409092-0x00409098
0x00409092	FF2504A14000	jmp     ds:__imp____CxxFrameHandler3
__except_handler3:0x00409098-0x0040909e
0x00409098	FF2590A04000	jmp     ds:__imp___except_handler3
COutputWnd::_COutputWnd_SEH:0x004090d4-0x004090de
0x004090d4	B880FE4000	mov     eax, offset stru_40FE80
0x004090d9	E9B4FFFFFF	jmp     ___CxxFrameHandler3
CDocument::CDocumentAdapter::_scalar_deleting_destructor__SEH:0x004090e8-0x004090f2
0x004090e8	B8ACFE4000	mov     eax, offset stru_40FEAC
0x004090ed	E9A0FFFFFF	jmp     ___CxxFrameHandler3
CnotepadApp::PreLoadState_SEH:0x00409109-0x00409113
0x00409109	B8D8FE4000	mov     eax, offset stru_40FED8
0x0040910e	E97FFFFFFF	jmp     ___CxxFrameHandler3
CnotepadApp::OnMyFileOpenAndParse_SEH:0x00409150-0x0040915a
0x00409150	B81CFF4000	mov     eax, offset stru_40FF1C
0x00409155	E938FFFFFF	jmp     ___CxxFrameHandler3
CnotepadApp::ParseFile_SEH:0x0040917b-0x00409185
0x0040917b	B858FF4000	mov     eax, offset stru_40FF58
0x00409180	E90DFFFFFF	jmp     ___CxxFrameHandler3
CWaitCursor::_CWaitCursor_SEH:0x00409199-0x004091a3
0x00409199	B8B8FF4000	mov     eax, offset stru_40FFB8
0x0040919e	E9EFFEFFFF	jmp     ___CxxFrameHandler3
CMainFrame::LoadFrame_SEH:0x004091b9-0x004091c3
0x004091b9	B8E4FF4000	mov     eax, offset stru_40FFE4
0x004091be	E9CFFEFFFF	jmp     ___CxxFrameHandler3
CMainFrame::OnToolbarCreateNew_SEH:0x004091d9-0x004091e3
0x004091d9	B810004100	mov     eax, offset stru_410010
0x004091de	E9AFFEFFFF	jmp     ___CxxFrameHandler3
CMainFrame::CreateDockingWindows_SEH:0x00409214-0x0040921e
0x00409214	B854004100	mov     eax, offset stru_410054
0x00409219	E974FEFFFF	jmp     ___CxxFrameHandler3
CGdiObject::_CGdiObject_SEH:0x00409229-0x00409233
0x00409229	B8B4004100	mov     eax, offset stru_4100B4
0x0040922e	E95FFEFFFF	jmp     ___CxxFrameHandler3
CPropertiesWnd::_CPropertiesWnd_SEH:0x00409274-0x0040927e
0x00409274	B8F8004100	mov     eax, offset stru_4100F8
0x00409279	E914FEFFFF	jmp     ___CxxFrameHandler3
CPropertiesWnd::CPropertiesWnd_SEH:0x004092b4-0x004092be
0x004092b4	B83C014100	mov     eax, offset stru_41013C
0x004092b9	E9D4FDFFFF	jmp     ___CxxFrameHandler3
COutputWnd::OnCreate_SEH:0x004092c9-0x004092d3
0x004092c9	B868014100	mov     eax, offset stru_410168
0x004092ce	E9BFFDFFFF	jmp     ___CxxFrameHandler3
CnotepadView::CreateObject_SEH:0x004092e8-0x004092f2
0x004092e8	B894014100	mov     eax, offset stru_410194
0x004092ed	E9A0FDFFFF	jmp     ___CxxFrameHandler3
CnotepadApp::OnMyFileOpen_SEH:0x00409318-0x00409322
0x00409318	B8C8014100	mov     eax, offset stru_4101C8
0x0040931d	E970FDFFFF	jmp     ___CxxFrameHandler3
CMainFrame::OnApplicationLook_SEH:0x00409335-0x0040933f
0x00409335	B8F4014100	mov     eax, offset stru_4101F4
0x0040933a	E953FDFFFF	jmp     ___CxxFrameHandler3
CFileView::OnPaint_SEH:0x00409349-0x00409353
0x00409349	B820024100	mov     eax, offset stru_410220
0x0040934e	E93FFDFFFF	jmp     ___CxxFrameHandler3
CFileView::_CFileView_SEH:0x00409386-0x00409390
0x00409386	B85C024100	mov     eax, offset stru_41025C
0x0040938b	E902FDFFFF	jmp     ___CxxFrameHandler3
CClassView::OnContextMenu_SEH:0x004093a0-0x004093aa
0x004093a0	B890024100	mov     eax, offset stru_410290
0x004093a5	E9E8FCFFFF	jmp     ___CxxFrameHandler3
CClassView::_CClassView_SEH:0x004093d5-0x004093df
0x004093d5	B8CC024100	mov     eax, offset stru_4102CC
0x004093da	E9B3FCFFFF	jmp     ___CxxFrameHandler3
CPropertiesWnd::InitPropList_SEH:0x00409927-0x00409931
0x00409927	B8F0024100	mov     eax, offset stru_4102F0
0x0040992c	E961F7FFFF	jmp     ___CxxFrameHandler3
COutputList::OnContextMenu_SEH:0x00409950-0x0040995a
0x00409950	B85C064100	mov     eax, offset stru_41065C
0x00409955	E938F7FFFF	jmp     ___CxxFrameHandler3
CDocument::GetAdapter_SEH:0x00409960-0x0040996a
0x00409960	B8B4064100	mov     eax, offset stru_4106B4
0x00409965	E928F7FFFF	jmp     ___CxxFrameHandler3
CAboutDlg::_CAboutDlg_SEH:0x00409987-0x00409991
0x00409987	B8E8064100	mov     eax, offset stru_4106E8
0x0040998c	E901F7FFFF	jmp     ___CxxFrameHandler3
CAboutDlg::_scalar_deleting_destructor__SEH:0x004099b7-0x004099c1
0x004099b7	B81C074100	mov     eax, offset stru_41071C
0x004099bc	E9D1F6FFFF	jmp     ___CxxFrameHandler3
CMainFrame::OnCreate_SEH:0x004099ea-0x004099f4
0x004099ea	B858074100	mov     eax, offset stru_410758
0x004099ef	E99EF6FFFF	jmp     ___CxxFrameHandler3
CMainFrame::_CMainFrame_SEH:0x00409aee-0x00409af8
0x00409aee	B87C074100	mov     eax, offset stru_41077C
0x00409af3	E99AF5FFFF	jmp     ___CxxFrameHandler3
CMainFrame::CMainFrame_SEH:0x00409bfc-0x00409c06
0x00409bfc	B830084100	mov     eax, offset stru_410830
0x00409c01	E98CF4FFFF	jmp     ___CxxFrameHandler3
CnotepadApp::OnAppAbout_SEH:0x00409c31-0x00409c3b
0x00409c31	B814094100	mov     eax, offset stru_410914
0x00409c36	E957F4FFFF	jmp     ___CxxFrameHandler3
CnotepadApp::InitInstance_SEH:0x00409c62-0x00409c6c
0x00409c62	B858094100	mov     eax, offset stru_410958
0x00409c67	E926F4FFFF	jmp     ___CxxFrameHandler3
CClassView::OnCreate_SEH:0x00409c86-0x00409c90
0x00409c86	B88C094100	mov     eax, offset stru_41098C
0x00409c8b	E902F4FFFF	jmp     ___CxxFrameHandler3
CFileView::OnChangeVisualStyle_SEH:0x00409c98-0x00409ca2
0x00409c98	B8B8094100	mov     eax, offset stru_4109B8
0x00409c9d	E9F0F3FFFF	jmp     ___CxxFrameHandler3
_dynamic_initializer_for__theApp___SEH:0x00409cbb-0x00409cc5
0x00409cbb	B8E4094100	mov     eax, offset stru_4109E4
0x00409cc0	E9CDF3FFFF	jmp     ___CxxFrameHandler3
_dynamic_initializer_for___init_CClassViewMenuButton__:0x00409cd0-0x00409cdc
0x00409cd0	6874224100	push    offset CClassViewMenuButton__classCClassViewMenuButton
0x00409cd5	FF1508A24000	call    ds:__imp_?AfxClassInit@@YGXPAUCRuntimeClass@@@Z; AfxClassInit(CRuntimeClass *)
0x00409cdb	C3	retn
_dynamic_initializer_for__theApp__:0x00409ce0-0x00409d55
0x00409ce0	55	push    ebp
0x00409ce1	8BEC	mov     ebp, esp
0x00409ce3	64A100000000	mov     eax, large fs:0
0x00409ce9	6AFF	push    0FFFFFFFFh
0x00409ceb	68BB9C4000	push    offset _dynamic_initializer_for__theApp___SEH
0x00409cf0	50	push    eax
0x00409cf1	64892500000000	mov     large fs:0, esp
0x00409cf8	6A01	push    1
0x00409cfa	B9202A4100	mov     ecx, offset theApp
0x00409cff	FF154CA84000	call    ds:__imp_??0CWinAppEx@@QAE@H@Z; CWinAppEx::CWinAppEx(int)
0x00409d05	C745FC00000000	mov     [ebp+var_4], 0
0x00409d0c	68F8CE4000	push    offset aNotepadAppidNo; "notepad.AppID.NoVersion"
0x00409d11	B9202A4100	mov     ecx, offset theApp
0x00409d16	C705202A4100ECCF4000	mov     theApp, offset ??_7CnotepadApp@@6B@; const CnotepadApp::`vftable'
0x00409d20	C705202B410001000000	mov     dword_412B20, 1
0x00409d2a	C705CC2A41003F000000	mov     dword_412ACC, 3Fh
0x00409d34	FF1554A84000	call    ds:__imp_?SetAppID@CWinApp@@IAEXPB_W@Z; CWinApp::SetAppID(wchar_t const *)
0x00409d3a	68909D4000	push    offset _dynamic_atexit_destructor_for__theApp__; Func
0x00409d3f	E829ECFFFF	call    atexit
0x00409d44	8B4DF4	mov     ecx, [ebp+var_C]
0x00409d47	83C404	add     esp, 4
0x00409d4a	64890D00000000	mov     large fs:0, ecx
0x00409d51	8BE5	mov     esp, ebp
0x00409d53	5D	pop     ebp
0x00409d54	C3	retn
_dynamic_initializer_for__theApp__:0x00409cb0-0x00409cbb
0x00409cb0	B9202A4100	mov     ecx, offset theApp
0x00409cb5	FF2550A84000	jmp     ds:__imp_??1CWinAppEx@@UAE@XZ; CWinAppEx::~CWinAppEx(void)
_dynamic_initializer_for___afxDefaultAcceleratorDelimiter__:0x00409d60-0x00409d7c
0x00409d60	68FCEB4000	push    offset asc_40EBFC; "; "
0x00409d65	B9242B4100	mov     ecx, offset _afxDefaultAcceleratorDelimiter
0x00409d6a	FF15D0AB4000	call    ds:__imp_??0?$CStringT@_WV?$StrTraitMFC_DLL@_WV?$ChTraitsCRT@_W@ATL@@@@@ATL@@QAE@PB_W@Z; ATL::CStringT<wchar_t,StrTraitMFC_DLL<wchar_t,ATL::ChTraitsCRT<wchar_t>>>::CStringT<wchar_t,StrTraitMFC_DLL<wchar_t,ATL::ChTraitsCRT<wchar_t>>>(wchar_t const *)
0x00409d70	68A09D4000	push    offset _dynamic_atexit_destructor_for___afxDefaultAcceleratorDelimiter__; Func
0x00409d75	E8F3EBFFFF	call    atexit
0x00409d7a	59	pop     ecx
0x00409d7b	C3	retn
_dynamic_initializer_for___afxInitAppState__:0x00409d7c-0x00409d8e
0x00409d7c	68000A0000	push    0A00h
0x00409d81	6A00	push    0
0x00409d83	E884F2FFFF	call    AfxInitialize
0x00409d88	A2EC294100	mov     _afxInitAppState, al
0x00409d8d	C3	retn
_dynamic_atexit_destructor_for__theApp__:0x00409d90-0x00409d9b
0x00409d90	B9202A4100	mov     ecx, offset theApp
0x00409d95	FF2550A84000	jmp     ds:__imp_??1CWinAppEx@@UAE@XZ; CWinAppEx::~CWinAppEx(void)
_dynamic_atexit_destructor_for___afxDefaultAcceleratorDelimiter__:0x00409da0-0x00409dab
0x00409da0	B9242B4100	mov     ecx, offset _afxDefaultAcceleratorDelimiter
0x00409da5	FF25CCA24000	jmp     ds:__imp_??1?$CStringT@_WV?$StrTraitMFC_DLL@_WV?$ChTraitsCRT@_W@ATL@@@@@ATL@@QAE@XZ; ATL::CStringT<wchar_t,StrTraitMFC_DLL<wchar_t,ATL::ChTraitsCRT<wchar_t>>>::~CStringT<wchar_t,StrTraitMFC_DLL<wchar_t,ATL::ChTraitsCRT<wchar_t>>>(void)
