(0, 256, 2021740425L, '??$CopyElements@VCOleVariant@@@@YGXPAVCOleVariant@@PBV0@H@Z')
(1, 257, 2021740598L, '??$HashKey@ABUtagVARIANT@@@@YGIABUtagVARIANT@@@Z')
(2, 258, 2021752828L, '??$HashKey@PB_W@@YGIPB_W@Z')
(3, 259, 2021752918L, '??$HashKey@PBD@@YGIPBD@Z')
(4, 260, 2021752719L, '??$HashKey@VCComBSTR@ATL@@@@YGIVCComBSTR@ATL@@@Z')
(5, 261, 2021753105L, '??$SerializeElements@V?$CStringT@_WV?$StrTraitMFC_DLL@_WV?$ChTraitsCRT@_W@ATL@@@@@ATL@@@@YGXAAVCArchive@@PAV?$CStringT@_WV?$StrTraitMFC_DLL@_WV?$ChTraitsCRT@_W@ATL@@@@@ATL@@H@Z')
(6, 262, 2021753008L, '??$SerializeElements@V?$CStringT@DV?$StrTraitMFC_DLL@DV?$ChTraitsCRT@D@ATL@@@@@ATL@@@@YGXAAVCArchive@@PAV?$CStringT@DV?$StrTraitMFC_DLL@DV?$ChTraitsCRT@D@ATL@@@@@ATL@@H@Z')
(7, 263, 2021752800L, '??$SerializeElements@VCComBSTR@ATL@@@@YGXAAVCArchive@@PAVCComBSTR@ATL@@H@Z')
(8, 264, 2021740491L, '??$SerializeElements@VCOleVariant@@@@YGXAAVCArchive@@PAVCOleVariant@@H@Z')
(9, 265, 2020236234L, '??_U@YAPAXI@Z')
(10, 266, 2020236217L, '??_V@YAXPAX@Z')
(11, 267, 2019849425L, '??0?$CSimpleStringT@_W$00@ATL@@QAE@ABV?$CSimpleStringT@_W$0A@@1@@Z')
(12, 268, 2019849425L, '??0?$CSimpleStringT@_W$00@ATL@@QAE@ABV01@@Z')
(13, 269, 2019844415L, '??0?$CSimpleStringT@_W$00@ATL@@QAE@PAUIAtlStringMgr@1@@Z')
(14, 270, 2019849465L, '??0?$CSimpleStringT@_W$00@ATL@@QAE@PB_WHPAUIAtlStringMgr@1@@Z')
(15, 271, 2021951946L, '??0?$CSimpleStringT@_W$00@ATL@@QAE@PB_WPAUIAtlStringMgr@1@@Z')
(16, 272, 2021947124L, '??0?$CSimpleStringT@D$00@ATL@@QAE@ABV?$CSimpleStringT@D$0A@@1@@Z')
(17, 273, 2021947124L, '??0?$CSimpleStringT@D$00@ATL@@QAE@ABV01@@Z')
(18, 274, 2019844415L, '??0?$CSimpleStringT@D$00@ATL@@QAE@PAUIAtlStringMgr@1@@Z')
(19, 275, 2021753907L, '??0?$CSimpleStringT@D$00@ATL@@QAE@PBDHPAUIAtlStringMgr@1@@Z')
(20, 276, 2021946314L, '??0?$CSimpleStringT@D$00@ATL@@QAE@PBDPAUIAtlStringMgr@1@@Z')
(21, 277, 2020194075L, '??0?$CStringT@_WV?$StrTraitMFC_DLL@_WV?$ChTraitsCRT@_W@ATL@@@@@ATL@@QAE@_WH@Z')
(22, 278, 2021955306L, '??0?$CStringT@_WV?$StrTraitMFC_DLL@_WV?$ChTraitsCRT@_W@ATL@@@@@ATL@@QAE@ABUtagVARIANT@@@Z')
(23, 279, 2021955201L, '??0?$CStringT@_WV?$StrTraitMFC_DLL@_WV?$ChTraitsCRT@_W@ATL@@@@@ATL@@QAE@ABUtagVARIANT@@PAUIAtlStringMgr@1@@Z')
(24, 280, 2019849425L, '??0?$CStringT@_WV?$StrTraitMFC_DLL@_WV?$ChTraitsCRT@_W@ATL@@@@@ATL@@QAE@ABV01@@Z')
(25, 281, 2021952570L, '??0?$CStringT@_WV?$StrTraitMFC_DLL@_WV?$ChTraitsCRT@_W@ATL@@@@@ATL@@QAE@DH@Z')
(26, 282, 2019850347L, '??0?$CStringT@_WV?$StrTraitMFC_DLL@_WV?$ChTraitsCRT@_W@ATL@@@@@ATL@@QAE@PA_W@Z')
(27, 283, 2021605398L, '??0?$CStringT@_WV?$StrTraitMFC_DLL@_WV?$ChTraitsCRT@_W@ATL@@@@@ATL@@QAE@PAD@Z')
(28, 284, 2021605398L, '??0?$CStringT@_WV?$StrTraitMFC_DLL@_WV?$ChTraitsCRT@_W@ATL@@@@@ATL@@QAE@PAE@Z')
(29, 285, 2019849742L, '??0?$CStringT@_WV?$StrTraitMFC_DLL@_WV?$ChTraitsCRT@_W@ATL@@@@@ATL@@QAE@PAUIAtlStringMgr@1@@Z')
(30, 286, 2019850347L, '??0?$CStringT@_WV?$StrTraitMFC_DLL@_WV?$ChTraitsCRT@_W@ATL@@@@@ATL@@QAE@PB_W@Z')
(31, 287, 2019895742L, '??0?$CStringT@_WV?$StrTraitMFC_DLL@_WV?$ChTraitsCRT@_W@ATL@@@@@ATL@@QAE@PB_WH@Z')
(32, 288, 2019849572L, '??0?$CStringT@_WV?$StrTraitMFC_DLL@_WV?$ChTraitsCRT@_W@ATL@@@@@ATL@@QAE@PB_WHPAUIAtlStringMgr@1@@Z')
(33, 289, 2019849357L, '??0?$CStringT@_WV?$StrTraitMFC_DLL@_WV?$ChTraitsCRT@_W@ATL@@@@@ATL@@QAE@PB_WPAUIAtlStringMgr@1@@Z')
(34, 290, 2021605398L, '??0?$CStringT@_WV?$StrTraitMFC_DLL@_WV?$ChTraitsCRT@_W@ATL@@@@@ATL@@QAE@PBD@Z')
(35, 291, 2019895778L, '??0?$CStringT@_WV?$StrTraitMFC_DLL@_WV?$ChTraitsCRT@_W@ATL@@@@@ATL@@QAE@PBDH@Z')
(36, 292, 2021952671L, '??0?$CStringT@_WV?$StrTraitMFC_DLL@_WV?$ChTraitsCRT@_W@ATL@@@@@ATL@@QAE@PBDHPAUIAtlStringMgr@1@@Z')
(37, 293, 2021390175L, '??0?$CStringT@_WV?$StrTraitMFC_DLL@_WV?$ChTraitsCRT@_W@ATL@@@@@ATL@@QAE@PBDPAUIAtlStringMgr@1@@Z')
(38, 294, 2021952460L, '??0?$CStringT@_WV?$StrTraitMFC_DLL@_WV?$ChTraitsCRT@_W@ATL@@@@@ATL@@QAE@PBE@Z')
(39, 295, 2021952516L, '??0?$CStringT@_WV?$StrTraitMFC_DLL@_WV?$ChTraitsCRT@_W@ATL@@@@@ATL@@QAE@PBEPAUIAtlStringMgr@1@@Z')
(40, 296, 2019844462L, '??0?$CStringT@_WV?$StrTraitMFC_DLL@_WV?$ChTraitsCRT@_W@ATL@@@@@ATL@@QAE@XZ')
(41, 297, 2021947565L, '??0?$CStringT@DV?$StrTraitMFC_DLL@DV?$ChTraitsCRT@D@ATL@@@@@ATL@@QAE@_WH@Z')
(42, 298, 2021954472L, '??0?$CStringT@DV?$StrTraitMFC_DLL@DV?$ChTraitsCRT@D@ATL@@@@@ATL@@QAE@ABUtagVARIANT@@@Z')
(43, 299, 2021954367L, '??0?$CStringT@DV?$StrTraitMFC_DLL@DV?$ChTraitsCRT@D@ATL@@@@@ATL@@QAE@ABUtagVARIANT@@PAUIAtlStringMgr@1@@Z')
(44, 300, 2021947124L, '??0?$CStringT@DV?$StrTraitMFC_DLL@DV?$ChTraitsCRT@D@ATL@@@@@ATL@@QAE@ABV01@@Z')
(45, 301, 2021947480L, '??0?$CStringT@DV?$StrTraitMFC_DLL@DV?$ChTraitsCRT@D@ATL@@@@@ATL@@QAE@DH@Z')
(46, 302, 2021224426L, '??0?$CStringT@DV?$StrTraitMFC_DLL@DV?$ChTraitsCRT@D@ATL@@@@@ATL@@QAE@PA_W@Z')
(47, 303, 2021947356L, '??0?$CStringT@DV?$StrTraitMFC_DLL@DV?$ChTraitsCRT@D@ATL@@@@@ATL@@QAE@PAD@Z')
(48, 304, 2021947356L, '??0?$CStringT@DV?$StrTraitMFC_DLL@DV?$ChTraitsCRT@D@ATL@@@@@ATL@@QAE@PAE@Z')
(49, 305, 2019849742L, '??0?$CStringT@DV?$StrTraitMFC_DLL@DV?$ChTraitsCRT@D@ATL@@@@@ATL@@QAE@PAUIAtlStringMgr@1@@Z')
(50, 306, 2021224426L, '??0?$CStringT@DV?$StrTraitMFC_DLL@DV?$ChTraitsCRT@D@ATL@@@@@ATL@@QAE@PB_W@Z')
(51, 307, 2021753785L, '??0?$CStringT@DV?$StrTraitMFC_DLL@DV?$ChTraitsCRT@D@ATL@@@@@ATL@@QAE@PB_WH@Z')
(52, 308, 2021947881L, '??0?$CStringT@DV?$StrTraitMFC_DLL@DV?$ChTraitsCRT@D@ATL@@@@@ATL@@QAE@PB_WHPAUIAtlStringMgr@1@@Z')
(53, 309, 2021947232L, '??0?$CStringT@DV?$StrTraitMFC_DLL@DV?$ChTraitsCRT@D@ATL@@@@@ATL@@QAE@PB_WPAUIAtlStringMgr@1@@Z')
(54, 310, 2021947356L, '??0?$CStringT@DV?$StrTraitMFC_DLL@DV?$ChTraitsCRT@D@ATL@@@@@ATL@@QAE@PBD@Z')
(55, 311, 2021754011L, '??0?$CStringT@DV?$StrTraitMFC_DLL@DV?$ChTraitsCRT@D@ATL@@@@@ATL@@QAE@PBDH@Z')
(56, 312, 2021947847L, '??0?$CStringT@DV?$StrTraitMFC_DLL@DV?$ChTraitsCRT@D@ATL@@@@@ATL@@QAE@PBDHPAUIAtlStringMgr@1@@Z')
(57, 313, 2021947164L, '??0?$CStringT@DV?$StrTraitMFC_DLL@DV?$ChTraitsCRT@D@ATL@@@@@ATL@@QAE@PBDPAUIAtlStringMgr@1@@Z')
(58, 314, 2021947300L, '??0?$CStringT@DV?$StrTraitMFC_DLL@DV?$ChTraitsCRT@D@ATL@@@@@ATL@@QAE@PBE@Z')
(59, 315, 2021947426L, '??0?$CStringT@DV?$StrTraitMFC_DLL@DV?$ChTraitsCRT@D@ATL@@@@@ATL@@QAE@PBEPAUIAtlStringMgr@1@@Z')
(60, 316, 2019844462L, '??0?$CStringT@DV?$StrTraitMFC_DLL@DV?$ChTraitsCRT@D@ATL@@@@@ATL@@QAE@XZ')
(61, 317, 2021345597L, '??0_AFX_DAO_STATE@@QAE@XZ')
(62, 318, 2020738740L, '??0_AFX_THREAD_STATE@@QAE@XZ')
(63, 319, 2021305237L, '??0AFX_DDPDATA@@QAE@PAXHH0IPB_W@Z')
(64, 320, 2021531525L, '??0AFX_EXCEPTION_LINK@@QAE@XZ')
(65, 321, 2020143205L, '??0AFX_GLOBAL_DATA@@QAE@XZ')
(66, 322, 2020738600L, '??0AFX_MAINTAIN_STATE2@@QAE@PAVAFX_MODULE_STATE@@@Z')
(67, 323, 2020738898L, '??0AFX_MODULE_STATE@@QAE@HP6GJPAUHWND__@@IIJ@ZKH@Z')
(68, 324, 2020740055L, '??0AFX_MODULE_THREAD_STATE@@QAE@XZ')
(69, 325, 2021233637L, '??0CArchive@@QAE@PAVCFile@@IHPAX@Z')
(70, 326, 2021326728L, '??0CArchivePropExchange@@QAE@AAVCArchive@@@Z')
(71, 327, 2021238422L, '??0CArchiveStream@@QAE@PAVCArchive@@@Z')
(72, 328, 2021612110L, '??0CAsyncMonikerFile@@QAE@XZ')
(73, 329, 2021328566L, '??0CAsyncPropExchange@@QAE@K@Z')
(74, 330, 2021747237L, '??0CAsyncSocket@@QAE@XZ')
(75, 331, 2019853430L, '??0CAutoHideDockSite@@QAE@XZ')
(76, 332, 2019854853L, '??0CBasePane@@QAE@XZ')
(77, 333, 2019871694L, '??0CBaseTabbedPane@@QAE@H@Z')
(78, 334, 2021301434L, '??0CBlobProperty@@QAE@PAX@Z')
(79, 335, 2021466414L, '??0CBrowserControlSite@@QAE@PAVCOleControlContainer@@PAVCDHtmlDialog@@@Z')
(80, 336, 2021902575L, '??0CBrush@@QAE@HK@Z')
(81, 337, 2021902503L, '??0CBrush@@QAE@K@Z')
(82, 338, 2021902650L, '??0CBrush@@QAE@PAVCBitmap@@@Z')
(83, 339, 2021238875L, '??0CByteArray@@QAE@XZ')
(84, 340, 2021915050L, '??0CChevronOwnerDrawMenu@@QAE@XZ')
(85, 341, 2021901486L, '??0CClientDC@@QAE@PAVCWnd@@@Z')
(86, 342, 2021272555L, '??0CCmdTarget@@QAE@XZ')
(87, 343, 2021273410L, '??0CCmdUI@@QAE@XZ')
(88, 344, 2021441183L, '??0CColorDialog@@QAE@KKPAVCWnd@@@Z')
(89, 345, 2021219987L, '??0CCommandLineInfo@@QAE@XZ')
(90, 346, 2019953228L, '??0CCommandManager@@IAE@XZ')
(91, 347, 2021634277L, '??0CConnectionPoint@@QAE@XZ')
(92, 348, 2019954586L, '??0CContextMenuManager@@QAE@XZ')
(93, 349, 2021245091L, '??0CControlBar@@IAE@XZ')
(94, 350, 2021510509L, '??0CControlBarInfo@@QAE@XZ')
(95, 351, 2021574860L, '??0CControlCreationInfo@@QAE@XZ')
(96, 352, 2021287310L, '??0CControlDataSource@COleControl@@QAE@PAV1@@Z')
(97, 353, 2021946002L, '??0CControlFrameWnd@@QAE@PAVCOleControl@@@Z')
(98, 354, 2021578781L, '??0CControlSiteFactoryMgr@@QAE@XZ')
(99, 355, 2021768423L, '??0CCtrlView@@QAE@PB_WK@Z')
(100, 356, 2021352469L, '??0CDaoDatabase@@QAE@PAVCDaoWorkspace@@@Z')
(101, 357, 2021346160L, '??0CDaoException@@QAE@XZ')
(102, 358, 2021384893L, '??0CDaoFieldExchange@@QAE@IPAVCDaoRecordset@@PAX@Z')
(103, 359, 2021345753L, '??0CDaoIndexInfo@@QAE@XZ')
(104, 360, 2021364071L, '??0CDaoQueryDef@@QAE@PAVCDaoDatabase@@@Z')
(105, 361, 2021368585L, '??0CDaoRecordset@@QAE@PAVCDaoDatabase@@@Z')
(106, 362, 2021390461L, '??0CDaoRecordView@@IAE@I@Z')
(107, 363, 2021390340L, '??0CDaoRecordView@@IAE@PB_W@Z')
(108, 364, 2021345928L, '??0CDaoRelationInfo@@QAE@XZ')
(109, 365, 2021359352L, '??0CDaoTableDef@@QAE@PAVCDaoDatabase@@@Z')
(110, 366, 2021347212L, '??0CDaoWorkspace@@QAE@XZ')
(111, 367, 2021394920L, '??0CDatabase@@QAE@XZ')
(112, 368, 2021602348L, '??0CDataBoundProperty@@QAE@PAV0@JG@Z')
(113, 369, 2021844849L, '??0CDataExchange@@QAE@PAVCWnd@@H@Z')
(114, 370, 2019980497L, '??0CDataRecoveryHandler@@QAE@KH@Z')
(115, 371, 2021594617L, '??0CDataSourceControl@@QAE@PAVCOleControlSite@@@Z')
(116, 372, 2021393918L, '??0CDBException@@QAE@F@Z')
(117, 373, 2021431033L, '??0CDBVariant@@QAE@XZ')
(118, 374, 2021896882L, '??0CDC@@QAE@XZ')
(119, 375, 2021464481L, '??0CDHtmlControlSink@@QAE@PAUIUnknown@@PAVCDHtmlSinkHandler@@PB_WK@Z')
(120, 376, 2021464391L, '??0CDHtmlControlSink@@QAE@XZ')
(121, 377, 2021467286L, '??0CDHtmlDialog@@QAE@IIPAVCWnd@@@Z')
(122, 378, 2021467478L, '??0CDHtmlDialog@@QAE@PB_W0PAVCWnd@@@Z')
(123, 379, 2021467072L, '??0CDHtmlDialog@@QAE@XZ')
(124, 380, 2021465540L, '??0CDHtmlElementEventSink@@QAE@PAVCDHtmlEventSink@@PAUIDispatch@@@Z')
(125, 381, 2021443720L, '??0CDialog@@QAE@IPAVCWnd@@@Z')
(126, 382, 2021443654L, '??0CDialog@@QAE@PB_WPAVCWnd@@@Z')
(127, 383, 2021442498L, '??0CDialog@@QAE@XZ')
(128, 384, 2021251397L, '??0CDialogBar@@QAE@XZ')
(129, 385, 2020001594L, '??0CDialogEx@@QAE@IPAVCWnd@@@Z')
(130, 386, 2020001684L, '??0CDialogEx@@QAE@PB_WPAVCWnd@@@Z')
(131, 387, 2020001476L, '??0CDialogEx@@QAE@XZ')
(132, 388, 2020003144L, '??0CDialogImpl@@IAE@AAVCWnd@@@Z')
(133, 389, 2021493568L, '??0CDialogTemplate@@QAE@PAX@Z')
(134, 390, 2021493503L, '??0CDialogTemplate@@QAE@PBUDLGTEMPLATE@@@Z')
(135, 391, 2021664151L, '??0CDocItem@@IAE@XZ')
(136, 392, 2020005310L, '??0CDockablePane@@QAE@XZ')
(137, 393, 2020026211L, '??0CDockablePaneAdapter@@QAE@XZ')
(138, 394, 2021252097L, '??0CDockBar@@QAE@H@Z')
(139, 395, 2021505817L, '??0CDockContext@@QAE@PAVCControlBar@@@Z')
(140, 396, 2020027285L, '??0CDockingManager@@QAE@XZ')
(141, 397, 2020052644L, '??0CDockingPanesRow@@QAE@PAVCDockSite@@HH@Z')
(142, 398, 2020066683L, '??0CDockSite@@QAE@XZ')
(143, 399, 2021512943L, '??0CDockState@@QAE@XZ')
(144, 400, 2021518536L, '??0CDocManager@@QAE@XZ')
(145, 401, 2021668348L, '??0CDocObjectServer@@QAE@PAVCOleServerDoc@@PAUIOleDocumentSite@@@Z')
(146, 402, 2021673431L, '??0CDocObjectServerItem@@IAE@PAVCOleServerDoc@@H@Z')
(147, 403, 2021527717L, '??0CDocTemplate@@IAE@IPAUCRuntimeClass@@00@Z')
(148, 404, 2021495133L, '??0CDocument@@QAE@XZ')
(149, 405, 2020078166L, '??0CDrawingManager@@QAE@AAVCDC@@@Z')
(150, 406, 2021529641L, '??0CDumpContext@@QAE@PAVCFile@@@Z')
(151, 407, 2021240031L, '??0CDWordArray@@QAE@XZ')
(152, 408, 2021936113L, '??0CDynLinkLibrary@@QAE@AAUAFX_EXTENSION_MODULE@@H@Z')
(153, 409, 2021936282L, '??0CDynLinkLibrary@@QAE@PAUHINSTANCE__@@0@Z')
(154, 410, 2021768835L, '??0CEditView@@QAE@XZ')
(155, 411, 2021681845L, '??0CEnumArray@@QAE@IPBXIH@Z')
(156, 412, 2021635648L, '??0CEnumConnections@@QAE@PBXI@Z')
(157, 413, 2021636285L, '??0CEnumConnPoints@@QAE@PBXI@Z')
(158, 414, 2021658736L, '??0CEnumFormatEtc@@QAE@XZ')
(159, 415, 2021568619L, '??0CEvent@@QAE@HHPB_WPAU_SECURITY_ATTRIBUTES@@@Z')
(160, 416, 2021531303L, '??0CException@@QAE@H@Z')
(161, 417, 2021531288L, '??0CException@@QAE@XZ')
(162, 418, 2021415265L, '??0CFieldExchange@@QAE@IPAVCRecordset@@PAX@Z')
(163, 419, 2021532069L, '??0CFile@@QAE@PAX@Z')
(164, 420, 2021532122L, '??0CFile@@QAE@PB_WI@Z')
(165, 421, 2021531971L, '??0CFile@@QAE@XZ')
(166, 422, 2021448951L, '??0CFileDialog@@QAE@HPB_W0K0PAVCWnd@@KH@Z')
(167, 423, 2021536561L, '??0CFileFind@@QAE@XZ')
(168, 424, 2021462418L, '??0CFindReplaceDialog@@QAE@XZ')
(169, 425, 2021548564L, '??0CFixedAlloc@@QAE@II@Z')
(170, 426, 2021548375L, '??0CFixedAllocNoSync@@QAE@II@Z')
(171, 427, 2021460956L, '??0CFontDialog@@QAE@ABU_charformatw@@KPAVCDC@@PAVCWnd@@@Z')
(172, 428, 2021460722L, '??0CFontDialog@@QAE@PAUtagLOGFONTW@@KPAVCDC@@PAVCWnd@@@Z')
(173, 429, 2021291412L, '??0CFontHolder@@QAE@PAUIPropertyNotifySink@@@Z')
(174, 430, 2021775103L, '??0CFormView@@IAE@I@Z')
(175, 431, 2021774994L, '??0CFormView@@IAE@PB_W@Z')
(176, 432, 2020116764L, '??0CFrameImpl@@QAE@PAVCFrameWnd@@@Z')
(177, 433, 2021879883L, '??0CFrameWnd@@QAE@XZ')
(178, 434, 2020132383L, '??0CFrameWndEx@@IAE@XZ')
(179, 435, 2021554115L, '??0CFtpConnection@@QAE@PAVCInternetSession@@PAXPB_WK@Z')
(180, 436, 2021554258L, '??0CFtpConnection@@QAE@PAVCInternetSession@@PB_W11KGH@Z')
(181, 437, 2021558348L, '??0CFtpFileFind@@QAE@PAVCFtpConnection@@K@Z')
(182, 438, 2020138604L, '??0CFullScreenImpl@@QAE@PAVCFrameImpl@@@Z')
(183, 439, 2020151395L, '??0CGlobalUtils@@QAE@XZ')
(184, 440, 2021555486L, '??0CGopherConnection@@QAE@PAVCInternetSession@@PAXPB_WK@Z')
(185, 441, 2021555372L, '??0CGopherConnection@@QAE@PAVCInternetSession@@PB_W11KG@Z')
(186, 442, 2021558237L, '??0CGopherFile@@IAE@PAX0PB_WKK@Z')
(187, 443, 2021558126L, '??0CGopherFile@@IAE@PAXAAVCGopherLocator@@PAVCGopherConnection@@@Z')
(188, 444, 2021559167L, '??0CGopherFileFind@@QAE@PAVCGopherConnection@@K@Z')
(189, 445, 2021559895L, '??0CGopherLocator@@AAE@PB_WK@Z')
(190, 446, 2021908866L, '??0CHandleMap@@QAE@PAUCRuntimeClass@@P6GXPAVCObject@@@Z2IH@Z')
(191, 447, 2021777252L, '??0CHtmlControlSite@@QAE@PAVCOleControlContainer@@@Z')
(192, 448, 2021783713L, '??0CHtmlEditCtrl@@QAE@XZ')
(193, 449, 2021784998L, '??0CHtmlEditDoc@@QAE@XZ')
(194, 450, 2021784378L, '??0CHtmlEditView@@QAE@XZ')
(195, 451, 2021776676L, '??0CHtmlView@@IAE@XZ')
(196, 452, 2021556221L, '??0CHttpConnection@@QAE@PAVCInternetSession@@PAXPB_WK@Z')
(197, 453, 2021556353L, '??0CHttpConnection@@QAE@PAVCInternetSession@@PB_WG11K@Z')
(198, 454, 2021556495L, '??0CHttpConnection@@QAE@PAVCInternetSession@@PB_WKG11K@Z')
(199, 455, 2021556821L, '??0CHttpFile@@IAE@PAX0PB_W11K@Z')
(200, 456, 2021556954L, '??0CHttpFile@@IAE@PAXPB_W1PAVCHttpConnection@@@Z')
(201, 457, 2021861123L, '??0CImageList@@QAE@XZ')
(202, 458, 2021553727L, '??0CInternetConnection@@QAE@PAVCInternetSession@@PB_WGK@Z')
(203, 459, 2021560369L, '??0CInternetException@@QAE@K@Z')
(204, 460, 2021551539L, '??0CInternetFile@@IAE@PAX0PB_W1KH@Z')
(205, 461, 2021551704L, '??0CInternetFile@@IAE@PAXPB_WPAVCInternetConnection@@H@Z')
(206, 462, 2021550137L, '??0CInternetSession@@QAE@PB_WKK00K@Z')
(207, 463, 2020171646L, '??0CKeyboardManager@@QAE@XZ')
(208, 464, 2021415200L, '??0CLongBinary@@QAE@XZ')
(209, 465, 2021563356L, '??0CMapPtrToPtr@@QAE@H@Z')
(210, 466, 2021563935L, '??0CMapPtrToWord@@QAE@H@Z')
(211, 467, 2021564442L, '??0CMapStringToOb@@QAE@H@Z')
(212, 468, 2021565410L, '??0CMapStringToPtr@@QAE@H@Z')
(213, 469, 2021565754L, '??0CMapStringToString@@QAE@H@Z')
(214, 470, 2021567196L, '??0CMapWordToOb@@QAE@H@Z')
(215, 471, 2021567806L, '??0CMapWordToPtr@@QAE@H@Z')
(216, 472, 2021911112L, '??0CMDIChildWnd@@QAE@XZ')
(217, 473, 2020215505L, '??0CMDIChildWndEx@@IAE@XZ')
(218, 474, 2020194674L, '??0CMDIClientAreaWnd@@QAE@XZ')
(219, 475, 2021909508L, '??0CMDIFrameWnd@@QAE@XZ')
(220, 476, 2020227190L, '??0CMDIFrameWndEx@@IAE@XZ')
(221, 477, 2020194420L, '??0CMDITabInfo@@QAE@XZ')
(222, 478, 2020142603L, '??0CMemDC@@QAE@AAVCDC@@ABVCRect@@@Z')
(223, 479, 2020142213L, '??0CMemDC@@QAE@AAVCDC@@PAVCWnd@@@Z')
(224, 480, 2021541414L, '??0CMemFile@@QAE@I@Z')
(225, 481, 2021541472L, '??0CMemFile@@QAE@PAEII@Z')
(226, 482, 2020250129L, '??0CMenuHash@@QAE@XZ')
(227, 483, 2020253117L, '??0CMenuTearOffManager@@QAE@XZ')
(228, 484, 2021434365L, '??0CMetaFileDC@@QAE@XZ')
(229, 485, 2019843413L, '??0CMFCAcceleratorKey@@QAE@PAUtagACCEL@@@Z')
(230, 486, 2019843481L, '??0CMFCAcceleratorKey@@QAE@XZ')
(231, 487, 2019845407L, '??0CMFCAcceleratorKeyAssignCtrl@@QAE@XZ')
(232, 488, 2019846580L, '??0CMFCAutoHideBar@@QAE@XZ')
(233, 489, 2019850732L, '??0CMFCAutoHideButton@@QAE@XZ')
(234, 490, 2019878458L, '??0CMFCBaseTabCtrl@@QAE@XZ')
(235, 491, 2019896882L, '??0CMFCBaseToolBar@@QAE@XZ')
(236, 492, 2021024818L, '??0CMFCBaseVisualManager@@QAE@XZ')
(237, 493, 2019897212L, '??0CMFCButton@@QAE@XZ')
(238, 494, 2019907566L, '??0CMFCCaptionBar@@QAE@XZ')
(239, 495, 2019917801L, '??0CMFCCaptionButton@@QAE@IH@Z')
(240, 496, 2019917707L, '??0CMFCCaptionButton@@QAE@XZ')
(241, 497, 2019918072L, '??0CMFCCaptionButtonEx@@QAE@I@Z')
(242, 498, 2019918168L, '??0CMFCCaptionMenuButton@@QAE@IH@Z')
(243, 499, 2019918132L, '??0CMFCCaptionMenuButton@@QAE@XZ')
(244, 500, 2019918579L, '??0CMFCCmdUsageCount@@QAE@XZ')
(245, 501, 2019923062L, '??0CMFCColorBar@@IAE@AAV0@I@Z')
(246, 502, 2019922163L, '??0CMFCColorBar@@IAE@ABV?$CArray@KK@@KPB_W11AAV?$CList@KK@@HHHKIPAVCMFCColorButton@@@Z')
(247, 503, 2019922632L, '??0CMFCColorBar@@IAE@ABV?$CArray@KK@@KPB_W11AAV?$CList@KK@@HKIPAVCMFCRibbonColorButton@@@Z')
(248, 504, 2019921837L, '??0CMFCColorBar@@QAE@XZ')
(249, 505, 2019926751L, '??0CMFCColorBarCmdUI@@QAE@XZ')
(250, 506, 2019932861L, '??0CMFCColorButton@@QAE@XZ')
(251, 507, 2019936158L, '??0CMFCColorDialog@@QAE@KKPAVCWnd@@PAUHPALETTE__@@@Z')
(252, 508, 2019939940L, '??0CMFCColorMenuButton@@QAE@IPB_WPAVCPalette@@@Z')
(253, 509, 2019939774L, '??0CMFCColorMenuButton@@QAE@XZ')
(254, 510, 2019944500L, '??0CMFCColorPickerCtrl@@QAE@XZ')
(255, 511, 2019952394L, '??0CMFCColorPropertySheet@@QAE@IPAVCWnd@@I@Z')
(256, 512, 2019952486L, '??0CMFCColorPropertySheet@@QAE@PB_WPAVCWnd@@I@Z')
(257, 513, 2019959133L, '??0CMFCControlBarImpl@@QAE@PAVCPane@@@Z')
(258, 514, 2019961608L, '??0CMFCControlRenderer@@QAE@XZ')
(259, 515, 2019961218L, '??0CMFCControlRendererInfo@@QAE@ABV0@@Z')
(260, 516, 2019960574L, '??0CMFCControlRendererInfo@@QAE@IABVCRect@@000@Z')
(261, 517, 2019960884L, '??0CMFCControlRendererInfo@@QAE@IKABVCRect@@000H@Z')
(262, 518, 2019960730L, '??0CMFCControlRendererInfo@@QAE@PB_WABVCRect@@111@Z')
(263, 519, 2019961052L, '??0CMFCControlRendererInfo@@QAE@PB_WKABVCRect@@111H@Z')
(264, 520, 2019960490L, '??0CMFCControlRendererInfo@@QAE@XZ')
(265, 521, 2019970128L, '??0CMFCCustomColorsPropertyPage@@QAE@XZ')
(266, 522, 2019972767L, '??0CMFCCustomizeButton@@QAE@HABV?$CStringT@_WV?$StrTraitMFC_DLL@_WV?$ChTraitsCRT@_W@ATL@@@@@ATL@@@Z')
(267, 523, 2019972653L, '??0CMFCCustomizeButton@@QAE@XZ')
(268, 524, 2019977086L, '??0CMFCCustomizeMenuButton@@QAE@IPAUHMENU__@@HPB_WH@Z')
(269, 525, 2019977000L, '??0CMFCCustomizeMenuButton@@QAE@XZ')
(270, 526, 2019990609L, '??0CMFCDesktopAlertDialog@@QAE@XZ')
(271, 527, 2019994218L, '??0CMFCDesktopAlertWnd@@QAE@XZ')
(272, 528, 2020074040L, '??0CMFCDragFrameImpl@@QAE@XZ')
(273, 529, 2020102518L, '??0CMFCDropDownFrame@@QAE@XZ')
(274, 530, 2020099304L, '??0CMFCDropDownListBox@@QAE@PAVCMFCRibbonComboBox@@@Z')
(275, 531, 2020099220L, '??0CMFCDropDownListBox@@QAE@PAVCWnd@@@Z')
(276, 532, 2020099108L, '??0CMFCDropDownListBox@@QAE@XZ')
(277, 533, 2020104980L, '??0CMFCDropDownToolbarButton@@QAE@PB_WPAVCMFCDropDownToolBar@@@Z')
(278, 534, 2020104864L, '??0CMFCDropDownToolbarButton@@QAE@XZ')
(279, 535, 2020108096L, '??0CMFCEditBrowseCtrl@@QAE@XZ')
(280, 536, 2020113443L, '??0CMFCFontComboBox@@QAE@XZ')
(281, 537, 2020156113L, '??0CMFCHeaderCtrl@@QAE@XZ')
(282, 538, 2020159415L, '??0CMFCImageEditorDialog@@QAE@PAVCBitmap@@PAVCWnd@@H@Z')
(283, 539, 2020163400L, '??0CMFCImagePaintArea@@QAE@PAVCMFCImageEditorDialog@@@Z')
(284, 540, 2020174720L, '??0CMFCKeyMapDialog@@QAE@PAVCFrameWnd@@H@Z')
(285, 541, 2020182514L, '??0CMFCLinkCtrl@@QAE@XZ')
(286, 542, 2020180967L, '??0CMFCListCtrl@@QAE@XZ')
(287, 543, 2020184598L, '??0CMFCMaskedEdit@@QAE@XZ')
(288, 544, 2020237403L, '??0CMFCMenuBar@@QAE@XZ')
(289, 545, 2020248134L, '??0CMFCMenuButton@@QAE@XZ')
(290, 546, 2020257449L, '??0CMFCMousePropertyPage@@QAE@XZ')
(291, 547, 2020277030L, '??0CMFCOutlookBar@@QAE@XZ')
(292, 548, 2020280457L, '??0CMFCOutlookBarPane@@QAE@XZ')
(293, 549, 2020288987L, '??0CMFCOutlookBarPaneAdapter@@QAE@XZ')
(294, 550, 2020289155L, '??0CMFCOutlookBarPaneButton@@QAE@XZ')
(295, 551, 2020293247L, '??0CMFCOutlookBarTabCtrl@@QAE@XZ')
(296, 552, 2020291985L, '??0CMFCOutlookBarToolBar@@QAE@PAVCMFCOutlookBarTabCtrl@@@Z')
(297, 553, 2020372617L, '??0CMFCPopupMenu@@IAE@PAVCMFCToolBarsMenuPropertyPage@@PB_W@Z')
(298, 554, 2020372211L, '??0CMFCPopupMenu@@QAE@XZ')
(299, 555, 2020396159L, '??0CMFCPopupMenuBar@@QAE@XZ')
(300, 556, 2020422732L, '??0CMFCPropertyGridColorProperty@@QAE@ABV?$CStringT@_WV?$StrTraitMFC_DLL@_WV?$ChTraitsCRT@_W@ATL@@@@@ATL@@ABKPAVCPalette@@PB_WK@Z')
(301, 557, 2020426468L, '??0CMFCPropertyGridCtrl@@QAE@XZ')
(302, 558, 2020424748L, '??0CMFCPropertyGridFileProperty@@QAE@ABV?$CStringT@_WV?$StrTraitMFC_DLL@_WV?$ChTraitsCRT@_W@ATL@@@@@ATL@@0KPB_W@Z')
(303, 559, 2020424930L, '??0CMFCPropertyGridFileProperty@@QAE@ABV?$CStringT@_WV?$StrTraitMFC_DLL@_WV?$ChTraitsCRT@_W@ATL@@@@@ATL@@H0PB_WK11K@Z')
(304, 560, 2020425663L, '??0CMFCPropertyGridFontProperty@@QAE@ABV?$CStringT@_WV?$StrTraitMFC_DLL@_WV?$ChTraitsCRT@_W@ATL@@@@@ATL@@AAUtagLOGFONTW@@KPB_WKK@Z')
(305, 561, 2020411551L, '??0CMFCPropertyGridProperty@@QAE@ABV?$CStringT@_WV?$StrTraitMFC_DLL@_WV?$ChTraitsCRT@_W@ATL@@@@@ATL@@ABVCOleVariant@@PB_WK222@Z')
(306, 562, 2020411879L, '??0CMFCPropertyGridProperty@@QAE@ABV?$CStringT@_WV?$StrTraitMFC_DLL@_WV?$ChTraitsCRT@_W@ATL@@@@@ATL@@KH@Z')
(307, 563, 2020447696L, '??0CMFCPropertyGridToolTipCtrl@@QAE@XZ')
(308, 564, 2020449891L, '??0CMFCPropertyPage@@QAE@II@Z')
(309, 565, 2020449953L, '??0CMFCPropertyPage@@QAE@PB_WI@Z')
(310, 566, 2020449804L, '??0CMFCPropertyPage@@QAE@XZ')
(311, 567, 2020453465L, '??0CMFCPropertySheet@@QAE@IPAVCWnd@@I@Z')
(312, 568, 2020453663L, '??0CMFCPropertySheet@@QAE@PB_WPAVCWnd@@I@Z')
(313, 569, 2020453190L, '??0CMFCPropertySheet@@QAE@XZ')
(314, 570, 2020452762L, '??0CMFCPropertySheetCategoryInfo@@QAE@PB_WHHPBV0@AAVCMFCPropertySheet@@@Z')
(315, 571, 2020452424L, '??0CMFCPropertySheetTabCtrl@@AAE@XZ')
(316, 572, 2020451462L, '??0CMFCProperySheetListBox@@AAE@XZ')
(317, 573, 2020460470L, '??0CMFCReBar@@QAE@XZ')
(318, 574, 2020469716L, '??0CMFCRibbonBar@@QAE@H@Z')
(319, 575, 2019864653L, '??0CMFCRibbonBaseElement@@QAE@XZ')
(320, 576, 2020504824L, '??0CMFCRibbonButton@@QAE@IPB_WHHH@Z')
(321, 577, 2020505078L, '??0CMFCRibbonButton@@QAE@IPB_WPAUHICON__@@H1HH@Z')
(322, 578, 2020504638L, '??0CMFCRibbonButton@@QAE@XZ')
(323, 579, 2020520651L, '??0CMFCRibbonButtonsGroup@@QAE@PAVCMFCRibbonBaseElement@@@Z')
(324, 580, 2020520487L, '??0CMFCRibbonButtonsGroup@@QAE@XZ')
(325, 581, 2020467044L, '??0CMFCRibbonCaptionButton@@IAE@IPAUHWND__@@@Z')
(326, 582, 2020527260L, '??0CMFCRibbonCategory@@IAE@PAVCMFCRibbonBar@@PB_WIIVCSize@@2@Z')
(327, 583, 2020526968L, '??0CMFCRibbonCategory@@IAE@XZ')
(328, 584, 2020537552L, '??0CMFCRibbonCheckBox@@QAE@IPB_W@Z')
(329, 585, 2020537482L, '??0CMFCRibbonCheckBox@@QAE@XZ')
(330, 586, 2020466555L, '??0CMFCRibbonCmdUI@@QAE@XZ')
(331, 587, 2020552344L, '??0CMFCRibbonColorButton@@QAE@IPB_WHHHK@Z')
(332, 588, 2020552067L, '??0CMFCRibbonColorButton@@QAE@IPB_WHK@Z')
(333, 589, 2020551768L, '??0CMFCRibbonColorButton@@QAE@XZ')
(334, 590, 2020557444L, '??0CMFCRibbonComboBox@@IAE@XZ')
(335, 591, 2020557313L, '??0CMFCRibbonComboBox@@QAE@IHHPB_WH@Z')
(336, 592, 2020562791L, '??0CMFCRibbonCommandsListBox@@QAE@PAVCMFCRibbonBar@@HH@Z')
(337, 593, 2020467310L, '??0CMFCRibbonContextCaption@@IAE@PB_WIW4AFX_RibbonCategoryColor@@@Z')
(338, 594, 2020467393L, '??0CMFCRibbonContextCaption@@IAE@XZ')
(339, 595, 2020568919L, '??0CMFCRibbonCustomizeDialog@@QAE@PAVCWnd@@PAVCMFCRibbonBar@@@Z')
(340, 596, 2020569207L, '??0CMFCRibbonCustomizePropertyPage@@QAE@PAVCMFCRibbonBar@@@Z')
(341, 597, 2020646311L, '??0CMFCRibbonDefaultPanelButton@@QAE@PAVCMFCRibbonPanel@@@Z')
(342, 598, 2020573311L, '??0CMFCRibbonEdit@@IAE@XZ')
(343, 599, 2020573160L, '??0CMFCRibbonEdit@@QAE@IHPB_WH@Z')
(344, 600, 2020560987L, '??0CMFCRibbonFontComboBox@@IAE@XZ')
(345, 601, 2020560833L, '??0CMFCRibbonFontComboBox@@QAE@IHEEH@Z')
(346, 602, 2020636431L, '??0CMFCRibbonGallery@@QAE@IPB_WHHAAVCMFCToolBarImages@@@Z')
(347, 603, 2020636685L, '??0CMFCRibbonGallery@@QAE@IPB_WHHIH@Z')
(348, 604, 2020637052L, '??0CMFCRibbonGallery@@QAE@IPB_WHHVCSize@@HH@Z')
(349, 605, 2020636191L, '??0CMFCRibbonGallery@@QAE@XZ')
(350, 606, 2020634493L, '??0CMFCRibbonGalleryIcon@@QAE@PAVCMFCRibbonGallery@@H@Z')
(351, 607, 2020645005L, '??0CMFCRibbonGalleryMenuButton@@IAE@XZ')
(352, 608, 2020645111L, '??0CMFCRibbonGalleryMenuButton@@QAE@IHPB_WAAVCMFCToolBarImages@@@Z')
(353, 609, 2020645207L, '??0CMFCRibbonGalleryMenuButton@@QAE@IHPB_WIH@Z')
(354, 610, 2020619820L, '??0CMFCRibbonKeyboardCustomizeDialog@@QAE@PAVCMFCRibbonBar@@PAVCWnd@@@Z')
(355, 611, 2020623842L, '??0CMFCRibbonKeyTip@@QAE@PAVCMFCRibbonBaseElement@@H@Z')
(356, 612, 2020625066L, '??0CMFCRibbonLabel@@IAE@XZ')
(357, 613, 2020625136L, '??0CMFCRibbonLabel@@QAE@PB_WH@Z')
(358, 615, 2020626400L, '??0CMFCRibbonLinkCtrl@@QAE@IPB_W0@Z')
(359, 616, 2020626320L, '??0CMFCRibbonLinkCtrl@@QAE@XZ')
(360, 617, 2020628773L, '??0CMFCRibbonMainPanel@@QAE@XZ')
(361, 618, 2020632336L, '??0CMFCRibbonMainPanelButton@@QAE@IPB_WH@Z')
(362, 619, 2020632380L, '??0CMFCRibbonMainPanelButton@@QAE@IPB_WPAUHICON__@@@Z')
(363, 620, 2020632266L, '??0CMFCRibbonMainPanelButton@@QAE@XZ')
(364, 621, 2020632679L, '??0CMFCRibbonMiniToolBar@@QAE@XZ')
(365, 622, 2020647785L, '??0CMFCRibbonPanel@@IAE@PAVCMFCRibbonGallery@@@Z')
(366, 623, 2020647510L, '??0CMFCRibbonPanel@@IAE@PB_WPAUHICON__@@@Z')
(367, 624, 2020682917L, '??0CMFCRibbonPanelMenu@@IAE@XZ')
(368, 625, 2020682601L, '??0CMFCRibbonPanelMenu@@QAE@PAVCMFCRibbonBar@@ABV?$CArray@PAVCMFCRibbonBaseElement@@PAV1@@@H@Z')
(369, 626, 2020682843L, '??0CMFCRibbonPanelMenu@@QAE@PAVCMFCRibbonCategory@@VCSize@@@Z')
(370, 627, 2020682675L, '??0CMFCRibbonPanelMenu@@QAE@PAVCMFCRibbonGallery@@@Z')
(371, 628, 2020682494L, '??0CMFCRibbonPanelMenu@@QAE@PAVCMFCRibbonPanel@@@Z')
(372, 629, 2020672834L, '??0CMFCRibbonPanelMenuBar@@IAE@XZ')
(373, 630, 2020671801L, '??0CMFCRibbonPanelMenuBar@@QAE@PAVCMFCRibbonBar@@ABV?$CArray@PAVCMFCRibbonBaseElement@@PAV1@@@H@Z')
(374, 631, 2020672248L, '??0CMFCRibbonPanelMenuBar@@QAE@PAVCMFCRibbonCategory@@VCSize@@@Z')
(375, 632, 2020672002L, '??0CMFCRibbonPanelMenuBar@@QAE@PAVCMFCRibbonGallery@@@Z')
(376, 633, 2020671464L, '??0CMFCRibbonPanelMenuBar@@QAE@PAVCMFCRibbonPanel@@@Z')
(377, 634, 2020683803L, '??0CMFCRibbonProgressBar@@QAE@IHH@Z')
(378, 635, 2020683726L, '??0CMFCRibbonProgressBar@@QAE@XZ')
(379, 636, 2020686577L, '??0CMFCRibbonQuickAccessToolBar@@QAE@XZ')
(380, 637, 2020684894L, '??0CMFCRibbonQuickAccessToolBarDefaultState@@QAE@XZ')
(381, 638, 2020578435L, '??0CMFCRibbonRichEditCtrl@@QAE@AAVCMFCRibbonEdit@@@Z')
(382, 639, 2019863874L, '??0CMFCRibbonSeparator@@QAE@H@Z')
(383, 640, 2020688970L, '??0CMFCRibbonSlider@@QAE@IH@Z')
(384, 641, 2020688795L, '??0CMFCRibbonSlider@@QAE@XZ')
(385, 642, 2020692454L, '??0CMFCRibbonStatusBar@@QAE@XZ')
(386, 643, 2020701170L, '??0CMFCRibbonStatusBarPane@@QAE@IPB_WHPAUHICON__@@0@Z')
(387, 644, 2020701432L, '??0CMFCRibbonStatusBarPane@@QAE@IPB_WIHKPAUHICON__@@H@Z')
(388, 645, 2020701306L, '??0CMFCRibbonStatusBarPane@@QAE@IPB_WPAUHBITMAP__@@HKPAUHICON__@@H@Z')
(389, 646, 2020701048L, '??0CMFCRibbonStatusBarPane@@QAE@XZ')
(390, 648, 2020704413L, '??0CMFCRibbonUndoButton@@QAE@IPB_WHH@Z')
(391, 649, 2020704589L, '??0CMFCRibbonUndoButton@@QAE@IPB_WPAUHICON__@@@Z')
(392, 650, 2020704222L, '??0CMFCRibbonUndoButton@@QAE@XZ')
(393, 651, 2019965702L, '??0CMFCShadowRenderer@@QAE@XZ')
(394, 652, 2020710126L, '??0CMFCShellListCtrl@@QAE@XZ')
(395, 653, 2020717867L, '??0CMFCShellTreeCtrl@@QAE@XZ')
(396, 654, 2020722919L, '??0CMFCShowAllButton@@QAE@XZ')
(397, 655, 2020735297L, '??0CMFCSpinButtonCtrl@@QAE@XZ')
(398, 656, 2020737295L, '??0CMFCStandardColorsPropertyPage@@QAE@XZ')
(399, 657, 2020741985L, '??0CMFCStatusBar@@QAE@XZ')
(400, 658, 2020751306L, '??0CMFCTabCtrl@@QAE@XZ')
(401, 659, 2020794665L, '??0CMFCTasksPane@@QAE@XZ')
(402, 660, 2020819003L, '??0CMFCTasksPaneFrameWnd@@QAE@XZ')
(403, 661, 2020822397L, '??0CMFCToolBar@@QAE@XZ')
(404, 662, 2020868315L, '??0CMFCToolBarButton@@QAE@IHPB_WHH@Z')
(405, 663, 2020868243L, '??0CMFCToolBarButton@@QAE@XZ')
(406, 664, 2020876048L, '??0CMFCToolBarButtonCustomizeDialog@@QAE@PAVCMFCToolBarButton@@PAVCMFCToolBarImages@@PAVCWnd@@HH@Z')
(407, 665, 2020880854L, '??0CMFCToolBarButtonsListButton@@QAE@XZ')
(408, 666, 2020884834L, '??0CMFCToolBarComboBoxButton@@QAE@IHKH@Z')
(409, 667, 2020884656L, '??0CMFCToolBarComboBoxButton@@QAE@XZ')
(410, 668, 2020893896L, '??0CMFCToolBarComboBoxEdit@@QAE@AAVCMFCToolBarComboBoxButton@@@Z')
(411, 669, 2020896887L, '??0CMFCToolBarDateTimeCtrl@@QAE@IHKH@Z')
(412, 670, 2020896788L, '??0CMFCToolBarDateTimeCtrl@@QAE@XZ')
(413, 671, 2020900235L, '??0CMFCToolBarDropSource@@QAE@XZ')
(414, 672, 2020900648L, '??0CMFCToolBarDropTarget@@QAE@XZ')
(415, 673, 2020901287L, '??0CMFCToolBarEditBoxButton@@QAE@IHKH@Z')
(416, 674, 2020901189L, '??0CMFCToolBarEditBoxButton@@QAE@XZ')
(417, 675, 2020904733L, '??0CMFCToolBarEditCtrl@@QAE@AAVCMFCToolBarEditBoxButton@@@Z')
(418, 676, 2020905823L, '??0CMFCToolBarFontComboBox@@IAE@PAVCObList@@HEE@Z')
(419, 677, 2020905605L, '??0CMFCToolBarFontComboBox@@IAE@XZ')
(420, 678, 2020905701L, '??0CMFCToolBarFontComboBox@@QAE@IHHEKHE@Z')
(421, 679, 2020907801L, '??0CMFCToolBarFontSizeComboBox@@IAE@XZ')
(422, 680, 2020907878L, '??0CMFCToolBarFontSizeComboBox@@QAE@IHKH@Z')
(423, 681, 2020913370L, '??0CMFCToolBarImages@@QAE@XZ')
(424, 682, 2020822276L, '??0CMFCToolBarInfo@@QAE@XZ')
(425, 683, 2020941301L, '??0CMFCToolBarMenuButton@@QAE@ABV0@@Z')
(426, 684, 2020940956L, '??0CMFCToolBarMenuButton@@QAE@IPAUHMENU__@@HPB_WH@Z')
(427, 685, 2020940825L, '??0CMFCToolBarMenuButton@@QAE@XZ')
(428, 686, 2020952279L, '??0CMFCToolBarMenuButtonsButton@@QAE@I@Z')
(429, 687, 2020952205L, '??0CMFCToolBarMenuButtonsButton@@QAE@XZ')
(430, 688, 2020952467L, '??0CMFCToolBarNameDialog@@QAE@PAVCWnd@@@Z')
(431, 689, 2020952890L, '??0CMFCToolBarsCommandsListBox@@QAE@XZ')
(432, 690, 2020968472L, '??0CMFCToolBarsCommandsPropertyPage@@QAE@XZ')
(433, 691, 2020953843L, '??0CMFCToolBarsCustomizeDialog@@QAE@PAVCFrameWnd@@HIPAV?$CList@PAUCRuntimeClass@@PAU1@@@@Z')
(434, 692, 2020963111L, '??0CMFCToolBarsKeyboardPropertyPage@@QAE@PAVCFrameWnd@@H@Z')
(435, 693, 2020967446L, '??0CMFCToolBarsListCheckBox@@QAE@XZ')
(436, 694, 2020969871L, '??0CMFCToolBarsListPropertyPage@@QAE@PAVCFrameWnd@@@Z')
(437, 695, 2020973077L, '??0CMFCToolBarsMenuPropertyPage@@QAE@PAVCFrameWnd@@H@Z')
(438, 696, 2020978362L, '??0CMFCToolBarsOptionsPropertyPage@@QAE@H@Z')
(439, 697, 2020979803L, '??0CMFCToolBarSpinEditBoxButton@@QAE@IHKH@Z')
(440, 698, 2020979688L, '??0CMFCToolBarSpinEditBoxButton@@QAE@XZ')
(441, 699, 2020982112L, '??0CMFCToolBarsToolsPropertyPage@@QAE@XZ')
(442, 700, 2020981034L, '??0CMFCToolBarSystemMenuButton@@QAE@PAUHMENU__@@PAUHICON__@@@Z')
(443, 701, 2020980950L, '??0CMFCToolBarSystemMenuButton@@QAE@XZ')
(444, 702, 2020984910L, '??0CMFCToolTipCtrl@@QAE@PAVCMFCToolTipInfo@@@Z')
(445, 703, 2020994390L, '??0CMFCVisualManager@@QAE@H@Z')
(446, 704, 2021054045L, '??0CMFCVisualManagerBitmapCache@@QAE@XZ')
(447, 705, 2021052944L, '??0CMFCVisualManagerBitmapCacheItem@CMFCVisualManagerBitmapCache@@QAE@XZ')
(448, 706, 2021028529L, '??0CMFCVisualManagerOffice2003@@QAE@XZ')
(449, 707, 2021054894L, '??0CMFCVisualManagerOffice2007@@IAE@XZ')
(450, 708, 2021132267L, '??0CMFCVisualManagerOfficeXP@@IAE@H@Z')
(451, 709, 2021154366L, '??0CMFCVisualManagerVS2005@@QAE@XZ')
(452, 710, 2021166308L, '??0CMFCVisualManagerWindows@@QAE@H@Z')
(453, 711, 2021214714L, '??0CMFCWindowsManagerDialog@@QAE@PAVCMDIFrameWndEx@@H@Z')
(454, 712, 2021257434L, '??0CMiniDockFrameWnd@@QAE@XZ')
(455, 713, 2021917424L, '??0CMiniFrameWnd@@QAE@XZ')
(456, 714, 2020254716L, '??0CMouseManager@@QAE@XZ')
(457, 715, 2021526000L, '??0CMultiDocTemplate@@QAE@IPAUCRuntimeClass@@00@Z')
(458, 716, 2021568896L, '??0CMultiLock@@QAE@QAPAVCSyncObject@@KH@Z')
(459, 717, 2021478915L, '??0CMultiPageDHtmlDialog@@QAE@IIPAVCWnd@@@Z')
(460, 718, 2021478972L, '??0CMultiPageDHtmlDialog@@QAE@PB_W0PAVCWnd@@@Z')
(461, 719, 2021478834L, '??0CMultiPageDHtmlDialog@@QAE@XZ')
(462, 720, 2020259863L, '??0CMultiPaneFrameWnd@@QAE@XZ')
(463, 721, 2021568515L, '??0CMutex@@QAE@HPB_WPAU_SECURITY_ATTRIBUTES@@@Z')
(464, 722, 2021240850L, '??0CObArray@@QAE@XZ')
(465, 723, 2021560735L, '??0CObList@@QAE@H@Z')
(466, 724, 2021644487L, '??0COleBusyDialog@@QAE@PAUHTASK__@@HKPAVCWnd@@@Z')
(467, 725, 2021641962L, '??0COleChangeIconDialog@@QAE@PAVCOleClientItem@@KPAVCWnd@@@Z')
(468, 726, 2021646635L, '??0COleChangeSourceDialog@@QAE@PAVCOleClientItem@@PAVCWnd@@@Z')
(469, 727, 2021615763L, '??0COleClientItem@@QAE@PAVCOleDocument@@@Z')
(470, 728, 2021673642L, '??0COleCmdUI@@QAE@PAU_tagOLECMD@@KPBU_GUID@@@Z')
(471, 729, 2021686072L, '??0COleCntrFrameWnd@@QAE@PAVCOleIPFrameWnd@@@Z')
(472, 730, 2020268204L, '??0COleCntrFrameWndEx@@QAE@PAVCOleIPFrameWnd@@@Z')
(473, 731, 2021275812L, '??0COleControl@@QAE@XZ')
(474, 732, 2021570188L, '??0COleControlContainer@@QAE@PAVCWnd@@@Z')
(475, 733, 2021605468L, '??0COleControlLock@@QAE@ABU_GUID@@@Z')
(476, 734, 2021583150L, '??0COleControlSite@@QAE@PAVCOleControlContainer@@@Z')
(477, 735, 2021570137L, '??0COleControlSiteOrWnd@@QAE@PAUHWND__@@H@Z')
(478, 736, 2021570108L, '??0COleControlSiteOrWnd@@QAE@PAVCOleControlSite@@@Z')
(479, 737, 2021701857L, '??0COleControlSiteOrWnd@@QAE@XZ')
(480, 738, 2021641167L, '??0COleConvertDialog@@QAE@PAVCOleClientItem@@KPAU_GUID@@PAVCWnd@@@Z')
(481, 739, 2021740739L, '??0COleCurrency@@QAE@JJ@Z')
(482, 740, 2021656100L, '??0COleDataObject@@QAE@XZ')
(483, 741, 2021657252L, '??0COleDataSource@@QAE@XZ')
(484, 742, 2021644401L, '??0COleDialog@@QAE@PAVCWnd@@@Z')
(485, 743, 2021653465L, '??0COleDispatchDriver@@QAE@ABV0@@Z')
(486, 744, 2021653438L, '??0COleDispatchDriver@@QAE@PAUIDispatch@@H@Z')
(487, 745, 2021653420L, '??0COleDispatchDriver@@QAE@XZ')
(488, 746, 2021652019L, '??0COleDispatchException@@QAE@PB_WIG@Z')
(489, 747, 2021667612L, '??0COleDocIPFrameWnd@@QAE@XZ')
(490, 748, 2020269692L, '??0COleDocIPFrameWndEx@@IAE@XZ')
(491, 749, 2021664575L, '??0COleDocObjectItem@@QAE@PAVCOleDocument@@@Z')
(492, 750, 2021660163L, '??0COleDocument@@QAE@XZ')
(493, 751, 2021678108L, '??0COleDropSource@@QAE@XZ')
(494, 752, 2021679159L, '??0COleDropTarget@@QAE@XZ')
(495, 753, 2021624964L, '??0COleFrameHook@@QAE@PAVCFrameWnd@@PAVCOleClientItem@@@Z')
(496, 754, 2021639656L, '??0COleInsertDialog@@QAE@KPAVCWnd@@@Z')
(497, 755, 2021686762L, '??0COleIPFrameWnd@@QAE@XZ')
(498, 756, 2020272573L, '??0COleIPFrameWndEx@@IAE@XZ')
(499, 757, 2021689485L, '??0COleLinkingDoc@@QAE@XZ')
(500, 758, 2021642295L, '??0COleLinksDialog@@QAE@PAVCOleDocument@@PAVCView@@KPAVCWnd@@@Z')
(501, 759, 2021700185L, '??0COleMessageFilter@@QAE@XZ')
(502, 760, 2021682849L, '??0COleObjectFactory@@QAE@ABU_GUID@@PAUCRuntimeClass@@HHPB_W@Z')
(503, 761, 2021682735L, '??0COleObjectFactory@@QAE@ABU_GUID@@PAUCRuntimeClass@@HPB_W@Z')
(504, 762, 2021642834L, '??0COlePasteSpecialDialog@@QAE@KPAVCOleDataObject@@PAVCWnd@@@Z')
(505, 763, 2021644764L, '??0COlePropertiesDialog@@QAE@PAVCOleClientItem@@IIPAVCWnd@@@Z')
(506, 764, 2021305374L, '??0COlePropertyPage@@QAE@II@Z')
(507, 765, 2021614698L, '??0COleResizeBar@@QAE@XZ')
(508, 766, 2021742554L, '??0COleSafeArray@@QAE@ABUtagSAFEARRAY@@G@Z')
(509, 767, 2021742634L, '??0COleSafeArray@@QAE@ABUtagVARIANT@@@Z')
(510, 768, 2021742634L, '??0COleSafeArray@@QAE@ABV0@@Z')
(511, 769, 2021742634L, '??0COleSafeArray@@QAE@ABVCOleVariant@@@Z')
(512, 770, 2021742554L, '??0COleSafeArray@@QAE@PBUtagSAFEARRAY@@G@Z')
(513, 771, 2021742634L, '??0COleSafeArray@@QAE@PBUtagVARIANT@@@Z')
(514, 772, 2021713367L, '??0COleServerDoc@@QAE@XZ')
(515, 773, 2020275361L, '??0COleServerDocEx@@IAE@XZ')
(516, 774, 2021727142L, '??0COleServerItem@@IAE@PAVCOleServerDoc@@H@Z')
(517, 775, 2021710964L, '??0COleStreamFile@@QAE@PAUIStream@@@Z')
(518, 776, 2021732197L, '??0COleTemplateServer@@QAE@XZ')
(519, 777, 2021637454L, '??0COleUILinkInfo@@QAE@PAVCOleDocument@@@Z')
(520, 778, 2021642521L, '??0COleUpdateDialog@@QAE@PAVCOleDocument@@HHPAVCWnd@@@Z')
(521, 779, 2021737478L, '??0COleVariant@@QAE@ABUtagVARIANT@@@Z')
(522, 780, 2021737478L, '??0COleVariant@@QAE@ABV0@@Z')
(523, 781, 2021737701L, '??0COleVariant@@QAE@FG@Z')
(524, 782, 2021737760L, '??0COleVariant@@QAE@JG@Z')
(525, 783, 2021737520L, '??0COleVariant@@QAE@PB_WG@Z')
(526, 784, 2021745959L, '??0COleVariant@@QAE@PBU_ITEMIDLIST@@@Z')
(527, 785, 2021737478L, '??0COleVariant@@QAE@PBUtagVARIANT@@@Z')
(528, 786, 2020302942L, '??0COutlookOptionsDlg@@QAE@AAVCMFCOutlookBarTabCtrl@@@Z')
(529, 787, 2021489606L, '??0CPageSetupDialog@@QAE@KPAVCWnd@@@Z')
(530, 788, 2021901870L, '??0CPaintDC@@QAE@PAVCWnd@@@Z')
(531, 789, 2020304867L, '??0CPane@@IAE@XZ')
(532, 790, 2020316781L, '??0CPaneContainer@@QAE@PAVCPaneContainerManager@@PAVCDockablePane@@1PAVCPaneDivider@@@Z')
(533, 791, 2020331007L, '??0CPaneContainerManager@@QAE@XZ')
(534, 792, 2020340315L, '??0CPaneDialog@@QAE@XZ')
(535, 793, 2020341432L, '??0CPaneDivider@@QAE@HPAVCWnd@@@Z')
(536, 794, 2020341279L, '??0CPaneDivider@@QAE@XZ')
(537, 795, 2020347271L, '??0CPaneFrameWnd@@QAE@XZ')
(538, 796, 2021902341L, '??0CPen@@QAE@HHK@Z')
(539, 797, 2021902419L, '??0CPen@@QAE@HHPBUtagLOGBRUSH@@HPBK@Z')
(540, 798, 2021304159L, '??0CPictureHolder@@QAE@XZ')
(541, 799, 2020937409L, '??0CPngImage@@QAE@XZ')
(542, 800, 2021436426L, '??0CPreviewDC@@QAE@XZ')
(543, 801, 2021792632L, '??0CPreviewView@@QAE@XZ')
(544, 802, 2020409398L, '??0CPreviewViewEx@@IAE@XZ')
(545, 803, 2021490481L, '??0CPrintDialog@@IAE@AAUtagPDW@@@Z')
(546, 804, 2021490277L, '??0CPrintDialog@@QAE@HKPAVCWnd@@@Z')
(547, 805, 2021491592L, '??0CPrintDialogEx@@QAE@KPAVCWnd@@@Z')
(548, 806, 2021802090L, '??0CPrintInfo@@QAE@XZ')
(549, 807, 2021791483L, '??0CPrintPreviewState@@QAE@XZ')
(550, 808, 2021302028L, '??0CPropbagPropExchange@@QAE@PAUIPropertyBag@@PAUIErrorLog@@HH@Z')
(551, 809, 2021701875L, '??0CProperty@@QAE@KQAXK@Z')
(552, 810, 2021701857L, '??0CProperty@@QAE@XZ')
(553, 811, 2021481996L, '??0CPropertyPage@@QAE@IIIIK@Z')
(554, 812, 2021481305L, '??0CPropertyPage@@QAE@IIK@Z')
(555, 813, 2021482127L, '??0CPropertyPage@@QAE@PB_WIIIK@Z')
(556, 814, 2021481469L, '??0CPropertyPage@@QAE@PB_WIK@Z')
(557, 815, 2021481666L, '??0CPropertyPage@@QAE@XZ')
(558, 816, 2021704056L, '??0CPropertySection@@QAE@U_GUID@@@Z')
(559, 817, 2021703986L, '??0CPropertySection@@QAE@XZ')
(560, 818, 2021706584L, '??0CPropertySet@@QAE@U_GUID@@@Z')
(561, 819, 2021706509L, '??0CPropertySet@@QAE@XZ')
(562, 820, 2021484417L, '??0CPropertySheet@@QAE@IPAVCWnd@@I@Z')
(563, 821, 2021484925L, '??0CPropertySheet@@QAE@IPAVCWnd@@IPAUHBITMAP__@@PAUHPALETTE__@@1@Z')
(564, 822, 2021484559L, '??0CPropertySheet@@QAE@PB_WPAVCWnd@@I@Z')
(565, 823, 2021485076L, '??0CPropertySheet@@QAE@PB_WPAVCWnd@@IPAUHBITMAP__@@PAUHPALETTE__@@2@Z')
(566, 824, 2021484265L, '??0CPropertySheet@@QAE@XZ')
(567, 825, 2021331532L, '??0CPropsetPropExchange@@QAE@AAVCPropertySection@@PAUIStorage@@H@Z')
(568, 826, 2021240711L, '??0CPtrArray@@QAE@XZ')
(569, 827, 2021561357L, '??0CPtrList@@QAE@H@Z')
(570, 828, 2021269923L, '??0CReBar@@QAE@XZ')
(571, 829, 2020464585L, '??0CRecentDockSiteInfo@@QAE@PAVCPane@@@Z')
(572, 830, 2021538970L, '??0CRecentFileList@@QAE@IPB_W0HH@Z')
(573, 831, 2020464121L, '??0CRecentPaneContainerInfo@@QAE@XZ')
(574, 832, 2021397902L, '??0CRecordset@@QAE@PAVCDatabase@@@Z')
(575, 833, 2021431240L, '??0CRecordView@@IAE@I@Z')
(576, 834, 2021431212L, '??0CRecordView@@IAE@PB_W@Z')
(577, 835, 2021761758L, '??0CRectTracker@@QAE@PBUtagRECT@@I@Z')
(578, 836, 2021802408L, '??0CReObject@@QAE@PAVCRichEditCntrItem@@@Z')
(579, 837, 2021802371L, '??0CReObject@@QAE@XZ')
(580, 838, 2021328371L, '??0CResetPropExchange@@QAE@XZ')
(581, 839, 2020526607L, '??0CRibbonCategoryScroll@@AAE@XZ')
(582, 840, 2021814919L, '??0CRichEditCntrItem@@QAE@PAU_reobject@@PAVCRichEditDoc@@@Z')
(583, 841, 2021813640L, '??0CRichEditDoc@@IAE@XZ')
(584, 842, 2021802587L, '??0CRichEditView@@QAE@XZ')
(585, 843, 2019938888L, '??0CScreenWnd@@QAE@XZ')
(586, 844, 2021817315L, '??0CScrollView@@IAE@XZ')
(587, 845, 2021568394L, '??0CSemaphore@@QAE@JJPB_WPAU_SECURITY_ATTRIBUTES@@@Z')
(588, 846, 2020707553L, '??0CSettingsStore@@IAE@XZ')
(589, 847, 2020707647L, '??0CSettingsStore@@QAE@HH@Z')
(590, 848, 2021542606L, '??0CSharedFile@@QAE@II@Z')
(591, 849, 2020716678L, '??0CShellManager@@QAE@XZ')
(592, 850, 2021526880L, '??0CSingleDocTemplate@@QAE@IPAUCRuntimeClass@@00@Z')
(593, 851, 2021568711L, '??0CSingleLock@@QAE@PAVCSyncObject@@H@Z')
(594, 852, 2020726726L, '??0CSmartDockingGroupGuide@@QAE@XZ')
(595, 853, 2020728241L, '??0CSmartDockingGroupGuidesManager@@QAE@XZ')
(596, 854, 2020725614L, '??0CSmartDockingGroupGuidesWnd@@IAE@XZ')
(597, 855, 2020731550L, '??0CSmartDockingHighlighterWnd@@QAE@XZ')
(598, 856, 2020050699L, '??0CSmartDockingInfo@@QAE@XZ')
(599, 857, 2020732913L, '??0CSmartDockingManager@@QAE@XZ')
(600, 858, 2020723977L, '??0CSmartDockingStandaloneGuide@@QAE@XZ')
(601, 859, 2020730328L, '??0CSmartDockingStandaloneGuideWnd@@QAE@XZ')
(602, 860, 2021750370L, '??0CSocket@@QAE@XZ')
(603, 861, 2021751982L, '??0CSocketFile@@QAE@PAVCSocket@@H@Z')
(604, 862, 2021752347L, '??0CSocketWnd@@QAE@XZ')
(605, 863, 2021922103L, '??0CSplitterWnd@@QAE@XZ')
(606, 864, 2020736955L, '??0CSplitterWndEx@@QAE@XZ')
(607, 865, 2021258446L, '??0CStatusBar@@QAE@XZ')
(608, 866, 2021545272L, '??0CStdioFile@@QAE@PAU_iobuf@@@Z')
(609, 867, 2021545341L, '??0CStdioFile@@QAE@PB_WI@Z')
(610, 868, 2021545198L, '??0CStdioFile@@QAE@XZ')
(611, 869, 2021241616L, '??0CStringArray@@QAE@XZ')
(612, 870, 2021561769L, '??0CStringList@@QAE@H@Z')
(613, 871, 2021568233L, '??0CSyncObject@@QAE@PB_W@Z')
(614, 872, 2020749890L, '??0CTabbedPane@@QAE@H@Z')
(615, 873, 2020773330L, '??0CTabView@@IAE@XZ')
(616, 874, 2020774547L, '??0CTagManager@@QAE@PB_W@Z')
(617, 875, 2020785637L, '??0CTaskDialog@@QAE@ABV?$CStringT@_WV?$StrTraitMFC_DLL@_WV?$ChTraitsCRT@_W@ATL@@@@@ATL@@00HH0@Z')
(618, 876, 2020785996L, '??0CTaskDialog@@QAE@ABV?$CStringT@_WV?$StrTraitMFC_DLL@_WV?$ChTraitsCRT@_W@ATL@@@@@ATL@@00HHHH0@Z')
(619, 877, 2021835670L, '??0CTestCmdUI@@QAE@XZ')
(620, 878, 2020820437L, '??0CThreadSlotData@@QAE@XZ')
(621, 879, 2021262451L, '??0CToolBar@@QAE@XZ')
(622, 880, 2021758235L, '??0CToolTipCtrl@@QAE@XZ')
(623, 881, 2020990488L, '??0CTooltipManager@@QAE@XZ')
(624, 882, 2021243242L, '??0CUIntArray@@QAE@XZ')
(625, 883, 2020991331L, '??0CUserTool@@QAE@XZ')
(626, 884, 2020992921L, '??0CUserToolsManager@@QAE@IIIPAUCRuntimeClass@@II@Z')
(627, 885, 2020992763L, '??0CUserToolsManager@@QAE@XZ')
(628, 886, 2021766482L, '??0CView@@IAE@XZ')
(629, 887, 2021204601L, '??0CVSListBox@@QAE@XZ')
(630, 888, 2021200474L, '??0CVSListBoxBase@@IAE@XZ')
(631, 889, 2021200174L, '??0CVSListBoxEditCtrl@@QAE@XZ')
(632, 890, 2021218783L, '??0CWinApp@@QAE@PB_W@Z')
(633, 891, 2021207981L, '??0CWinAppEx@@QAE@H@Z')
(634, 892, 2021901678L, '??0CWindowDC@@QAE@PAVCWnd@@@Z')
(635, 893, 2021296343L, '??0CWindowlessDC@@QAE@PAUHDC__@@AAVCPoint@@@Z')
(636, 894, 2021756233L, '??0CWinThread@@QAE@P6AIPAX@Z0@Z')
(637, 895, 2021756338L, '??0CWinThread@@QAE@XZ')
(638, 896, 2021825718L, '??0CWnd@@AAE@PAUHWND__@@@Z')
(639, 897, 2021825615L, '??0CWnd@@QAE@XZ')
(640, 898, 2021243451L, '??0CWordArray@@QAE@XZ')
(641, 899, 2021792874L, '??0PAGE_INFO@CPreviewView@@QAE@XZ')
(642, 900, 2019888110L, '??1?$CSimpleStringT@_W$00@ATL@@QAE@XZ')
(643, 901, 2019888110L, '??1?$CSimpleStringT@D$00@ATL@@QAE@XZ')
(644, 902, 2019888110L, '??1?$CStringT@_WV?$StrTraitMFC_DLL@_WV?$ChTraitsCRT@_W@ATL@@@@@ATL@@QAE@XZ')
(645, 903, 2019888110L, '??1?$CStringT@DV?$StrTraitMFC_DLL@DV?$ChTraitsCRT@D@ATL@@@@@ATL@@QAE@XZ')
(646, 904, 2021345672L, '??1_AFX_DAO_STATE@@UAE@XZ')
(647, 905, 2020738807L, '??1_AFX_THREAD_STATE@@UAE@XZ')
(648, 906, 2020144136L, '??1AFX_GLOBAL_DATA@@QAE@XZ')
(649, 907, 2020738361L, '??1AFX_MAINTAIN_STATE@@QAE@XZ')
(650, 908, 2020739729L, '??1AFX_MODULE_STATE@@UAE@XZ')
(651, 909, 2020740201L, '??1AFX_MODULE_THREAD_STATE@@UAE@XZ')
(652, 910, 2021860894L, '??1CAnimateCtrl@@UAE@XZ')
(653, 911, 2021233912L, '??1CArchive@@QAE@XZ')
(654, 912, 2021612152L, '??1CAsyncMonikerFile@@UAE@XZ')
(655, 913, 2021749145L, '??1CAsyncSocket@@UAE@XZ')
(656, 914, 2019853514L, '??1CAutoHideDockSite@@UAE@XZ')
(657, 915, 2019855244L, '??1CBasePane@@UAE@XZ')
(658, 916, 2019871841L, '??1CBaseTabbedPane@@UAE@XZ')
(659, 917, 2021852395L, '??1CButton@@UAE@XZ')
(660, 918, 2021238903L, '??1CByteArray@@UAE@XZ')
(661, 919, 2021901614L, '??1CClientDC@@UAE@XZ')
(662, 920, 2021272600L, '??1CCmdTarget@@UAE@XZ')
(663, 921, 2021853347L, '??1CComboBox@@UAE@XZ')
(664, 922, 2021877721L, '??1CComboBoxEx@@UAE@XZ')
(665, 923, 2021220080L, '??1CCommandLineInfo@@UAE@XZ')
(666, 924, 2019953327L, '??1CCommandManager@@UAE@XZ')
(667, 925, 2021634311L, '??1CConnectionPoint@@UAE@XZ')
(668, 926, 2019954776L, '??1CContextMenuManager@@UAE@XZ')
(669, 927, 2021245578L, '??1CControlBar@@UAE@XZ')
(670, 928, 2021578957L, '??1CControlSiteFactoryMgr@@UAE@XZ')
(671, 929, 2021768394L, '??1CCtrlView@@UAE@XZ')
(672, 930, 2021352593L, '??1CDaoDatabase@@UAE@XZ')
(673, 931, 2021346231L, '??1CDaoException@@UAE@XZ')
(674, 932, 2021345838L, '??1CDaoIndexInfo@@UAE@XZ')
(675, 933, 2021364155L, '??1CDaoQueryDef@@UAE@XZ')
(676, 934, 2021368793L, '??1CDaoRecordset@@UAE@XZ')
(677, 935, 2021390582L, '??1CDaoRecordView@@UAE@XZ')
(678, 936, 2021346034L, '??1CDaoRelationInfo@@UAE@XZ')
(679, 937, 2021359436L, '??1CDaoTableDef@@UAE@XZ')
(680, 938, 2021347303L, '??1CDaoWorkspace@@UAE@XZ')
(681, 939, 2021394995L, '??1CDatabase@@UAE@XZ')
(682, 940, 2019980791L, '??1CDataRecoveryHandler@@UAE@XZ')
(683, 941, 2021594703L, '??1CDataSourceControl@@QAE@XZ')
(684, 942, 2021872802L, '??1CDateTimeCtrl@@UAE@XZ')
(685, 943, 2021394023L, '??1CDBException@@UAE@XZ')
(686, 944, 2021431185L, '??1CDBVariant@@UAE@XZ')
(687, 945, 2021897198L, '??1CDC@@UAE@XZ')
(688, 946, 2021464563L, '??1CDHtmlControlSink@@UAE@XZ')
(689, 947, 2021467670L, '??1CDHtmlDialog@@UAE@XZ')
(690, 948, 2021442530L, '??1CDialog@@UAE@XZ')
(691, 949, 2021251448L, '??1CDialogBar@@UAE@XZ')
(692, 950, 2020003212L, '??1CDialogImpl@@MAE@XZ')
(693, 951, 2021493773L, '??1CDialogTemplate@@QAE@XZ')
(694, 952, 2021664225L, '??1CDocItem@@UAE@XZ')
(695, 953, 2020005660L, '??1CDockablePane@@UAE@XZ')
(696, 954, 2020289022L, '??1CDockablePaneAdapter@@UAE@XZ')
(697, 955, 2021252288L, '??1CDockBar@@UAE@XZ')
(698, 956, 2021506092L, '??1CDockContext@@UAE@XZ')
(699, 957, 2020027833L, '??1CDockingManager@@UAE@XZ')
(700, 958, 2020052787L, '??1CDockingPanesRow@@UAE@XZ')
(701, 959, 2020066780L, '??1CDockSite@@UAE@XZ')
(702, 960, 2021513098L, '??1CDockState@@UAE@XZ')
(703, 961, 2021525885L, '??1CDocManager@@UAE@XZ')
(704, 962, 2021668483L, '??1CDocObjectServer@@UAE@XZ')
(705, 963, 2021673513L, '??1CDocObjectServerItem@@UAE@XZ')
(706, 964, 2021528307L, '??1CDocTemplate@@UAE@XZ')
(707, 965, 2021495381L, '??1CDocument@@UAE@XZ')
(708, 966, 2021853843L, '??1CDragListBox@@UAE@XZ')
(709, 967, 2020078234L, '??1CDrawingManager@@UAE@XZ')
(710, 968, 2021240059L, '??1CDWordArray@@UAE@XZ')
(711, 969, 2021936394L, '??1CDynLinkLibrary@@UAE@XZ')
(712, 970, 2021853612L, '??1CEdit@@UAE@XZ')
(713, 971, 2021768977L, '??1CEditView@@UAE@XZ')
(714, 972, 2021681954L, '??1CEnumArray@@UAE@XZ')
(715, 973, 2021635732L, '??1CEnumConnections@@UAE@XZ')
(716, 974, 2021636369L, '??1CEnumConnPoints@@UAE@XZ')
(717, 975, 2021658812L, '??1CEnumFormatEtc@@UAE@XZ')
(718, 976, 2021746121L, '??1CEnumOleVerb@@UAE@XZ')
(719, 977, 2021574387L, '??1CEnumUnknown@@UAE@XZ')
(720, 978, 2021568695L, '??1CEvent@@UAE@XZ')
(721, 979, 2021532414L, '??1CFile@@UAE@XZ')
(722, 980, 2021449719L, '??1CFileDialog@@UAE@XZ')
(723, 981, 2021536678L, '??1CFileFind@@UAE@XZ')
(724, 982, 2021548605L, '??1CFixedAlloc@@QAE@XZ')
(725, 983, 2021548426L, '??1CFixedAllocNoSync@@QAE@XZ')
(726, 984, 2021291461L, '??1CFontHolder@@QAE@XZ')
(727, 985, 2021775174L, '??1CFormView@@UAE@XZ')
(728, 986, 2020117052L, '??1CFrameImpl@@UAE@XZ')
(729, 987, 2021880163L, '??1CFrameWnd@@UAE@XZ')
(730, 988, 2020132515L, '??1CFrameWndEx@@MAE@XZ')
(731, 989, 2021554041L, '??1CFtpConnection@@UAE@XZ')
(732, 990, 2021558470L, '??1CFtpFileFind@@UAE@XZ')
(733, 991, 2020138761L, '??1CFullScreenImpl@@UAE@XZ')
(734, 992, 2020151457L, '??1CGlobalUtils@@UAE@XZ')
(735, 993, 2021555311L, '??1CGopherConnection@@UAE@XZ')
(736, 994, 2021558316L, '??1CGopherFile@@UAE@XZ')
(737, 995, 2021559257L, '??1CGopherFileFind@@UAE@XZ')
(738, 996, 2021559988L, '??1CGopherLocator@@UAE@XZ')
(739, 997, 2021859683L, '??1CHeaderCtrl@@UAE@XZ')
(740, 998, 2021859833L, '??1CHotKeyCtrl@@UAE@XZ')
(741, 999, 2021777341L, '??1CHtmlControlSite@@UAE@XZ')
(742, 1000, 2021783783L, '??1CHtmlEditCtrl@@UAE@XZ')
(743, 1001, 2021785017L, '??1CHtmlEditDoc@@UAE@XZ')
(744, 1002, 2021784448L, '??1CHtmlEditView@@UAE@XZ')
(745, 1003, 2021776780L, '??1CHtmlView@@UAE@XZ')
(746, 1004, 2021556144L, '??1CHttpConnection@@UAE@XZ')
(747, 1005, 2021557042L, '??1CHttpFile@@UAE@XZ')
(748, 1006, 2021861141L, '??1CImageList@@UAE@XZ')
(749, 1007, 2021553835L, '??1CInternetConnection@@UAE@XZ')
(750, 1008, 2021560444L, '??1CInternetException@@UAE@XZ')
(751, 1009, 2021552397L, '??1CInternetFile@@UAE@XZ')
(752, 1010, 2021550121L, '??1CInternetSession@@UAE@XZ')
(753, 1011, 2021877348L, '??1CIPAddressCtrl@@UAE@XZ')
(754, 1012, 2020171726L, '??1CKeyboardManager@@UAE@XZ')
(755, 1013, 2021852954L, '??1CListBox@@UAE@XZ')
(756, 1014, 2021856264L, '??1CListCtrl@@UAE@XZ')
(757, 1015, 2021415218L, '??1CLongBinary@@UAE@XZ')
(758, 1016, 2020740185L, '??1CMapPtrToPtr@@UAE@XZ')
(759, 1017, 2021563991L, '??1CMapPtrToWord@@UAE@XZ')
(760, 1018, 2021564601L, '??1CMapStringToOb@@UAE@XZ')
(761, 1019, 2021565550L, '??1CMapStringToPtr@@UAE@XZ')
(762, 1020, 2021566013L, '??1CMapStringToString@@UAE@XZ')
(763, 1021, 2021567303L, '??1CMapWordToOb@@UAE@XZ')
(764, 1022, 2021567862L, '??1CMapWordToPtr@@UAE@XZ')
(765, 1023, 2020215716L, '??1CMDIChildWndEx@@MAE@XZ')
(766, 1024, 2020195012L, '??1CMDIClientAreaWnd@@UAE@XZ')
(767, 1025, 2020227484L, '??1CMDIFrameWndEx@@MAE@XZ')
(768, 1026, 2020142914L, '??1CMemDC@@UAE@XZ')
(769, 1027, 2021541658L, '??1CMemFile@@UAE@XZ')
(770, 1028, 2020250220L, '??1CMenuHash@@UAE@XZ')
(771, 1029, 2020253218L, '??1CMenuTearOffManager@@UAE@XZ')
(772, 1030, 2021434427L, '??1CMetaFileDC@@UAE@XZ')
(773, 1031, 2019843499L, '??1CMFCAcceleratorKey@@UAE@XZ')
(774, 1032, 2019845531L, '??1CMFCAcceleratorKeyAssignCtrl@@UAE@XZ')
(775, 1033, 2019846689L, '??1CMFCAutoHideBar@@UAE@XZ')
(776, 1034, 2019850833L, '??1CMFCAutoHideButton@@UAE@XZ')
(777, 1035, 2019879147L, '??1CMFCBaseTabCtrl@@UAE@XZ')
(778, 1036, 2019896952L, '??1CMFCBaseToolBar@@UAE@XZ')
(779, 1037, 2021025078L, '??1CMFCBaseVisualManager@@UAE@XZ')
(780, 1038, 2019897629L, '??1CMFCButton@@UAE@XZ')
(781, 1039, 2019908121L, '??1CMFCCaptionBar@@UAE@XZ')
(782, 1040, 2019918220L, '??1CMFCCaptionButton@@UAE@XZ')
(783, 1041, 2019918220L, '??1CMFCCaptionButtonEx@@UAE@XZ')
(784, 1042, 2019918220L, '??1CMFCCaptionMenuButton@@UAE@XZ')
(785, 1043, 2019918670L, '??1CMFCCmdUsageCount@@UAE@XZ')
(786, 1044, 2019923545L, '??1CMFCColorBar@@UAE@XZ')
(787, 1045, 2019933070L, '??1CMFCColorButton@@UAE@XZ')
(788, 1046, 2019936459L, '??1CMFCColorDialog@@UAE@XZ')
(789, 1047, 2019940205L, '??1CMFCColorMenuButton@@UAE@XZ')
(790, 1048, 2019944685L, '??1CMFCColorPickerCtrl@@UAE@XZ')
(791, 1049, 2019951863L, '??1CMFCColorPopupMenu@@UAE@XZ')
(792, 1050, 2019952533L, '??1CMFCColorPropertySheet@@UAE@XZ')
(793, 1051, 2019959201L, '??1CMFCControlBarImpl@@UAE@XZ')
(794, 1052, 2019961700L, '??1CMFCControlRenderer@@UAE@XZ')
(795, 1053, 2020580885L, '??1CMFCControlRendererInfo@@QAE@XZ')
(796, 1054, 2019972959L, '??1CMFCCustomizeButton@@UAE@XZ')
(797, 1055, 2019977070L, '??1CMFCCustomizeMenuButton@@UAE@XZ')
(798, 1056, 2019990862L, '??1CMFCDesktopAlertDialog@@UAE@XZ')
(799, 1057, 2019994607L, '??1CMFCDesktopAlertWnd@@UAE@XZ')
(800, 1058, 2020074198L, '??1CMFCDragFrameImpl@@UAE@XZ')
(801, 1059, 2020102686L, '??1CMFCDropDownFrame@@UAE@XZ')
(802, 1060, 2020099489L, '??1CMFCDropDownListBox@@UAE@XZ')
(803, 1061, 2020105111L, '??1CMFCDropDownToolbarButton@@UAE@XZ')
(804, 1062, 2020108310L, '??1CMFCEditBrowseCtrl@@UAE@XZ')
(805, 1063, 2020113522L, '??1CMFCFontComboBox@@UAE@XZ')
(806, 1064, 2020156234L, '??1CMFCHeaderCtrl@@UAE@XZ')
(807, 1065, 2020163724L, '??1CMFCImagePaintArea@@UAE@XZ')
(808, 1066, 2020175003L, '??1CMFCKeyMapDialog@@UAE@XZ')
(809, 1067, 2020182672L, '??1CMFCLinkCtrl@@UAE@XZ')
(810, 1068, 2020181097L, '??1CMFCListCtrl@@UAE@XZ')
(811, 1069, 2020184749L, '??1CMFCMaskedEdit@@UAE@XZ')
(812, 1070, 2020237622L, '??1CMFCMenuBar@@UAE@XZ')
(813, 1071, 2020248258L, '??1CMFCMenuButton@@UAE@XZ')
(814, 1072, 2020257680L, '??1CMFCMousePropertyPage@@UAE@XZ')
(815, 1073, 2020277139L, '??1CMFCOutlookBar@@UAE@XZ')
(816, 1074, 2020280688L, '??1CMFCOutlookBarPane@@UAE@XZ')
(817, 1075, 2020289022L, '??1CMFCOutlookBarPaneAdapter@@UAE@XZ')
(818, 1076, 2020289245L, '??1CMFCOutlookBarPaneButton@@UAE@XZ')
(819, 1077, 2020293632L, '??1CMFCOutlookBarTabCtrl@@UAE@XZ')
(820, 1078, 2020373523L, '??1CMFCPopupMenu@@UAE@XZ')
(821, 1079, 2020396479L, '??1CMFCPopupMenuBar@@UAE@XZ')
(822, 1080, 2020423007L, '??1CMFCPropertyGridColorProperty@@UAE@XZ')
(823, 1081, 2020427061L, '??1CMFCPropertyGridCtrl@@UAE@XZ')
(824, 1082, 2020425146L, '??1CMFCPropertyGridFileProperty@@UAE@XZ')
(825, 1083, 2020425856L, '??1CMFCPropertyGridFontProperty@@UAE@XZ')
(826, 1084, 2020412244L, '??1CMFCPropertyGridProperty@@UAE@XZ')
(827, 1085, 2020447820L, '??1CMFCPropertyGridToolTipCtrl@@UAE@XZ')
(828, 1086, 2020450049L, '??1CMFCPropertyPage@@UAE@XZ')
(829, 1087, 2020453919L, '??1CMFCPropertySheet@@UAE@XZ')
(830, 1088, 2020452942L, '??1CMFCPropertySheetCategoryInfo@@UAE@XZ')
(831, 1089, 2020470421L, '??1CMFCRibbonBar@@UAE@XZ')
(832, 1090, 2019864923L, '??1CMFCRibbonBaseElement@@UAE@XZ')
(833, 1091, 2020505578L, '??1CMFCRibbonButton@@UAE@XZ')
(834, 1092, 2020520792L, '??1CMFCRibbonButtonsGroup@@UAE@XZ')
(835, 1093, 2020528074L, '??1CMFCRibbonCategory@@UAE@XZ')
(836, 1094, 2020537595L, '??1CMFCRibbonCheckBox@@UAE@XZ')
(837, 1095, 2020552783L, '??1CMFCRibbonColorButton@@UAE@XZ')
(838, 1096, 2020557555L, '??1CMFCRibbonComboBox@@UAE@XZ')
(839, 1097, 2020562942L, '??1CMFCRibbonCommandsListBox@@UAE@XZ')
(840, 1098, 2020569076L, '??1CMFCRibbonCustomizeDialog@@UAE@XZ')
(841, 1099, 2020569529L, '??1CMFCRibbonCustomizePropertyPage@@UAE@XZ')
(842, 1100, 2020573477L, '??1CMFCRibbonEdit@@UAE@XZ')
(843, 1101, 2020561048L, '??1CMFCRibbonFontComboBox@@UAE@XZ')
(844, 1102, 2020637314L, '??1CMFCRibbonGallery@@UAE@XZ')
(845, 1103, 2020645306L, '??1CMFCRibbonGalleryMenuButton@@UAE@XZ')
(846, 1104, 2020620238L, '??1CMFCRibbonKeyboardCustomizeDialog@@UAE@XZ')
(847, 1105, 2020623956L, '??1CMFCRibbonKeyTip@@UAE@XZ')
(848, 1106, 2020625214L, '??1CMFCRibbonLabel@@UAE@XZ')
(849, 1107, 2020626514L, '??1CMFCRibbonLinkCtrl@@UAE@XZ')
(850, 1108, 2020628910L, '??1CMFCRibbonMainPanel@@UAE@XZ')
(851, 1109, 2020632426L, '??1CMFCRibbonMainPanelButton@@UAE@XZ')
(852, 1110, 2020632814L, '??1CMFCRibbonMiniToolBar@@UAE@XZ')
(853, 1111, 2020648664L, '??1CMFCRibbonPanel@@UAE@XZ')
(854, 1112, 2020682980L, '??1CMFCRibbonPanelMenu@@UAE@XZ')
(855, 1113, 2020673218L, '??1CMFCRibbonPanelMenuBar@@UAE@XZ')
(856, 1114, 2020683865L, '??1CMFCRibbonProgressBar@@UAE@XZ')
(857, 1115, 2020686681L, '??1CMFCRibbonQuickAccessToolBar@@UAE@XZ')
(858, 1116, 2020578541L, '??1CMFCRibbonRichEditCtrl@@UAE@XZ')
(859, 1117, 2020689121L, '??1CMFCRibbonSlider@@UAE@XZ')
(860, 1118, 2020692863L, '??1CMFCRibbonStatusBar@@UAE@XZ')
(861, 1119, 2020701638L, '??1CMFCRibbonStatusBarPane@@UAE@XZ')
(862, 1120, 2020705029L, '??1CMFCRibbonUndoButton@@UAE@XZ')
(863, 1121, 2019965772L, '??1CMFCShadowRenderer@@UAE@XZ')
(864, 1122, 2020710248L, '??1CMFCShellListCtrl@@UAE@XZ')
(865, 1123, 2020717962L, '??1CMFCShellTreeCtrl@@UAE@XZ')
(866, 1124, 2020722989L, '??1CMFCShowAllButton@@UAE@XZ')
(867, 1125, 2020735390L, '??1CMFCSpinButtonCtrl@@UAE@XZ')
(868, 1126, 2020742153L, '??1CMFCStatusBar@@UAE@XZ')
(869, 1127, 2020751957L, '??1CMFCTabCtrl@@UAE@XZ')
(870, 1128, 2020795460L, '??1CMFCTasksPane@@UAE@XZ')
(871, 1129, 2020819080L, '??1CMFCTasksPaneFrameWnd@@UAE@XZ')
(872, 1130, 2020823249L, '??1CMFCToolBar@@UAE@XZ')
(873, 1131, 2020868639L, '??1CMFCToolBarButton@@UAE@XZ')
(874, 1132, 2020876635L, '??1CMFCToolBarButtonCustomizeDialog@@UAE@XZ')
(875, 1133, 2020881028L, '??1CMFCToolBarButtonsListButton@@UAE@XZ')
(876, 1134, 2020885092L, '??1CMFCToolBarComboBoxButton@@UAE@XZ')
(877, 1135, 2020893982L, '??1CMFCToolBarComboBoxEdit@@UAE@XZ')
(878, 1136, 2020897022L, '??1CMFCToolBarDateTimeCtrl@@UAE@XZ')
(879, 1137, 2020900333L, '??1CMFCToolBarDropSource@@UAE@XZ')
(880, 1138, 2020900722L, '??1CMFCToolBarDropTarget@@UAE@XZ')
(881, 1139, 2020901415L, '??1CMFCToolBarEditBoxButton@@UAE@XZ')
(882, 1140, 2020904825L, '??1CMFCToolBarEditCtrl@@UAE@XZ')
(883, 1141, 2020905913L, '??1CMFCToolBarFontComboBox@@UAE@XZ')
(884, 1142, 2020907928L, '??1CMFCToolBarFontSizeComboBox@@UAE@XZ')
(885, 1143, 2020913858L, '??1CMFCToolBarImages@@UAE@XZ')
(886, 1144, 2020941675L, '??1CMFCToolBarMenuButton@@UAE@XZ')
(887, 1145, 2020952316L, '??1CMFCToolBarMenuButtonsButton@@UAE@XZ')
(888, 1146, 2020952968L, '??1CMFCToolBarsCommandsListBox@@UAE@XZ')
(889, 1147, 2020968674L, '??1CMFCToolBarsCommandsPropertyPage@@UAE@XZ')
(890, 1148, 2020955133L, '??1CMFCToolBarsCustomizeDialog@@UAE@XZ')
(891, 1149, 2020963550L, '??1CMFCToolBarsKeyboardPropertyPage@@UAE@XZ')
(892, 1150, 2020967543L, '??1CMFCToolBarsListCheckBox@@UAE@XZ')
(893, 1151, 2020970116L, '??1CMFCToolBarsListPropertyPage@@UAE@XZ')
(894, 1152, 2020973567L, '??1CMFCToolBarsMenuPropertyPage@@UAE@XZ')
(895, 1153, 2020978674L, '??1CMFCToolBarsOptionsPropertyPage@@UAE@XZ')
(896, 1154, 2020979919L, '??1CMFCToolBarSpinEditBoxButton@@UAE@XZ')
(897, 1155, 2020982498L, '??1CMFCToolBarsToolsPropertyPage@@UAE@XZ')
(898, 1156, 2020981093L, '??1CMFCToolBarSystemMenuButton@@UAE@XZ')
(899, 1157, 2020985144L, '??1CMFCToolTipCtrl@@UAE@XZ')
(900, 1158, 2020994722L, '??1CMFCVisualManager@@UAE@XZ')
(901, 1159, 2021054138L, '??1CMFCVisualManagerBitmapCache@@UAE@XZ')
(902, 1160, 2021053018L, '??1CMFCVisualManagerBitmapCacheItem@CMFCVisualManagerBitmapCache@@UAE@XZ')
(903, 1161, 2021028797L, '??1CMFCVisualManagerOffice2003@@UAE@XZ')
(904, 1162, 2021057120L, '??1CMFCVisualManagerOffice2007@@MAE@XZ')
(905, 1163, 2021132654L, '??1CMFCVisualManagerOfficeXP@@UAE@XZ')
(906, 1164, 2021154539L, '??1CMFCVisualManagerVS2005@@UAE@XZ')
(907, 1165, 2021166521L, '??1CMFCVisualManagerWindows@@UAE@XZ')
(908, 1166, 2021917511L, '??1CMiniFrameWnd@@UAE@XZ')
(909, 1167, 2021698704L, '??1CMonikerFile@@UAE@XZ')
(910, 1168, 2021873962L, '??1CMonthCalCtrl@@UAE@XZ')
(911, 1169, 2020254868L, '??1CMouseManager@@UAE@XZ')
(912, 1170, 2021526233L, '??1CMultiDocTemplate@@UAE@XZ')
(913, 1171, 2021569097L, '??1CMultiLock@@QAE@XZ')
(914, 1172, 2021479029L, '??1CMultiPageDHtmlDialog@@UAE@XZ')
(915, 1173, 2020259952L, '??1CMultiPaneFrameWnd@@UAE@XZ')
(916, 1174, 2021568588L, '??1CMutex@@UAE@XZ')
(917, 1175, 2021240878L, '??1CObArray@@UAE@XZ')
(918, 1176, 2021560780L, '??1CObList@@UAE@XZ')
(919, 1177, 2021489737L, '??1COleBusyDialog@@UAE@XZ')
(920, 1178, 2021642141L, '??1COleChangeIconDialog@@UAE@XZ')
(921, 1179, 2021646990L, '??1COleChangeSourceDialog@@UAE@XZ')
(922, 1180, 2021615949L, '??1COleClientItem@@UAE@XZ')
(923, 1181, 2021686174L, '??1COleCntrFrameWnd@@UAE@XZ')
(924, 1182, 2020268288L, '??1COleCntrFrameWndEx@@MAE@XZ')
(925, 1183, 2021276467L, '??1COleControl@@UAE@XZ')
(926, 1184, 2021570346L, '??1COleControlContainer@@UAE@XZ')
(927, 1185, 2021605627L, '??1COleControlLock@@UAE@XZ')
(928, 1186, 2021583475L, '??1COleControlSite@@UAE@XZ')
(929, 1187, 2021570168L, '??1COleControlSiteOrWnd@@QAE@XZ')
(930, 1188, 2021641569L, '??1COleConvertDialog@@UAE@XZ')
(931, 1189, 2021657302L, '??1COleDataSource@@UAE@XZ')
(932, 1190, 2021651533L, '??1COleDispatchException@@UAE@XZ')
(933, 1191, 2021667644L, '??1COleDocIPFrameWnd@@UAE@XZ')
(934, 1192, 2020269812L, '??1COleDocIPFrameWndEx@@MAE@XZ')
(935, 1193, 2021664681L, '??1COleDocObjectItem@@UAE@XZ')
(936, 1194, 2021660334L, '??1COleDocument@@UAE@XZ')
(937, 1195, 2021679317L, '??1COleDropTarget@@UAE@XZ')
(938, 1196, 2021625102L, '??1COleFrameHook@@UAE@XZ')
(939, 1197, 2021639843L, '??1COleInsertDialog@@UAE@XZ')
(940, 1198, 2021686941L, '??1COleIPFrameWnd@@UAE@XZ')
(941, 1199, 2020272699L, '??1COleIPFrameWndEx@@MAE@XZ')
(942, 1200, 2021689623L, '??1COleLinkingDoc@@UAE@XZ')
(943, 1201, 2021489737L, '??1COleLinksDialog@@UAE@XZ')
(944, 1202, 2021700297L, '??1COleMessageFilter@@UAE@XZ')
(945, 1203, 2021683029L, '??1COleObjectFactory@@UAE@XZ')
(946, 1204, 2021643078L, '??1COlePasteSpecialDialog@@UAE@XZ')
(947, 1205, 2021306545L, '??1COlePropertyPage@@UAE@XZ')
(948, 1206, 2021614764L, '??1COleResizeBar@@UAE@XZ')
(949, 1207, 2021713508L, '??1COleServerDoc@@UAE@XZ')
(950, 1208, 2020275448L, '??1COleServerDocEx@@UAE@XZ')
(951, 1209, 2021727380L, '??1COleServerItem@@UAE@XZ')
(952, 1210, 2021711198L, '??1COleStreamFile@@UAE@XZ')
(953, 1211, 2021642682L, '??1COleUpdateDialog@@UAE@XZ')
(954, 1212, 2021901998L, '??1CPaintDC@@UAE@XZ')
(955, 1213, 2020305235L, '??1CPane@@UAE@XZ')
(956, 1214, 2020316982L, '??1CPaneContainer@@UAE@XZ')
(957, 1215, 2020331103L, '??1CPaneContainerManager@@UAE@XZ')
(958, 1216, 2020340405L, '??1CPaneDialog@@UAE@XZ')
(959, 1217, 2020341672L, '??1CPaneDivider@@UAE@XZ')
(960, 1218, 2020347636L, '??1CPaneFrameWnd@@UAE@XZ')
(961, 1219, 2021304170L, '??1CPictureHolder@@QAE@XZ')
(962, 1220, 2019896435L, '??1CPngImage@@UAE@XZ')
(963, 1221, 2021436683L, '??1CPreviewDC@@UAE@XZ')
(964, 1222, 2021792913L, '??1CPreviewView@@UAE@XZ')
(965, 1223, 2020409577L, '??1CPreviewViewEx@@MAE@XZ')
(966, 1224, 2021802251L, '??1CPrintInfo@@QAE@XZ')
(967, 1225, 2020822053L, '??1CProcessLocalObject@@QAE@XZ')
(968, 1226, 2021859573L, '??1CProgressCtrl@@UAE@XZ')
(969, 1227, 2021302147L, '??1CPropbagPropExchange@@UAE@XZ')
(970, 1228, 2021701922L, '??1CProperty@@QAE@XZ')
(971, 1229, 2021482409L, '??1CPropertyPage@@UAE@XZ')
(972, 1230, 2021704130L, '??1CPropertySection@@QAE@XZ')
(973, 1231, 2021706663L, '??1CPropertySet@@QAE@XZ')
(974, 1232, 2021485565L, '??1CPropertySheet@@UAE@XZ')
(975, 1233, 2021240739L, '??1CPtrArray@@UAE@XZ')
(976, 1234, 2021570330L, '??1CPtrList@@UAE@XZ')
(977, 1235, 2021877775L, '??1CReBarCtrl@@UAE@XZ')
(978, 1236, 2020464696L, '??1CRecentDockSiteInfo@@UAE@XZ')
(979, 1237, 2021539211L, '??1CRecentFileList@@UAE@XZ')
(980, 1238, 2020464207L, '??1CRecentPaneContainerInfo@@UAE@XZ')
(981, 1239, 2021398470L, '??1CRecordset@@UAE@XZ')
(982, 1240, 2021431268L, '??1CRecordView@@UAE@XZ')
(983, 1241, 2021762296L, '??1CRectTracker@@UAE@XZ')
(984, 1242, 2021802519L, '??1CReObject@@QAE@XZ')
(985, 1243, 2021815045L, '??1CRichEditCntrItem@@UAE@XZ')
(986, 1244, 2021860948L, '??1CRichEditCtrl@@UAE@XZ')
(987, 1245, 2019938958L, '??1CScreenWnd@@UAE@XZ')
(988, 1246, 2021853706L, '??1CScrollBar@@UAE@XZ')
(989, 1247, 2021817450L, '??1CScrollView@@UAE@XZ')
(990, 1248, 2021568470L, '??1CSemaphore@@UAE@XZ')
(991, 1249, 2020707730L, '??1CSettingsStore@@UAE@XZ')
(992, 1250, 2021542657L, '??1CSharedFile@@UAE@XZ')
(993, 1251, 2020716773L, '??1CShellManager@@UAE@XZ')
(994, 1252, 2021526975L, '??1CSingleDocTemplate@@UAE@XZ')
(995, 1253, 2021859221L, '??1CSliderCtrl@@UAE@XZ')
(996, 1254, 2020726844L, '??1CSmartDockingGroupGuide@@UAE@XZ')
(997, 1255, 2020728407L, '??1CSmartDockingGroupGuidesManager@@UAE@XZ')
(998, 1256, 2020731690L, '??1CSmartDockingHighlighterWnd@@UAE@XZ')
(999, 1257, 2020733040L, '??1CSmartDockingManager@@UAE@XZ')
(1000, 1258, 2020724149L, '??1CSmartDockingStandaloneGuide@@UAE@XZ')
(1001, 1259, 2020730419L, '??1CSmartDockingStandaloneGuideWnd@@UAE@XZ')
(1002, 1260, 2021750472L, '??1CSocket@@UAE@XZ')
(1003, 1261, 2021752095L, '??1CSocketFile@@UAE@XZ')
(1004, 1262, 2021858999L, '??1CSpinButtonCtrl@@UAE@XZ')
(1005, 1263, 2021852547L, '??1CSplitButton@@UAE@XZ')
(1006, 1264, 2021922331L, '??1CSplitterWnd@@UAE@XZ')
(1007, 1265, 2020737025L, '??1CSplitterWndEx@@UAE@XZ')
(1008, 1266, 2021852260L, '??1CStatic@@UAE@XZ')
(1009, 1267, 2021258504L, '??1CStatusBar@@UAE@XZ')
(1010, 1268, 2021855656L, '??1CStatusBarCtrl@@UAE@XZ')
(1011, 1269, 2021545636L, '??1CStdioFile@@UAE@XZ')
(1012, 1270, 2021241644L, '??1CStringArray@@UAE@XZ')
(1013, 1271, 2021561889L, '??1CStringList@@UAE@XZ')
(1014, 1272, 2021568292L, '??1CSyncObject@@UAE@XZ')
(1015, 1273, 2020749969L, '??1CTabbedPane@@UAE@XZ')
(1016, 1274, 2021860473L, '??1CTabCtrl@@UAE@XZ')
(1017, 1275, 2020773436L, '??1CTabView@@MAE@XZ')
(1018, 1276, 2020774651L, '??1CTagManager@@UAE@XZ')
(1019, 1277, 2020786333L, '??1CTaskDialog@@UAE@XZ')
(1020, 1278, 2020821927L, '??1CThreadLocalObject@@QAE@XZ')
(1021, 1279, 2020820505L, '??1CThreadSlotData@@QAE@XZ')
(1022, 1280, 2021262571L, '??1CToolBar@@UAE@XZ')
(1023, 1281, 2021854941L, '??1CToolBarCtrl@@UAE@XZ')
(1024, 1282, 2021758431L, '??1CToolTipCtrl@@UAE@XZ')
(1025, 1283, 2020990630L, '??1CTooltipManager@@UAE@XZ')
(1026, 1284, 2021857629L, '??1CTreeCtrl@@UAE@XZ')
(1027, 1285, 2021243270L, '??1CUIntArray@@UAE@XZ')
(1028, 1286, 2020991441L, '??1CUserTool@@UAE@XZ')
(1029, 1287, 2020993131L, '??1CUserToolsManager@@UAE@XZ')
(1030, 1288, 2021766509L, '??1CView@@UAE@XZ')
(1031, 1289, 2021204695L, '??1CVSListBox@@UAE@XZ')
(1032, 1290, 2021200726L, '??1CVSListBoxBase@@UAE@XZ')
(1033, 1291, 2021200258L, '??1CVSListBoxEditCtrl@@UAE@XZ')
(1034, 1292, 2021221052L, '??1CWinApp@@UAE@XZ')
(1035, 1293, 2021208265L, '??1CWinAppEx@@UAE@XZ')
(1036, 1294, 2021901806L, '??1CWindowDC@@UAE@XZ')
(1037, 1295, 2021756459L, '??1CWinThread@@UAE@XZ')
(1038, 1296, 2021828742L, '??1CWnd@@UAE@XZ')
(1039, 1297, 2021243479L, '??1CWordArray@@UAE@XZ')
(1040, 1298, 2020236147L, '??2@YAPAXI@Z')
(1041, 1299, 2020820376L, '??2CNoTrackObject@@SGPAXI@Z')
(1042, 1300, 2020236217L, '??3@YAXPAX@Z')
(1043, 1301, 2020820410L, '??3CNoTrackObject@@SGXPAX@Z')
(1044, 1302, 2021952056L, '??4?$CSimpleStringT@_W$00@ATL@@QAEAAV01@ABV?$CSimpleStringT@_W$0A@@1@@Z')
(1045, 1303, 2021952056L, '??4?$CSimpleStringT@_W$00@ATL@@QAEAAV01@ABV01@@Z')
(1046, 1304, 2019844387L, '??4?$CSimpleStringT@_W$00@ATL@@QAEAAV01@PB_W@Z')
(1047, 1305, 2021429794L, '??4?$CSimpleStringT@D$00@ATL@@QAEAAV01@ABV?$CSimpleStringT@D$0A@@1@@Z')
(1048, 1306, 2021429794L, '??4?$CSimpleStringT@D$00@ATL@@QAEAAV01@ABV01@@Z')
(1049, 1307, 2021948001L, '??4?$CSimpleStringT@D$00@ATL@@QAEAAV01@PBD@Z')
(1050, 1308, 2021952803L, '??4?$CStringT@_WV?$StrTraitMFC_DLL@_WV?$ChTraitsCRT@_W@ATL@@@@@ATL@@QAEAAV01@_W@Z')
(1051, 1309, 2021955413L, '??4?$CStringT@_WV?$StrTraitMFC_DLL@_WV?$ChTraitsCRT@_W@ATL@@@@@ATL@@QAEAAV01@ABUtagVARIANT@@@Z')
(1052, 1310, 2019845379L, '??4?$CStringT@_WV?$StrTraitMFC_DLL@_WV?$ChTraitsCRT@_W@ATL@@@@@ATL@@QAEAAV01@ABV01@@Z')
(1053, 1311, 2021952846L, '??4?$CStringT@_WV?$StrTraitMFC_DLL@_WV?$ChTraitsCRT@_W@ATL@@@@@ATL@@QAEAAV01@D@Z')
(1054, 1312, 2019844387L, '??4?$CStringT@_WV?$StrTraitMFC_DLL@_WV?$ChTraitsCRT@_W@ATL@@@@@ATL@@QAEAAV01@PB_W@Z')
(1055, 1313, 2021223455L, '??4?$CStringT@_WV?$StrTraitMFC_DLL@_WV?$ChTraitsCRT@_W@ATL@@@@@ATL@@QAEAAV01@PBD@Z')
(1056, 1314, 2021952787L, '??4?$CStringT@_WV?$StrTraitMFC_DLL@_WV?$ChTraitsCRT@_W@ATL@@@@@ATL@@QAEAAV01@PBE@Z')
(1057, 1315, 2021948068L, '??4?$CStringT@DV?$StrTraitMFC_DLL@DV?$ChTraitsCRT@D@ATL@@@@@ATL@@QAEAAV01@_W@Z')
(1058, 1316, 2021954579L, '??4?$CStringT@DV?$StrTraitMFC_DLL@DV?$ChTraitsCRT@D@ATL@@@@@ATL@@QAEAAV01@ABUtagVARIANT@@@Z')
(1059, 1317, 2021429881L, '??4?$CStringT@DV?$StrTraitMFC_DLL@DV?$ChTraitsCRT@D@ATL@@@@@ATL@@QAEAAV01@ABV01@@Z')
(1060, 1318, 2021948029L, '??4?$CStringT@DV?$StrTraitMFC_DLL@DV?$ChTraitsCRT@D@ATL@@@@@ATL@@QAEAAV01@D@Z')
(1061, 1319, 2021224322L, '??4?$CStringT@DV?$StrTraitMFC_DLL@DV?$ChTraitsCRT@D@ATL@@@@@ATL@@QAEAAV01@PB_W@Z')
(1062, 1320, 2021948001L, '??4?$CStringT@DV?$StrTraitMFC_DLL@DV?$ChTraitsCRT@D@ATL@@@@@ATL@@QAEAAV01@PBD@Z')
(1063, 1321, 2021948001L, '??4?$CStringT@DV?$StrTraitMFC_DLL@DV?$ChTraitsCRT@D@ATL@@@@@ATL@@QAEAAV01@PBE@Z')
(1064, 1322, 2019961457L, '??4CMFCControlRendererInfo@@QAEAAV0@ABV0@@Z')
(1065, 1323, 2021740840L, '??4COleCurrency@@QAEABV0@ABUtagVARIANT@@@Z')
(1066, 1324, 2021740805L, '??4COleCurrency@@QAEABV0@ABV0@@Z')
(1067, 1325, 2021740774L, '??4COleCurrency@@QAEABV0@TtagCY@@@Z')
(1068, 1326, 2021653509L, '??4COleDispatchDriver@@QAEABV0@ABV0@@Z')
(1069, 1327, 2021742971L, '??4COleSafeArray@@QAEAAV0@ABUtagVARIANT@@@Z')
(1070, 1328, 2021742971L, '??4COleSafeArray@@QAEAAV0@ABV0@@Z')
(1071, 1329, 2021742971L, '??4COleSafeArray@@QAEAAV0@ABVCOleVariant@@@Z')
(1072, 1330, 2021742971L, '??4COleSafeArray@@QAEAAV0@PBUtagVARIANT@@@Z')
(1073, 1331, 2021738685L, '??4COleVariant@@QAEABV0@_J@Z')
(1074, 1332, 2021738736L, '??4COleVariant@@QAEABV0@_K@Z')
(1075, 1333, 2021738313L, '??4COleVariant@@QAEABV0@ABUtagVARIANT@@@Z')
(1076, 1334, 2021738450L, '??4COleVariant@@QAEABV0@ABV?$CStringT@_WV?$StrTraitMFC_DLL@_WV?$ChTraitsCRT@_W@ATL@@@@@ATL@@@Z')
(1077, 1335, 2021738313L, '??4COleVariant@@QAEABV0@ABV0@@Z')
(1078, 1336, 2021738977L, '??4COleVariant@@QAEABV0@ABVCByteArray@@@Z')
(1079, 1337, 2021739037L, '??4COleVariant@@QAEABV0@ABVCLongBinary@@@Z')
(1080, 1338, 2021738787L, '??4COleVariant@@QAEABV0@ABVCOleCurrency@@@Z')
(1081, 1339, 2021738930L, '??4COleVariant@@QAEABV0@ABVCOleDateTime@ATL@@@Z')
(1082, 1340, 2021738494L, '??4COleVariant@@QAEABV0@E@Z')
(1083, 1341, 2021738539L, '??4COleVariant@@QAEABV0@F@Z')
(1084, 1342, 2021738609L, '??4COleVariant@@QAEABV0@J@Z')
(1085, 1343, 2021738840L, '??4COleVariant@@QAEABV0@M@Z')
(1086, 1344, 2021738885L, '??4COleVariant@@QAEABV0@N@Z')
(1087, 1345, 2021738313L, '??4COleVariant@@QAEABV0@PBUtagVARIANT@@@Z')
(1088, 1346, 2021738354L, '??4COleVariant@@QAEABV0@QB_W@Z')
(1089, 1347, 2020465406L, '??4CRecentDockSiteInfo@@QAEAAV0@AAV0@@Z')
(1090, 1348, 2020465512L, '??4CRecentPaneContainerInfo@@QAEAAV0@AAV0@@Z')
(1091, 1349, 2021239996L, '??5@YGAAVCArchive@@AAV0@AAPAVCByteArray@@@Z')
(1092, 1350, 2021664348L, '??5@YGAAVCArchive@@AAV0@AAPAVCDocItem@@@Z')
(1093, 1351, 2020005275L, '??5@YGAAVCArchive@@AAV0@AAPAVCDockablePane@@@Z')
(1094, 1352, 2020026176L, '??5@YGAAVCArchive@@AAV0@AAPAVCDockablePaneAdapter@@@Z')
(1095, 1353, 2021516779L, '??5@YGAAVCArchive@@AAV0@AAPAVCDockState@@@Z')
(1096, 1354, 2021240676L, '??5@YGAAVCArchive@@AAV0@AAPAVCDWordArray@@@Z')
(1097, 1355, 2020237258L, '??5@YGAAVCArchive@@AAV0@AAPAVCHelpComboBoxButton@@@Z')
(1098, 1356, 2021565375L, '??5@YGAAVCArchive@@AAV0@AAPAVCMapStringToOb@@@Z')
(1099, 1357, 2021567161L, '??5@YGAAVCArchive@@AAV0@AAPAVCMapStringToString@@@Z')
(1100, 1358, 2021567725L, '??5@YGAAVCArchive@@AAV0@AAPAVCMapWordToOb@@@Z')
(1101, 1359, 2019921802L, '??5@YGAAVCArchive@@AAV0@AAPAVCMFCColorBar@@@Z')
(1102, 1360, 2019939739L, '??5@YGAAVCArchive@@AAV0@AAPAVCMFCColorMenuButton@@@Z')
(1103, 1361, 2019972618L, '??5@YGAAVCArchive@@AAV0@AAPAVCMFCCustomizeButton@@@Z')
(1104, 1362, 2020102483L, '??5@YGAAVCArchive@@AAV0@AAPAVCMFCDropDownFrame@@@Z')
(1105, 1363, 2020101392L, '??5@YGAAVCArchive@@AAV0@AAPAVCMFCDropDownToolBar@@@Z')
(1106, 1364, 2020104829L, '??5@YGAAVCArchive@@AAV0@AAPAVCMFCDropDownToolbarButton@@@Z')
(1107, 1365, 2020237368L, '??5@YGAAVCArchive@@AAV0@AAPAVCMFCMenuBar@@@Z')
(1108, 1366, 2020276995L, '??5@YGAAVCArchive@@AAV0@AAPAVCMFCOutlookBar@@@Z')
(1109, 1367, 2020280422L, '??5@YGAAVCArchive@@AAV0@AAPAVCMFCOutlookBarPane@@@Z')
(1110, 1368, 2020288952L, '??5@YGAAVCArchive@@AAV0@AAPAVCMFCOutlookBarPaneAdapter@@@Z')
(1111, 1369, 2020289120L, '??5@YGAAVCArchive@@AAV0@AAPAVCMFCOutlookBarPaneButton@@@Z')
(1112, 1370, 2020372176L, '??5@YGAAVCArchive@@AAV0@AAPAVCMFCPopupMenu@@@Z')
(1113, 1371, 2020396124L, '??5@YGAAVCArchive@@AAV0@AAPAVCMFCPopupMenuBar@@@Z')
(1114, 1372, 2020794630L, '??5@YGAAVCArchive@@AAV0@AAPAVCMFCTasksPane@@@Z')
(1115, 1373, 2020818968L, '??5@YGAAVCArchive@@AAV0@AAPAVCMFCTasksPaneFrameWnd@@@Z')
(1116, 1374, 2020793761L, '??5@YGAAVCArchive@@AAV0@AAPAVCMFCTasksPaneToolBar@@@Z')
(1117, 1375, 2020822362L, '??5@YGAAVCArchive@@AAV0@AAPAVCMFCToolBar@@@Z')
(1118, 1376, 2020868208L, '??5@YGAAVCArchive@@AAV0@AAPAVCMFCToolBarButton@@@Z')
(1119, 1377, 2019920506L, '??5@YGAAVCArchive@@AAV0@AAPAVCMFCToolBarColorButton@@@Z')
(1120, 1378, 2020884621L, '??5@YGAAVCArchive@@AAV0@AAPAVCMFCToolBarComboBoxButton@@@Z')
(1121, 1379, 2020896583L, '??5@YGAAVCArchive@@AAV0@AAPAVCMFCToolBarDateTimeCtrl@@@Z')
(1122, 1380, 2020901154L, '??5@YGAAVCArchive@@AAV0@AAPAVCMFCToolBarEditBoxButton@@@Z')
(1123, 1381, 2020905570L, '??5@YGAAVCArchive@@AAV0@AAPAVCMFCToolBarFontComboBox@@@Z')
(1124, 1382, 2020907766L, '??5@YGAAVCArchive@@AAV0@AAPAVCMFCToolBarFontSizeComboBox@@@Z')
(1125, 1383, 2020940790L, '??5@YGAAVCArchive@@AAV0@AAPAVCMFCToolBarMenuButton@@@Z')
(1126, 1384, 2020979653L, '??5@YGAAVCArchive@@AAV0@AAPAVCMFCToolBarSpinEditBoxButton@@@Z')
(1127, 1385, 2020980915L, '??5@YGAAVCArchive@@AAV0@AAPAVCMFCToolBarSystemMenuButton@@@Z')
(1128, 1386, 2020254681L, '??5@YGAAVCArchive@@AAV0@AAPAVCMouseManager@@@Z')
(1129, 1387, 2020259828L, '??5@YGAAVCArchive@@AAV0@AAPAVCMultiPaneFrameWnd@@@Z')
(1130, 1388, 2021241431L, '??5@YGAAVCArchive@@AAV0@AAPAVCObArray@@@Z')
(1131, 1389, 2021561322L, '??5@YGAAVCArchive@@AAV0@AAPAVCObList@@@Z')
(1132, 1390, 2020340280L, '??5@YGAAVCArchive@@AAV0@AAPAVCPaneDialog@@@Z')
(1133, 1391, 2020347236L, '??5@YGAAVCArchive@@AAV0@AAPAVCPaneFrameWnd@@@Z')
(1134, 1392, 2021815857L, '??5@YGAAVCArchive@@AAV0@AAPAVCRichEditCntrItem@@@Z')
(1135, 1393, 2021243207L, '??5@YGAAVCArchive@@AAV0@AAPAVCStringArray@@@Z')
(1136, 1394, 2021563321L, '??5@YGAAVCArchive@@AAV0@AAPAVCStringList@@@Z')
(1137, 1395, 2020749855L, '??5@YGAAVCArchive@@AAV0@AAPAVCTabbedPane@@@Z')
(1138, 1396, 2020793460L, '??5@YGAAVCArchive@@AAV0@AAPAVCTasksPaneHistoryButton@@@Z')
(1139, 1397, 2020793635L, '??5@YGAAVCArchive@@AAV0@AAPAVCTasksPaneMenuButton@@@Z')
(1140, 1398, 2020792861L, '??5@YGAAVCArchive@@AAV0@AAPAVCTasksPaneNavigateButton@@@Z')
(1141, 1399, 2020991296L, '??5@YGAAVCArchive@@AAV0@AAPAVCUserTool@@@Z')
(1142, 1400, 2021244653L, '??5@YGAAVCArchive@@AAV0@AAPAVCWordArray@@@Z')
(1143, 1401, 2021740314L, '??5@YGAAVCArchive@@AAV0@AAVCComBSTR@ATL@@@Z')
(1144, 1402, 2021742427L, '??5@YGAAVCArchive@@AAV0@AAVCOleCurrency@@@Z')
(1145, 1403, 2021742515L, '??5@YGAAVCArchive@@AAV0@AAVCOleDateTime@ATL@@@Z')
(1146, 1404, 2021742515L, '??5@YGAAVCArchive@@AAV0@AAVCOleDateTimeSpan@ATL@@@Z')
(1147, 1405, 2021739630L, '??5@YGAAVCArchive@@AAV0@AAVCOleVariant@@@Z')
(1148, 1406, 2021758053L, '??5@YGAAVCArchive@@AAV0@AAVCTime@ATL@@@Z')
(1149, 1407, 2021758180L, '??5@YGAAVCArchive@@AAV0@AAVCTimeSpan@ATL@@@Z')
(1150, 1408, 2021740227L, '??6@YGAAVCArchive@@AAV0@VCComBSTR@ATL@@@Z')
(1151, 1409, 2021742384L, '??6@YGAAVCArchive@@AAV0@VCOleCurrency@@@Z')
(1152, 1410, 2021742475L, '??6@YGAAVCArchive@@AAV0@VCOleDateTime@ATL@@@Z')
(1153, 1411, 2021742475L, '??6@YGAAVCArchive@@AAV0@VCOleDateTimeSpan@ATL@@@Z')
(1154, 1412, 2021739145L, '??6@YGAAVCArchive@@AAV0@VCOleVariant@@@Z')
(1155, 1413, 2021758007L, '??6@YGAAVCArchive@@AAV0@VCTime@ATL@@@Z')
(1156, 1414, 2021758134L, '??6@YGAAVCArchive@@AAV0@VCTimeSpan@ATL@@@Z')
(1157, 1415, 2021530418L, '??6CDumpContext@@QAEAAV0@_J@Z')
(1158, 1416, 2021530498L, '??6CDumpContext@@QAEAAV0@_K@Z')
(1159, 1417, 2021530705L, '??6CDumpContext@@QAEAAV0@ABVCObject@@@Z')
(1160, 1418, 2021529871L, '??6CDumpContext@@QAEAAV0@E@Z')
(1161, 1419, 2021530029L, '??6CDumpContext@@QAEAAV0@G@Z')
(1162, 1420, 2021530187L, '??6CDumpContext@@QAEAAV0@H@Z')
(1163, 1421, 2021530264L, '??6CDumpContext@@QAEAAV0@I@Z')
(1164, 1422, 2021530187L, '??6CDumpContext@@QAEAAV0@J@Z')
(1165, 1423, 2021530264L, '??6CDumpContext@@QAEAAV0@K@Z')
(1166, 1424, 2021530799L, '??6CDumpContext@@QAEAAV0@PAUHACCEL__@@@Z')
(1167, 1425, 2021530799L, '??6CDumpContext@@QAEAAV0@PAUHDC__@@@Z')
(1168, 1426, 2021530799L, '??6CDumpContext@@QAEAAV0@PAUHFONT__@@@Z')
(1169, 1427, 2021530799L, '??6CDumpContext@@QAEAAV0@PAUHMENU__@@@Z')
(1170, 1428, 2021530799L, '??6CDumpContext@@QAEAAV0@PAUHWND__@@@Z')
(1171, 1429, 2021529686L, '??6CDumpContext@@QAEAAV0@PB_W@Z')
(1172, 1430, 2021531012L, '??6CDumpContext@@QAEAAV0@PBD@Z')
(1173, 1431, 2021530658L, '??6CDumpContext@@QAEAAV0@PBVCObject@@@Z')
(1174, 1432, 2021530721L, '??6CDumpContext@@QAEAAV0@PBX@Z')
(1175, 1433, 2021743023L, '??8COleSafeArray@@QBEHABUtagSAFEARRAY@@@Z')
(1176, 1434, 2021743048L, '??8COleSafeArray@@QBEHABUtagVARIANT@@@Z')
(1177, 1435, 2021743048L, '??8COleSafeArray@@QBEHABV0@@Z')
(1178, 1436, 2021743048L, '??8COleSafeArray@@QBEHABVCOleVariant@@@Z')
(1179, 1437, 2021743023L, '??8COleSafeArray@@QBEHPBUtagSAFEARRAY@@@Z')
(1180, 1438, 2021743048L, '??8COleSafeArray@@QBEHPBUtagVARIANT@@@Z')
(1181, 1439, 2021737980L, '??8COleVariant@@QBEHABUtagVARIANT@@@Z')
(1182, 1440, 2019844223L, '??A?$CSimpleStringT@_W$00@ATL@@QBE_WH@Z')
(1183, 1441, 2021946463L, '??A?$CSimpleStringT@D$00@ATL@@QBEDH@Z')
(1184, 1442, 2021563617L, '??ACMapPtrToPtr@@QAEAAPAXPAX@Z')
(1185, 1443, 2021564206L, '??ACMapPtrToWord@@QAEAAGPAX@Z')
(1186, 1444, 2021564913L, '??ACMapStringToOb@@QAEAAPAVCObject@@PB_W@Z')
(1187, 1445, 2021564913L, '??ACMapStringToPtr@@QAEAAPAXPB_W@Z')
(1188, 1446, 2021566437L, '??ACMapStringToString@@QAEAAV?$CStringT@_WV?$StrTraitMFC_DLL@_WV?$ChTraitsCRT@_W@ATL@@@@@ATL@@PB_W@Z')
(1189, 1447, 2021567995L, '??ACMapWordToOb@@QAEAAPAVCObject@@G@Z')
(1190, 1448, 2021567995L, '??ACMapWordToPtr@@QAEAAPAXG@Z')
(1191, 1449, 2021946421L, '??B?$CSimpleStringT@_W$00@ATL@@QAEAAV?$CSimpleStringT@_W$0A@@1@XZ')
(1192, 1450, 2021702797L, '??B?$CSimpleStringT@_W$00@ATL@@QBEPB_WXZ')
(1193, 1451, 2021946421L, '??B?$CSimpleStringT@D$00@ATL@@QAEAAV?$CSimpleStringT@D$0A@@1@XZ')
(1194, 1452, 2021702797L, '??B?$CSimpleStringT@D$00@ATL@@QBEPBDXZ')
(1195, 1453, 2021946421L, '??B?$CStringT@_WV?$StrTraitMFC_DLL@_WV?$ChTraitsCRT@_W@ATL@@@@@ATL@@QAEAAV?$CSimpleStringT@_W$0A@@1@XZ')
(1196, 1454, 2021946421L, '??B?$CStringT@DV?$StrTraitMFC_DLL@DV?$ChTraitsCRT@D@ATL@@@@@ATL@@QAEAAV?$CSimpleStringT@D$0A@@1@XZ')
(1197, 1455, 2021741441L, '??DCOleCurrency@@QBE?AV0@J@Z')
(1198, 1456, 2021741258L, '??GCOleCurrency@@QBE?AV0@ABV0@@Z')
(1199, 1457, 2021741365L, '??GCOleCurrency@@QBE?AV0@XZ')
(1200, 1458, 2021741151L, '??HCOleCurrency@@QBE?AV0@ABV0@@Z')
(1201, 1459, 2021741718L, '??KCOleCurrency@@QBE?AV0@J@Z')
(1202, 1460, 2021740991L, '??MCOleCurrency@@QBEHABV0@@Z')
(1203, 1461, 2021741071L, '??NCOleCurrency@@QBEHABV0@@Z')
(1204, 1462, 2021741031L, '??OCOleCurrency@@QBEHABV0@@Z')
(1205, 1463, 2021741111L, '??PCOleCurrency@@QBEHABV0@@Z')
(1206, 1464, 2019850433L, '??Y?$CSimpleStringT@_W$00@ATL@@QAEAAV01@_W@Z')
(1207, 1465, 2019844089L, '??Y?$CSimpleStringT@_W$00@ATL@@QAEAAV01@ABV01@@Z')
(1208, 1466, 2019844538L, '??Y?$CSimpleStringT@_W$00@ATL@@QAEAAV01@D@Z')
(1209, 1467, 2021952143L, '??Y?$CSimpleStringT@_W$00@ATL@@QAEAAV01@E@Z')
(1210, 1468, 2019850507L, '??Y?$CSimpleStringT@_W$00@ATL@@QAEAAV01@PB_W@Z')
(1211, 1469, 2021948208L, '??Y?$CSimpleStringT@D$00@ATL@@QAEAAV01@_W@Z')
(1212, 1470, 2021946429L, '??Y?$CSimpleStringT@D$00@ATL@@QAEAAV01@ABV01@@Z')
(1213, 1471, 2021948208L, '??Y?$CSimpleStringT@D$00@ATL@@QAEAAV01@D@Z')
(1214, 1472, 2021948208L, '??Y?$CSimpleStringT@D$00@ATL@@QAEAAV01@E@Z')
(1215, 1473, 2021948105L, '??Y?$CSimpleStringT@D$00@ATL@@QAEAAV01@PBD@Z')
(1216, 1474, 2019850433L, '??Y?$CStringT@_WV?$StrTraitMFC_DLL@_WV?$ChTraitsCRT@_W@ATL@@@@@ATL@@QAEAAV01@_W@Z')
(1217, 1475, 2021955503L, '??Y?$CStringT@_WV?$StrTraitMFC_DLL@_WV?$ChTraitsCRT@_W@ATL@@@@@ATL@@QAEAAV01@ABUtagVARIANT@@@Z')
(1218, 1476, 2019844089L, '??Y?$CStringT@_WV?$StrTraitMFC_DLL@_WV?$ChTraitsCRT@_W@ATL@@@@@ATL@@QAEAAV01@ABV?$CSimpleStringT@_W$00@1@@Z')
(1219, 1477, 2019844538L, '??Y?$CStringT@_WV?$StrTraitMFC_DLL@_WV?$ChTraitsCRT@_W@ATL@@@@@ATL@@QAEAAV01@D@Z')
(1220, 1478, 2021952143L, '??Y?$CStringT@_WV?$StrTraitMFC_DLL@_WV?$ChTraitsCRT@_W@ATL@@@@@ATL@@QAEAAV01@E@Z')
(1221, 1479, 2019850507L, '??Y?$CStringT@_WV?$StrTraitMFC_DLL@_WV?$ChTraitsCRT@_W@ATL@@@@@ATL@@QAEAAV01@PB_W@Z')
(1222, 1480, 2021390243L, '??Y?$CStringT@_WV?$StrTraitMFC_DLL@_WV?$ChTraitsCRT@_W@ATL@@@@@ATL@@QAEAAV01@PBD@Z')
(1223, 1481, 2021948208L, '??Y?$CStringT@DV?$StrTraitMFC_DLL@DV?$ChTraitsCRT@D@ATL@@@@@ATL@@QAEAAV01@_W@Z')
(1224, 1482, 2021954669L, '??Y?$CStringT@DV?$StrTraitMFC_DLL@DV?$ChTraitsCRT@D@ATL@@@@@ATL@@QAEAAV01@ABUtagVARIANT@@@Z')
(1225, 1483, 2021946429L, '??Y?$CStringT@DV?$StrTraitMFC_DLL@DV?$ChTraitsCRT@D@ATL@@@@@ATL@@QAEAAV01@ABV?$CSimpleStringT@D$00@1@@Z')
(1226, 1484, 2021948208L, '??Y?$CStringT@DV?$StrTraitMFC_DLL@DV?$ChTraitsCRT@D@ATL@@@@@ATL@@QAEAAV01@D@Z')
(1227, 1485, 2021948208L, '??Y?$CStringT@DV?$StrTraitMFC_DLL@DV?$ChTraitsCRT@D@ATL@@@@@ATL@@QAEAAV01@E@Z')
(1228, 1486, 2021948133L, '??Y?$CStringT@DV?$StrTraitMFC_DLL@DV?$ChTraitsCRT@D@ATL@@@@@ATL@@QAEAAV01@PB_W@Z')
(1229, 1487, 2021948105L, '??Y?$CStringT@DV?$StrTraitMFC_DLL@DV?$ChTraitsCRT@D@ATL@@@@@ATL@@QAEAAV01@PBD@Z')
(1230, 1488, 2021518186L, '?_AfxDeleteRegKey@@YGHPB_W@Z')
(1231, 1489, 2021607479L, '?_AfxFindSiteOrWnd@@YGPAUCOleControlSiteOrWnd@@PAVCWnd@@0@Z')
(1232, 1490, 2021747077L, '?_AfxSocketInit@@YGHPAUWSAData@@@Z')
(1233, 1491, 2021233983L, '?Abort@CArchive@@QAEXXZ')
(1234, 1492, 2021533745L, '?Abort@CFile@@UAEXXZ')
(1235, 1493, 2021552499L, '?Abort@CInternetFile@@UAEXXZ')
(1236, 1494, 2021542360L, '?Abort@CMemFile@@UAEXXZ')
(1237, 1495, 2021498465L, '?Abort@CMirrorFile@@UAEXXZ')
(1238, 1496, 2021713239L, '?Abort@COleStreamFile@@UAEXXZ')
(1239, 1497, 2021752326L, '?Abort@CSocketFile@@UAEXXZ')
(1240, 1498, 2021547175L, '?Abort@CStdioFile@@UAEXXZ')
(1241, 1499, 2021603383L, '?AboutToDo@XNotifyDBEvents@COleControlSite@@UAGJKKQAUtagDBNOTIFYREASON@@@Z')
(1242, 1500, 2021869588L, '?accDoDefaultAction@CCheckListBox@@MAEJUtagVARIANT@@@Z')
(1243, 1501, 2021843053L, '?accDoDefaultAction@CWnd@@UAEJUtagVARIANT@@@Z')
(1244, 1502, 2021841711L, '?accDoDefaultAction@XAccessible@CWnd@@UAGJUtagVARIANT@@@Z')
(1245, 1503, 2021747728L, '?Accept@CAsyncSocket@@UAEHAAV1@PAUsockaddr@@PAH@Z')
(1246, 1504, 2021750729L, '?Accept@CSocket@@UAEHAAVCAsyncSocket@@PAUsockaddr@@PAH@Z')
(1247, 1505, 2021743606L, '?AccessData@COleSafeArray@@QAEXPAPAX@Z')
(1248, 1506, 2019862404L, '?accHitTest@CBasePane@@UAEJJJPAUtagVARIANT@@@Z')
(1249, 1507, 2020446368L, '?accHitTest@CMFCPropertyGridCtrl@@UAEJJJPAUtagVARIANT@@@Z')
(1250, 1508, 2021843021L, '?accHitTest@CWnd@@UAEJJJPAUtagVARIANT@@@Z')
(1251, 1509, 2021841635L, '?accHitTest@XAccessible@CWnd@@UAGJJJPAUtagVARIANT@@@Z')
(1252, 1510, 2019862164L, '?accLocation@CBasePane@@UAEJPAJ000UtagVARIANT@@@Z')
(1253, 1511, 2020446151L, '?accLocation@CMFCPropertyGridCtrl@@UAEJPAJ000UtagVARIANT@@@Z')
(1254, 1512, 2021842925L, '?accLocation@CWnd@@UAEJPAJ000UtagVARIANT@@@Z')
(1255, 1513, 2021841459L, '?accLocation@XAccessible@CWnd@@UAGJPAJ000UtagVARIANT@@@Z')
(1256, 1514, 2021842976L, '?accNavigate@CWnd@@UAEJJUtagVARIANT@@PAU2@@Z')
(1257, 1515, 2021841550L, '?accNavigate@XAccessible@CWnd@@UAGJJUtagVARIANT@@PAU3@@Z')
(1258, 1516, 2020863602L, '?AccNotifyObjectFocusEvent@CMFCToolBar@@MAEXH@Z')
(1259, 1517, 2019862111L, '?accSelect@CBasePane@@UAEJJUtagVARIANT@@@Z')
(1260, 1518, 2019862111L, '?accSelect@CMFCPropertyGridCtrl@@UAEJJUtagVARIANT@@@Z')
(1261, 1519, 2021842883L, '?accSelect@CWnd@@UAEJJUtagVARIANT@@@Z')
(1262, 1520, 2021841377L, '?accSelect@XAccessible@CWnd@@UAGJJUtagVARIANT@@@Z')
(1263, 1521, 2021631750L, '?Activate@COleClientItem@@QAEXJPAVCView@@PAUtagMSG@@@Z')
(1264, 1522, 2021307581L, '?Activate@XPropertyPage@COlePropertyPage@@UAGJPAUHWND__@@PBUtagRECT@@H@Z')
(1265, 1523, 2021665292L, '?ActivateAndShow@COleDocObjectItem@@IAEXXZ')
(1266, 1524, 2021633173L, '?ActivateAs@COleClientItem@@UAEHPB_WABU_GUID@@1@Z')
(1267, 1525, 2021815559L, '?ActivateAs@CRichEditCntrItem@@UAEHPB_WABU_GUID@@1@Z')
(1268, 1526, 2020474920L, '?ActivateContextCategory@CMFCRibbonBar@@QAEHI@Z')
(1269, 1527, 2021668622L, '?ActivateDocObject@CDocObjectServer@@QAEXXZ')
(1270, 1528, 2021713969L, '?ActivateDocObject@COleServerDoc@@QAEXXZ')
(1271, 1529, 2021892574L, '?ActivateFrame@CFrameWnd@@UAEXH@Z')
(1272, 1530, 2021912728L, '?ActivateFrame@CMDIChildWnd@@UAEXH@Z')
(1273, 1531, 2020218221L, '?ActivateFrame@CMDIChildWndEx@@UAEXH@Z')
(1274, 1532, 2021717454L, '?ActivateInPlace@COleServerDoc@@QAEHXZ')
(1275, 1533, 2020772768L, '?ActivateMDITab@CMFCTabCtrl@@QAEXH@Z')
(1276, 1534, 2021664941L, '?ActivateMe@XOleDocumentSite@COleDocObjectItem@@UAGJPAUIOleDocumentView@@@Z')
(1277, 1535, 2021934546L, '?ActivateNext@CSplitterWnd@@UAEXH@Z')
(1278, 1536, 2020381665L, '?ActivatePopupMenu@CMFCPopupMenu@@SGHPAVCFrameWnd@@PAV1@@Z')
(1279, 1537, 2021836377L, '?ActivateTopParent@CWnd@@QAEXXZ')
(1280, 1538, 2020136486L, '?ActiveItemRecalcLayout@CFrameWndEx@@QAEXXZ')
(1281, 1539, 2020232741L, '?ActiveItemRecalcLayout@CMDIFrameWndEx@@QAEXXZ')
(1282, 1540, 2020935466L, '?AdaptColors@CMFCToolBarImages@@QAEXKK@Z')
(1283, 1541, 2020630684L, '?Add@CMFCRibbonMainPanel@@UAEXPAVCMFCRibbonBaseElement@@@Z')
(1284, 1542, 2020648799L, '?Add@CMFCRibbonPanel@@UAEXPAVCMFCRibbonBaseElement@@@Z')
(1285, 1543, 2020688189L, '?Add@CMFCRibbonQuickAccessToolBar@@IAEXPAVCMFCRibbonBaseElement@@@Z')
(1286, 1544, 2021539296L, '?Add@CRecentFileList@@UAEXPB_W@Z')
(1287, 1545, 2019846820L, '?AddAutoHideWindow@CMFCAutoHideBar@@QAEPAVCMFCAutoHideButton@@PAVCDockablePane@@K@Z')
(1288, 1546, 2020461223L, '?AddBar@CMFCReBar@@QAEHPAVCWnd@@KKPB_WK@Z')
(1289, 1547, 2020461119L, '?AddBar@CMFCReBar@@QAEHPAVCWnd@@PB_WPAVCBitmap@@K@Z')
(1290, 1548, 2021270730L, '?AddBar@CReBar@@QAEHPAVCWnd@@KKPB_WK@Z')
(1291, 1549, 2021270617L, '?AddBar@CReBar@@QAEHPAVCWnd@@PB_WPAVCBitmap@@K@Z')
(1292, 1550, 2020853999L, '?AddBasicCommand@CMFCToolBar@@SGXI@Z')
(1293, 1551, 2021855054L, '?AddBitmap@CToolBarCtrl@@QAEHHI@Z')
(1294, 1552, 2021854995L, '?AddBitmap@CToolBarCtrl@@QAEHHPAVCBitmap@@@Z')
(1295, 1553, 2020282073L, '?AddBitmapImage@CMFCOutlookBarPane@@IAEHPAUHBITMAP__@@@Z')
(1296, 1554, 2020280933L, '?AddButton@CMFCOutlookBarPane@@QAEHIIIH@Z')
(1297, 1555, 2020281042L, '?AddButton@CMFCOutlookBarPane@@QAEHIPB_WIH@Z')
(1298, 1556, 2020281229L, '?AddButton@CMFCOutlookBarPane@@QAEHPAUHBITMAP__@@PB_WIH@Z')
(1299, 1557, 2020281283L, '?AddButton@CMFCOutlookBarPane@@QAEHPAUHICON__@@PB_WIHH@Z')
(1300, 1558, 2020280840L, '?AddButton@CMFCOutlookBarPane@@QAEHPB_W0IH@Z')
(1301, 1559, 2020520905L, '?AddButton@CMFCRibbonButtonsGroup@@QAEXPAVCMFCRibbonBaseElement@@@Z')
(1302, 1560, 2020819309L, '?AddButton@CMFCTasksPaneFrameWnd@@MAEXI@Z')
(1303, 1561, 2020882034L, '?AddButton@CMFCToolBarButtonsListButton@@QAEXPAVCMFCToolBarButton@@@Z')
(1304, 1562, 2020955842L, '?AddButton@CMFCToolBarsCustomizeDialog@@QAEXIABVCMFCToolBarButton@@H@Z')
(1305, 1563, 2020955944L, '?AddButton@CMFCToolBarsCustomizeDialog@@QAEXPB_WABVCMFCToolBarButton@@H@Z')
(1306, 1564, 2020360490L, '?AddButton@CPaneFrameWnd@@MAEXI@Z')
(1307, 1565, 2021201538L, '?AddButton@CVSListBoxBase@@QAEHIPB_WGEI@Z')
(1308, 1566, 2020520956L, '?AddButtons@CMFCRibbonButtonsGroup@@QAEXABV?$CList@PAVCMFCRibbonBaseElement@@PAV1@@@@Z')
(1309, 1567, 2020672616L, '?AddButtons@CMFCRibbonPanelMenuBar@@IAEXPAVCMFCRibbonBar@@ABV?$CArray@PAVCMFCRibbonBaseElement@@PAV1@@@H@Z')
(1310, 1568, 2021622936L, '?AddCachedData@COleClientItem@@IAEXPAVCOleDataSource@@@Z')
(1311, 1569, 2020473244L, '?AddCategory@CMFCRibbonBar@@QAEPAVCMFCRibbonCategory@@PB_WIIVCSize@@1HPAUCRuntimeClass@@@Z')
(1312, 1570, 2020457546L, '?AddCategoryToTree@CMFCPropertySheet@@IAEXPAVCMFCPropertySheetCategoryInfo@@@Z')
(1313, 1571, 2021639884L, '?AddClassIDToList@COleInsertDialog@@IAEXAAPAU_GUID@@AAH1PAU2@@Z')
(1314, 1572, 2019918757L, '?AddCmd@CMFCCmdUsageCount@@QAEXI@Z')
(1315, 1573, 2020556247L, '?AddColorsGroup@CMFCRibbonColorButton@@QAEXPB_WABV?$CList@KK@@H@Z')
(1316, 1574, 2020564314L, '?AddCommand@CMFCRibbonCommandsListBox@@QAEHPAVCMFCRibbonBaseElement@@HH@Z')
(1317, 1575, 2020684941L, '?AddCommand@CMFCRibbonQuickAccessToolBarDefaultState@@QAEXIH@Z')
(1318, 1576, 2020787763L, '?AddCommandControl@CTaskDialog@@QAEXHABV?$CStringT@_WV?$StrTraitMFC_DLL@_WV?$ChTraitsCRT@_W@ATL@@@@@ATL@@HH@Z')
(1319, 1577, 2020863904L, '?AddCommandUsage@CMFCToolBar@@SGXI@Z')
(1320, 1578, 2021635882L, '?AddConnection@CEnumConnections@@QAEXPAUtagCONNECTDATA@@@Z')
(1321, 1579, 2021636448L, '?AddConnPoint@CEnumConnPoints@@QAEXPAUIConnectionPoint@@@Z')
(1322, 1580, 2020473526L, '?AddContextCategory@CMFCRibbonBar@@QAEPAVCMFCRibbonCategory@@PB_W0IW4AFX_RibbonCategoryColor@@IIVCSize@@2PAUCRuntimeClass@@@Z')
(1323, 1581, 2020294010L, '?AddControl@CMFCOutlookBarTabCtrl@@QAEXPAVCWnd@@PB_WHHK@Z')
(1324, 1582, 2020572389L, '?AddCustomCategory@CMFCRibbonCustomizePropertyPage@@QAEXPB_WABV?$CList@II@@@Z')
(1325, 1583, 2020126474L, '?AddDefaultButtonsToCustomizePane@CFrameImpl@@IAEXPAVCMFCPopupMenu@@I@Z')
(1326, 1584, 2020028644L, '?AddDockSite@CDockingManager@@QAEHABUAFX_DOCKSITE_INFO@@PAPAVCDockSite@@@Z')
(1327, 1585, 2020276196L, '?AddDockSite@CFrameWndEx@@QAEXXZ')
(1328, 1586, 2020276196L, '?AddDockSite@CMDIChildWndEx@@QAEXXZ')
(1329, 1587, 2020276196L, '?AddDockSite@CMDIFrameWndEx@@QAEXXZ')
(1330, 1588, 2020276196L, '?AddDockSite@COleCntrFrameWndEx@@QAEXXZ')
(1331, 1589, 2020276196L, '?AddDockSite@COleDocIPFrameWndEx@@QAEXXZ')
(1332, 1590, 2020276196L, '?AddDockSite@COleIPFrameWndEx@@QAEXXZ')
(1333, 1591, 2021522422L, '?AddDocTemplate@CDocManager@@UAEXPAVCDocTemplate@@@Z')
(1334, 1592, 2021229436L, '?AddDocTemplate@CWinApp@@QAEXPAVCDocTemplate@@@Z')
(1335, 1593, 2021528422L, '?AddDocument@CDocTemplate@@UAEXPAVCDocument@@@Z')
(1336, 1594, 2021526326L, '?AddDocument@CMultiDocTemplate@@UAEXPAVCDocument@@@Z')
(1337, 1595, 2021527040L, '?AddDocument@CSingleDocTemplate@@UAEXPAVCDocument@@@Z')
(1338, 1596, 2020694067L, '?AddDynamicElement@CMFCRibbonStatusBar@@QAEXPAVCMFCRibbonBaseElement@@@Z')
(1339, 1597, 2020693763L, '?AddElement@CMFCRibbonStatusBar@@QAEXPAVCMFCRibbonBaseElement@@PB_WH@Z')
(1340, 1598, 2020693857L, '?AddExtendedElement@CMFCRibbonStatusBar@@QAEXPAVCMFCRibbonBaseElement@@PB_WH@Z')
(1341, 1599, 2020906660L, '?AddFont@CMFCToolBarFontComboBox@@MAEHPAUtagENUMLOGFONTW@@HPB_W@Z')
(1342, 1600, 2021658933L, '?AddFormat@CEnumFormatEtc@@QAEXPBUtagFORMATETC@@@Z')
(1343, 1601, 2021643777L, '?AddFormat@COlePasteSpecialDialog@@QAEXABUtagFORMATETC@@PA_W1K@Z')
(1344, 1602, 2021643475L, '?AddFormat@COlePasteSpecialDialog@@QAEXIKIHH@Z')
(1345, 1603, 2020129653L, '?AddFrame@CFrameImpl@@SGXPAVCFrameWnd@@@Z')
(1346, 1604, 2021294287L, '?AddFrameLevelUI@COleControl@@MAEXXZ')
(1347, 1605, 2021880529L, '?AddFrameWnd@CFrameWnd@@IAEXXZ')
(1348, 1606, 2020637794L, '?AddGroup@CMFCRibbonGallery@@QAEXPB_WAAVCMFCToolBarImages@@@Z')
(1349, 1607, 2020637928L, '?AddGroup@CMFCRibbonGallery@@QAEXPB_WH@Z')
(1350, 1608, 2020637438L, '?AddGroup@CMFCRibbonGallery@@QAEXPB_WIH@Z')
(1351, 1609, 2020801629L, '?AddGroup@CMFCTasksPane@@QAEHHPB_WHHPAUHICON__@@@Z')
(1352, 1610, 2021560840L, '?AddHead@CObList@@QAEPAU__POSITION@@PAVCObject@@@Z')
(1353, 1611, 2021560892L, '?AddHead@CObList@@QAEXPAV1@@Z')
(1354, 1612, 2021560840L, '?AddHead@CPtrList@@QAEPAU__POSITION@@PAX@Z')
(1355, 1613, 2021560892L, '?AddHead@CPtrList@@QAEXPAV1@@Z')
(1356, 1614, 2020820245L, '?AddHead@CSimpleList@@QAEXPAX@Z')
(1357, 1615, 2021562154L, '?AddHead@CStringList@@QAEPAU__POSITION@@ABV?$CStringT@_WV?$StrTraitMFC_DLL@_WV?$ChTraitsCRT@_W@ATL@@@@@ATL@@@Z')
(1358, 1616, 2021562089L, '?AddHead@CStringList@@QAEPAU__POSITION@@PB_W@Z')
(1359, 1617, 2021562344L, '?AddHead@CStringList@@QAEXPAV1@@Z')
(1360, 1618, 2020533179L, '?AddHidden@CMFCRibbonCategory@@QAEXPAVCMFCRibbonBaseElement@@@Z')
(1361, 1619, 2020050535L, '?AddHiddenMDITabbedBar@CDockingManager@@QAEXPAVCDockablePane@@@Z')
(1362, 1620, 2020924319L, '?AddIcon@CMFCToolBarImages@@QAEHPAUHICON__@@H@Z')
(1363, 1621, 2020923576L, '?AddImage@CMFCToolBarImages@@QAEHABV1@H@Z')
(1364, 1622, 2020922479L, '?AddImage@CMFCToolBarImages@@QAEHPAUHBITMAP__@@H@Z')
(1365, 1623, 2021053037L, '?AddImage@CMFCVisualManagerBitmapCacheItem@CMFCVisualManagerBitmapCache@@QAEXPAUHBITMAP__@@@Z')
(1366, 1624, 2020557632L, '?AddItem@CMFCRibbonComboBox@@UAEHPB_WK@Z')
(1367, 1625, 2020887847L, '?AddItem@CMFCToolBarComboBoxButton@@UAEHPB_WK@Z')
(1368, 1626, 2021660473L, '?AddItem@COleDocument@@UAEXPAVCDocItem@@@Z')
(1369, 1627, 2021205006L, '?AddItem@CVSListBox@@UAEHABV?$CStringT@_WV?$StrTraitMFC_DLL@_WV?$ChTraitsCRT@_W@ATL@@@@@ATL@@KH@Z')
(1370, 1628, 2020623089L, '?AddKeyEntry@CMFCRibbonKeyboardCustomizeDialog@@IAEXPAUtagACCEL@@@Z')
(1371, 1629, 2020966952L, '?AddKeyEntry@CMFCToolBarsKeyboardPropertyPage@@IAEXPAUtagACCEL@@@Z')
(1372, 1630, 2021643382L, '?AddLinkEntry@COlePasteSpecialDialog@@QAE?AW4tagOLEUIPASTEFLAG@@I@Z')
(1373, 1632, 2019954982L, '?AddMenu@CContextMenuManager@@QAEHII@Z')
(1374, 1633, 2019955085L, '?AddMenu@CContextMenuManager@@QAEHPB_WI@Z')
(1375, 1634, 2020957489L, '?AddMenu@CMFCToolBarsCustomizeDialog@@QAEHI@Z')
(1376, 1635, 2020959810L, '?AddMenuCommands@CMFCToolBarsCustomizeDialog@@QAEXPBVCMenu@@HPB_W1@Z')
(1377, 1636, 2020029413L, '?AddMiniFrame@CDockingManager@@UAEHPAVCPaneFrameWnd@@@Z')
(1378, 1637, 2020807233L, '?AddMRUFilesList@CMFCTasksPane@@QAEHHH@Z')
(1379, 1638, 2021377058L, '?AddNew@CDaoRecordset@@UAEXXZ')
(1380, 1639, 2021400846L, '?AddNew@CRecordset@@UAEXXZ')
(1381, 1640, 2020320824L, '?AddNode@CPaneContainer@@IAEXPAV1@@Z')
(1382, 1641, 2020412854L, '?AddOption@CMFCPropertyGridProperty@@QAEHPB_WH@Z')
(1383, 1642, 2021729437L, '?AddOtherClipboardData@COleServerItem@@QAEXPAVCOleDataSource@@@Z')
(1384, 1643, 2020454183L, '?AddPage@CMFCPropertySheet@@QAEXPAVCPropertyPage@@@Z')
(1385, 1644, 2020800823L, '?AddPage@CMFCTasksPane@@QAEHPB_W@Z')
(1386, 1645, 2021487488L, '?AddPage@CPropertySheet@@QAEXPAVCPropertyPage@@@Z')
(1387, 1646, 2020455397L, '?AddPageToTree@CMFCPropertySheet@@QAEXPAVCMFCPropertySheetCategoryInfo@@PAVCMFCPropertyPage@@HH@Z')
(1388, 1647, 2019856743L, '?AddPane@CBasePane@@QAEXPAV1@@Z')
(1389, 1648, 2020029032L, '?AddPane@CDockingManager@@QAEHPAVCBasePane@@HHH@Z')
(1390, 1649, 2020052812L, '?AddPane@CDockingPanesRow@@UAEXPAVCPane@@W4AFX_DOCK_METHOD@@PBUtagRECT@@H@Z')
(1391, 1650, 2020135198L, '?AddPane@CFrameWndEx@@QAEHPAVCBasePane@@H@Z')
(1392, 1651, 2020219669L, '?AddPane@CMDIChildWndEx@@QAEHPAVCBasePane@@H@Z')
(1393, 1652, 2020231725L, '?AddPane@CMDIFrameWndEx@@QAEHPAVCBasePane@@H@Z')
(1394, 1653, 2020261836L, '?AddPane@CMultiPaneFrameWnd@@UAEXPAVCBasePane@@@Z')
(1395, 1654, 2020268699L, '?AddPane@COleCntrFrameWndEx@@QAEHPAVCBasePane@@H@Z')
(1396, 1655, 2020271430L, '?AddPane@COleDocIPFrameWndEx@@QAEHPAVCBasePane@@H@Z')
(1397, 1656, 2020274137L, '?AddPane@COleIPFrameWndEx@@QAEHPAVCBasePane@@H@Z')
(1398, 1657, 2020318563L, '?AddPane@CPaneContainer@@QAEPAVCDockablePane@@PAV2@@Z')
(1399, 1658, 2020331341L, '?AddPane@CPaneContainerManager@@UAEXPAVCDockablePane@@@Z')
(1400, 1659, 2020344260L, '?AddPane@CPaneDivider@@UAEXPAVCDockablePane@@@Z')
(1401, 1660, 2020353238L, '?AddPane@CPaneFrameWnd@@UAEXPAVCBasePane@@@Z')
(1402, 1661, 2020335651L, '?AddPaneAndPaneContainer@CPaneContainerManager@@IAEHPAVCDockablePane@@PAVCPaneContainer@@K@Z')
(1403, 1662, 2020336240L, '?AddPaneAndPaneDivider@CPaneContainerManager@@IAEHPAVCDockablePane@@0PAU__POSITION@@K@Z')
(1404, 1663, 2020346256L, '?AddPaneContainer@CPaneDivider@@UAEHAAVCPaneContainerManager@@H@Z')
(1405, 1664, 2020346319L, '?AddPaneContainer@CPaneDivider@@UAEHPAVCDockablePane@@AAVCPaneContainerManager@@K@Z')
(1406, 1665, 2020331373L, '?AddPaneContainerManager@CPaneContainerManager@@UAEHAAV1@H@Z')
(1407, 1666, 2020331851L, '?AddPaneContainerManager@CPaneContainerManager@@UAEHPAVCDockablePane@@KAAV1@H@Z')
(1408, 1667, 2020332546L, '?AddPaneContainerManagerToDockablePane@CPaneContainerManager@@UAEHPAVCDockablePane@@AAV1@@Z')
(1409, 1668, 2020053248L, '?AddPaneFromRow@CDockingPanesRow@@UAEXPAVCPane@@W4AFX_DOCK_METHOD@@@Z')
(1410, 1669, 2020528810L, '?AddPanel@CMFCRibbonCategory@@QAEPAVCMFCRibbonPanel@@PB_WPAUHICON__@@PAUCRuntimeClass@@@Z')
(1411, 1670, 2020339201L, '?AddPanesToList@CPaneContainerManager@@QAEXPAVCObList@@0@Z')
(1412, 1671, 2020339519L, '?AddPaneToList@CPaneContainerManager@@QAEXPAVCDockablePane@@@Z')
(1413, 1672, 2020332853L, '?AddPaneToRecentPaneContainer@CPaneContainerManager@@UAEPAVCDockablePane@@PAV2@PAVCPaneContainer@@@Z')
(1414, 1673, 2020493637L, '?AddPrintPreviewCategory@CMFCRibbonBar@@QAEPAVCMFCRibbonCategory@@XZ')
(1415, 1674, 2020434068L, '?AddProperty@CMFCPropertyGridCtrl@@QAEHPAVCMFCPropertyGridProperty@@HH@Z')
(1416, 1675, 2021704724L, '?AddProperty@CPropertySection@@QAEXPAVCProperty@@@Z')
(1417, 1676, 2021707547L, '?AddProperty@CPropertySet@@QAEXU_GUID@@PAVCProperty@@@Z')
(1418, 1677, 2020473884L, '?AddQATOnlyCategory@CMFCRibbonBar@@QAEPAVCMFCRibbonCategory@@PB_WIVCSize@@@Z')
(1419, 1678, 2020787901L, '?AddRadioButton@CTaskDialog@@QAEXHABV?$CStringT@_WV?$StrTraitMFC_DLL@_WV?$ChTraitsCRT@_W@ATL@@@@@ATL@@H@Z')
(1420, 1679, 2020630406L, '?AddRecentFilesList@CMFCRibbonMainPanel@@QAEXPB_WH@Z')
(1421, 1680, 2020261910L, '?AddRecentPane@CMultiPaneFrameWnd@@UAEHPAVCDockablePane@@@Z')
(1422, 1681, 2020344302L, '?AddRecentPane@CPaneDivider@@UAEPAVCDockablePane@@PAV2@@Z')
(1423, 1682, 2020157352L, '?AddRef@CArchiveStream@@UAGKXZ')
(1424, 1683, 2021698224L, '?AddRef@CBlobProperty@@UAGKXZ')
(1425, 1684, 2021466522L, '?AddRef@CBrowserControlSite@@MAGKXZ')
(1426, 1685, 2020157352L, '?AddRef@CDHtmlControlSink@@UAGKXZ')
(1427, 1686, 2020157352L, '?AddRef@CDHtmlElementEventSink@@UAGKXZ')
(1428, 1687, 2020157352L, '?AddRef@CDHtmlEventSink@@UAGKXZ')
(1429, 1688, 2021736331L, '?AddRef@CInnerUnknown@@UAGKXZ')
(1430, 1689, 2021636572L, '?AddRef@COleConnPtContainer@@UAGKXZ')
(1431, 1690, 2021649893L, '?AddRef@COleDispatchImpl@@UAGKXZ')
(1432, 1691, 2020790482L, '?AddRef@COleUILinkInfo@@UAGKXZ')
(1433, 1692, 2020320974L, '?AddRef@CPaneContainer@@QAEXXZ')
(1434, 1693, 2020157352L, '?AddRef@CPrintDialogEx@@UAGKXZ')
(1435, 1694, 2020353912L, '?AddRemovePaneFromGlobalList@CPaneFrameWnd@@SGHPAVCBasePane@@H@Z')
(1436, 1695, 2020850940L, '?AddRemoveSeparator@CMFCToolBar@@MAEXPBVCMFCToolBarButton@@ABVCPoint@@1@Z')
(1437, 1696, 2021263777L, '?AddReplaceBitmap@CToolBar@@QAEHPAUHBITMAP__@@@Z')
(1438, 1697, 2021557442L, '?AddRequestHeaders@CHttpFile@@QAEHAAV?$CStringT@_WV?$StrTraitMFC_DLL@_WV?$ChTraitsCRT@_W@ATL@@@@@ATL@@K@Z')
(1439, 1698, 2021557384L, '?AddRequestHeaders@CHttpFile@@QAEHPB_WKH@Z')
(1440, 1699, 2020070527L, '?AddRow@CDockSite@@QAEPAVCDockingPanesRow@@PAU__POSITION@@H@Z')
(1441, 1700, 2021707364L, '?AddSection@CPropertySet@@QAEPAVCPropertySection@@U_GUID@@@Z')
(1442, 1701, 2021707462L, '?AddSection@CPropertySet@@QAEXPAVCPropertySection@@@Z')
(1443, 1702, 2020648827L, '?AddSeparator@CMFCRibbonPanel@@UAEXXZ')
(1444, 1703, 2020693978L, '?AddSeparator@CMFCRibbonStatusBar@@QAEXXZ')
(1445, 1704, 2020895123L, '?AddSortedItem@CMFCToolBarComboBoxButton@@UAEHPB_WK@Z')
(1446, 1705, 2021643922L, '?AddStandardFormats@COlePasteSpecialDialog@@QAEXH@Z')
(1447, 1706, 2020100178L, '?AddString@CMFCDropDownListBox@@QAEXPB_W@Z')
(1448, 1707, 2021855224L, '?AddString@CToolBarCtrl@@QAEHI@Z')
(1449, 1708, 2020412614L, '?AddSubItem@CMFCPropertyGridProperty@@QAEHPAV1@@Z')
(1450, 1709, 2020515491L, '?AddSubItem@CMFCRibbonButton@@QAEXPAVCMFCRibbonBaseElement@@H@Z')
(1451, 1710, 2020638797L, '?AddSubItem@CMFCRibbonGallery@@QAEXPAVCMFCRibbonBaseElement@@HH@Z')
(1452, 1711, 2020320728L, '?AddSubPaneContainer@CPaneContainer@@QAEHPAV1@H@Z')
(1453, 1712, 2019872091L, '?AddTab@CBaseTabbedPane@@UAEHPAVCWnd@@HHH@Z')
(1454, 1713, 2019879669L, '?AddTab@CMFCBaseTabCtrl@@UAEXPAVCWnd@@IIH@Z')
(1455, 1714, 2019879585L, '?AddTab@CMFCBaseTabCtrl@@UAEXPAVCWnd@@PB_WIH@Z')
(1456, 1715, 2020224050L, '?AddTabbedPane@CMDIChildWndEx@@QAEXPAVCDockablePane@@@Z')
(1457, 1716, 2021561534L, '?AddTail@CObList@@QAEPAU__POSITION@@PAVCObject@@@Z')
(1458, 1717, 2021561585L, '?AddTail@CObList@@QAEXPAV1@@Z')
(1459, 1718, 2021561534L, '?AddTail@CPtrList@@QAEPAU__POSITION@@PAX@Z')
(1460, 1719, 2021561585L, '?AddTail@CPtrList@@QAEXPAV1@@Z')
(1461, 1720, 2021562282L, '?AddTail@CStringList@@QAEPAU__POSITION@@ABV?$CStringT@_WV?$StrTraitMFC_DLL@_WV?$ChTraitsCRT@_W@ATL@@@@@ATL@@@Z')
(1462, 1721, 2021562217L, '?AddTail@CStringList@@QAEPAU__POSITION@@PB_W@Z')
(1463, 1722, 2021562405L, '?AddTail@CStringList@@QAEXPAV1@@Z')
(1464, 1723, 2020802712L, '?AddTask@CMFCTasksPane@@QAEHHPB_WHIK@Z')
(1465, 1724, 2020119326L, '?AddTearOffToolbar@CFrameImpl@@IAEXPAVCBasePane@@@Z')
(1466, 1725, 2020414777L, '?AddTerminalProp@CMFCPropertyGridProperty@@IAEXAAV?$CList@PAVCMFCPropertyGridProperty@@PAV1@@@@Z')
(1467, 1726, 2020630627L, '?AddToBottom@CMFCRibbonMainPanel@@QAEXPAVCMFCRibbonMainPanelButton@@@Z')
(1468, 1727, 2019869600L, '?AddToKeyList@CMFCRibbonBaseElement@@UAEXAAV?$CArray@PAVCMFCRibbonKeyTip@@PAV1@@@@Z')
(1469, 1728, 2020524666L, '?AddToKeyList@CMFCRibbonButtonsGroup@@MAEXAAV?$CArray@PAVCMFCRibbonKeyTip@@PAV1@@@@Z')
(1470, 1729, 2019867758L, '?AddToListBox@CMFCRibbonBaseElement@@UAEHPAVCMFCRibbonCommandsListBox@@H@Z')
(1471, 1730, 2020515945L, '?AddToListBox@CMFCRibbonButton@@MAEHPAVCMFCRibbonCommandsListBox@@H@Z')
(1472, 1731, 2020524349L, '?AddToListBox@CMFCRibbonButtonsGroup@@MAEHPAVCMFCRibbonCommandsListBox@@H@Z')
(1473, 1732, 2019864371L, '?AddToListBox@CMFCRibbonSeparator@@UAEHPAVCMFCRibbonCommandsListBox@@H@Z')
(1474, 1733, 2021759017L, '?AddTool@CToolTipCtrl@@QAEHPAVCWnd@@IPBUtagRECT@@I@Z')
(1475, 1734, 2021758900L, '?AddTool@CToolTipCtrl@@QAEHPAVCWnd@@PB_WPBUtagRECT@@I@Z')
(1476, 1735, 2020649144L, '?AddToolBar@CMFCRibbonPanel@@QAEPAVCMFCRibbonButtonsGroup@@IIII@Z')
(1477, 1736, 2020957082L, '?AddToolBar@CMFCToolBarsCustomizeDialog@@QAEHII@Z')
(1478, 1737, 2020957185L, '?AddToolBar@CMFCToolBarsCustomizeDialog@@QAEHPB_WI@Z')
(1479, 1738, 2020852836L, '?AddToolBarForImageCollection@CMFCToolBar@@SGHIIIIII@Z')
(1480, 1739, 2021226570L, '?AddToRecentFileList@CWinApp@@UAEXPB_W@Z')
(1481, 1740, 2020630500L, '?AddToRight@CMFCRibbonMainPanel@@QAEXPAVCMFCRibbonBaseElement@@H@Z')
(1482, 1741, 2020486127L, '?AddToTabs@CMFCRibbonBar@@QAEXPAVCMFCRibbonBaseElement@@@Z')
(1483, 1742, 2020455191L, '?AddTreeCategory@CMFCPropertySheet@@QAEPAVCMFCPropertySheetCategoryInfo@@PB_WHHPBV2@@Z')
(1484, 1743, 2020705134L, '?AddUndoAction@CMFCRibbonUndoButton@@QAEXPB_W@Z')
(1485, 1744, 2020962104L, '?AddUserTools@CMFCToolBarsCustomizeDialog@@IAEXPB_W@Z')
(1486, 1745, 2021500072L, '?AddView@CDocument@@QAEXPAVCView@@@Z')
(1487, 1746, 2020254928L, '?AddView@CMouseManager@@QAEHHII@Z')
(1488, 1747, 2020255034L, '?AddView@CMouseManager@@QAEHHPB_WI@Z')
(1489, 1748, 2020773718L, '?AddView@CTabView@@QAEHPAUCRuntimeClass@@ABV?$CStringT@_WV?$StrTraitMFC_DLL@_WV?$ChTraitsCRT@_W@ATL@@@@@ATL@@HPAUCCreateContext@@@Z')
(1490, 1749, 2019843653L, '?AddVirtKeyStr@CMFCAcceleratorKey@@IBEXAAV?$CStringT@_WV?$StrTraitMFC_DLL@_WV?$ChTraitsCRT@_W@ATL@@@@@ATL@@IH@Z')
(1491, 1750, 2020803811L, '?AddWindow@CMFCTasksPane@@QAEHHPAUHWND__@@HHK@Z')
(1492, 1751, 2020418967L, '?AdjustButtonRect@CMFCPropertyGridProperty@@UAEXXZ')
(1493, 1752, 2020135583L, '?AdjustClientArea@CFrameWndEx@@MAEXXZ')
(1494, 1753, 2020220197L, '?AdjustClientArea@CMDIChildWndEx@@IAEXXZ')
(1495, 1754, 2020232140L, '?AdjustClientArea@CMDIFrameWndEx@@UAEXXZ')
(1496, 1755, 2020269538L, '?AdjustClientArea@COleCntrFrameWndEx@@QAEXXZ')
(1497, 1756, 2020738081L, '?AdjustControlWidth@CMFCStandardColorsPropertyPage@@AAEXPAVCMFCColorPickerCtrl@@H@Z')
(1498, 1757, 2021435255L, '?AdjustCP@CMetaFileDC@@IAEXH@Z')
(1499, 1758, 2021811190L, '?AdjustDialogPosition@CRichEditView@@QAEXPAVCDialog@@@Z')
(1500, 1759, 2019858016L, '?AdjustDockingLayout@CBasePane@@UAEXPAX@Z')
(1501, 1760, 2020035612L, '?AdjustDockingLayout@CDockingManager@@UAEXPAX@Z')
(1502, 1761, 2020073452L, '?AdjustDockingLayout@CDockSite@@UAEXXZ')
(1503, 1762, 2020135499L, '?AdjustDockingLayout@CFrameWndEx@@UAEXPAX@Z')
(1504, 1763, 2020220149L, '?AdjustDockingLayout@CMDIChildWndEx@@UAEXPAX@Z')
(1505, 1764, 2020232056L, '?AdjustDockingLayout@CMDIFrameWndEx@@UAEXPAX@Z')
(1506, 1765, 2020269020L, '?AdjustDockingLayout@COleCntrFrameWndEx@@UAEXPAX@Z')
(1507, 1766, 2020271659L, '?AdjustDockingLayout@COleDocIPFrameWndEx@@UAEXPAX@Z')
(1508, 1767, 2020274366L, '?AdjustDockingLayout@COleIPFrameWndEx@@UAEXPAX@Z')
(1509, 1768, 2020995157L, '?AdjustFrames@CMFCVisualManager@@SGXXZ')
(1510, 1769, 2020423918L, '?AdjustInPlaceEditRect@CMFCPropertyGridColorProperty@@MAEXAAVCRect@@0@Z')
(1511, 1770, 2020419008L, '?AdjustInPlaceEditRect@CMFCPropertyGridProperty@@UAEXAAVCRect@@0@Z')
(1512, 1771, 2020073405L, '?AdjustLayout@CDockSite@@UAEXXZ')
(1513, 1772, 2019916111L, '?AdjustLayout@CMFCCaptionBar@@MAEXXZ')
(1514, 1773, 2020408003L, '?AdjustLayout@CMFCPopupMenuBar@@MAEXXZ')
(1515, 1774, 2020427879L, '?AdjustLayout@CMFCPropertyGridCtrl@@UAEXXZ')
(1516, 1775, 2020794508L, '?AdjustLayout@CMFCTasksPaneToolBar@@MAEXXZ')
(1517, 1776, 2020854088L, '?AdjustLayout@CMFCToolBar@@UAEXXZ')
(1518, 1777, 2020365219L, '?AdjustLayout@CPaneFrameWnd@@UAEXXZ')
(1519, 1778, 2021202537L, '?AdjustLayout@CVSListBoxBase@@IAEXXZ')
(1520, 1779, 2019923678L, '?AdjustLocations@CMFCColorBar@@MAEXXZ')
(1521, 1780, 2020240839L, '?AdjustLocations@CMFCMenuBar@@UAEXXZ')
(1522, 1781, 2020284542L, '?AdjustLocations@CMFCOutlookBarPane@@MAEXXZ')
(1523, 1782, 2020292557L, '?AdjustLocations@CMFCOutlookBarToolBar@@UAEXXZ')
(1524, 1783, 2020397564L, '?AdjustLocations@CMFCPopupMenuBar@@MAEXXZ')
(1525, 1784, 2020673570L, '?AdjustLocations@CMFCRibbonPanelMenuBar@@UAEXXZ')
(1526, 1785, 2020793862L, '?AdjustLocations@CMFCTasksPaneToolBar@@MAEXXZ')
(1527, 1786, 2020849362L, '?AdjustLocations@CMFCToolBar@@MAEXXZ')
(1528, 1787, 2020199424L, '?AdjustMDIChildren@CMDIClientAreaWnd@@AAEXPAVCMFCTabCtrl@@@Z')
(1529, 1788, 2020035502L, '?AdjustPaneFrames@CDockingManager@@UAEXXZ')
(1530, 1789, 2020261761L, '?AdjustPaneFrames@CMultiPaneFrameWnd@@UAEXXZ')
(1531, 1790, 2020020685L, '?AdjustPaneToPaneContainer@CDockablePane@@MAEXPAVCPaneDivider@@@Z')
(1532, 1791, 2020063633L, '?AdjustPaneToRowArea@CDockingPanesRow@@IAEXPAVCPane@@ABVCRect@@AAPAX@Z')
(1533, 1792, 2019853346L, '?AdjustPos@CSmartDockingGroupGuide@@UAEXVCRect@@@Z')
(1534, 1793, 2020729362L, '?AdjustPos@CSmartDockingGroupGuidesManager@@UAEHVCRect@@H@Z')
(1535, 1794, 2020724680L, '?AdjustPos@CSmartDockingStandaloneGuide@@UAEXVCRect@@@Z')
(1536, 1795, 2020888445L, '?AdjustRect@CMFCToolBarComboBoxButton@@IAEXXZ')
(1537, 1796, 2020898154L, '?AdjustRect@CMFCToolBarDateTimeCtrl@@IAEXXZ')
(1538, 1797, 2021763862L, '?AdjustRect@CRectTracker@@UAEXHPAUtagRECT@@@Z')
(1539, 1798, 2021592048L, '?AdjustRect@XOleIPSite@COleControlSite@@UAGJPAUtagRECT@@@Z')
(1540, 1799, 2020033750L, '?AdjustRectToClientArea@CDockingManager@@UAEHAAVCRect@@K@Z')
(1541, 1800, 2019915056L, '?AdjustRectToMargin@CMFCCaptionBar@@IAEXAAVCRect@@ABV2@HH@Z')
(1542, 1801, 2020154251L, '?AdjustRectToWorkArea@CGlobalUtils@@QAEXAAVCRect@@PAV2@@Z')
(1543, 1802, 2020388299L, '?AdjustScroll@CMFCPopupMenu@@IAEHH@Z')
(1544, 1803, 2020808456L, '?AdjustScroll@CMFCTasksPane@@IAEXXZ')
(1545, 1804, 2020864009L, '?AdjustSize@CMFCToolBar@@QAEXXZ')
(1546, 1805, 2020314652L, '?AdjustSizeImmediate@CPane@@UAEXH@Z')
(1547, 1806, 2020757338L, '?AdjustTabs@CMFCTabCtrl@@MAEXXZ')
(1548, 1807, 2020763274L, '?AdjustTabsScroll@CMFCTabCtrl@@MAEXXZ')
(1549, 1808, 2020995074L, '?AdjustToolbars@CMFCVisualManager@@SGXXZ')
(1550, 1809, 2020764967L, '?AdjustWndScroll@CMFCTabCtrl@@MAEXXZ')
(1551, 1810, 2021466354L, '?Advise@CDHtmlElementEventSink@@QAEJPAUIUnknown@@ABU_GUID@@@Z')
(1552, 1811, 2021635254L, '?Advise@XConnPt@CConnectionPoint@@UAGJPAUIUnknown@@PAK@Z')
(1553, 1812, 2021673093L, '?Advise@XOleObject@CDocObjectServer@@UAGJPAUIAdviseSink@@PAK@Z')
(1554, 1813, 2021301161L, '?Advise@XOleObject@COleControl@@UAGJPAUIAdviseSink@@PAK@Z')
(1555, 1814, 2021723920L, '?Advise@XOleObject@COleServerDoc@@UAGJPAUIAdviseSink@@PAK@Z')
(1556, 1815, 2021731374L, '?Advise@XOleObject@COleServerItem@@UAGJPAUIAdviseSink@@PAK@Z')
(1557, 1816, 2022344876L, '?AFX_WM_CHANGE_ACTIVE_TAB@@3IA')
(1558, 1817, 2022347932L, '?AFX_WM_CHANGE_CURRENT_FOLDER@@3IA')
(1559, 1818, 2022350424L, '?AFX_WM_CHANGEVISUALMANAGER@@3IA')
(1560, 1819, 2022344884L, '?AFX_WM_CHANGING_ACTIVE_TAB@@3IA')
(1561, 1820, 2022347792L, '?AFX_WM_CHECKEMPTYMINIFRAME@@3IA')
(1562, 1821, 2022347996L, '?AFX_WM_CREATETOOLBAR@@3IA')
(1563, 1822, 2022348004L, '?AFX_WM_CUSTOMIZEHELP@@3IA')
(1564, 1823, 2022347992L, '?AFX_WM_CUSTOMIZETOOLBAR@@3IA')
(1565, 1824, 2022348000L, '?AFX_WM_DELETETOOLBAR@@3IA')
(1566, 1825, 2022344896L, '?AFX_WM_GETDOCUMENTCOLORS@@3IA')
(1567, 1826, 2022347948L, '?AFX_WM_GETDRAGBOUNDS@@3IA')
(1568, 1827, 2022347936L, '?AFX_WM_ON_AFTER_SHELL_COMMAND@@3IA')
(1569, 1828, 2022347876L, '?AFX_WM_ON_BEFORE_SHOW_RIBBON_ITEM_MENU@@3IA')
(1570, 1829, 2022347960L, '?AFX_WM_ON_CANCELTABMOVE@@3IA')
(1571, 1830, 2022347864L, '?AFX_WM_ON_CHANGE_RIBBON_CATEGORY@@3IA')
(1572, 1831, 2022345060L, '?AFX_WM_ON_CLOSEPOPUPWINDOW@@3IA')
(1573, 1832, 2022347952L, '?AFX_WM_ON_DRAGCOMPLETE@@3IA')
(1574, 1833, 2022344888L, '?AFX_WM_ON_GET_TAB_TOOLTIP@@3IA')
(1575, 1834, 2022347872L, '?AFX_WM_ON_HIGHLIGHT_RIBBON_LIST_ITEM@@3IA')
(1576, 1835, 2022347944L, '?AFX_WM_ON_HSCROLL@@3IA')
(1577, 1836, 2022344880L, '?AFX_WM_ON_MOVE_TAB@@3IA')
(1578, 1837, 2022347964L, '?AFX_WM_ON_MOVETABCOMPLETE@@3IA')
(1579, 1838, 2022345808L, '?AFX_WM_ON_MOVETOTABGROUP@@3IA')
(1580, 1839, 2022345076L, '?AFX_WM_ON_PRESS_CLOSE_BUTTON@@3IA')
(1581, 1840, 2022344872L, '?AFX_WM_ON_RENAME_TAB@@3IA')
(1582, 1841, 2022347868L, '?AFX_WM_ON_RIBBON_CUSTOMIZE@@3IA')
(1583, 1842, 2022347956L, '?AFX_WM_ON_TABGROUPMOUSEMOVE@@3IA')
(1584, 1843, 2022347860L, '?AFX_WM_POSTRECALCLAYOUT@@3IA')
(1585, 1844, 2022345200L, '?AFX_WM_POSTSETPREVIEWFRAME@@3IA')
(1586, 1845, 2022347836L, '?AFX_WM_PROPERTY_CHANGED@@3IA')
(1587, 1846, 2022348020L, '?AFX_WM_RESETCONTEXTMENU@@3IA')
(1588, 1847, 2022348024L, '?AFX_WM_RESETKEYBOARD@@3IA')
(1589, 1848, 2022348012L, '?AFX_WM_RESETMENU@@3IA')
(1590, 1849, 2022348028L, '?AFX_WM_RESETRPROMPT@@3IA')
(1591, 1850, 2022348008L, '?AFX_WM_RESETTOOLBAR@@3IA')
(1592, 1851, 2022348016L, '?AFX_WM_SHOWREGULARMENU@@3IA')
(1593, 1852, 2022347988L, '?AFX_WM_TOOLBARMENU@@3IA')
(1594, 1853, 2022350408L, '?AFX_WM_UPDATETOOLTIPS@@3IA')
(1595, 1854, 2022350476L, '?AFX_WM_WINDOW_HELP@@3IA')
(1596, 1855, 2021752629L, '?AfxA2WHelper@@YGPA_WPA_WPBDH@Z')
(1597, 1856, 2019843397L, '?AfxAbort@@YGXXZ')
(1598, 1857, 2020739403L, '?AfxActivateActCtx@@YGHPAXPAK@Z')
(1599, 1858, 2020739437L, '?AfxActivateActCtxWrapper@@YG?AW4eActCtxResult@@PAXPAK@Z')
(1600, 1859, 2021222018L, '?AfxApplicationRecoveryWrapper@@YGKPAX@Z')
(1601, 1860, 2019980454L, '?AfxAutosaveTimerProc@@YGXPAUHWND__@@IIK@Z')
(1602, 1861, 2021755677L, '?AfxBeginThread@@YGPAVCWinThread@@P6AIPAX@Z0HIKPAU_SECURITY_ATTRIBUTES@@@Z')
(1603, 1862, 2021755808L, '?AfxBeginThread@@YGPAVCWinThread@@PAUCRuntimeClass@@HIKPAU_SECURITY_ATTRIBUTES@@@Z')
(1604, 1863, 2021634209L, '?AfxBSTR2CString@@YGXPAV?$CStringT@_WV?$StrTraitMFC_DLL@_WV?$ChTraitsCRT@_W@ATL@@@@@ATL@@PA_W@Z')
(1605, 1864, 2021826404L, '?AfxCallWndProc@@YGJPAVCWnd@@PAUHWND__@@IIJ@Z')
(1606, 1865, 2021935825L, '?AfxCancelModes@@YGXPAUHWND__@@@Z')
(1607, 1866, 2021736564L, '?AfxCheckError@@YGXJ@Z')
(1608, 1867, 2021956081L, '?AfxClassInit@@YGXPAUCRuntimeClass@@@Z')
(1609, 1868, 2021535790L, '?AfxComparePath@@YGHPB_W0@Z')
(1610, 1869, 2021423954L, '?AfxCompareValueByRef@@YGHPAX0H@Z')
(1611, 1870, 2021275278L, '?AfxConnectionAdvise@@YGHPAUIUnknown@@ABU_GUID@@0HPAK@Z')
(1612, 1871, 2021275397L, '?AfxConnectionUnadvise@@YGHPAUIUnknown@@ABU_GUID@@0HK@Z')
(1613, 1872, 2021424335L, '?AfxCopyValueByRef@@YGXPAX0PAJH@Z')
(1614, 1873, 2021938068L, '?AfxCoreInitModule@@YGXXZ')
(1615, 1874, 2020739369L, '?AfxCreateActCtxW@@YGPAXPBUtagACTCTXW@@@Z')
(1616, 1875, 2021491074L, '?AfxCreateDC@@YGPAUHDC__@@PAX0@Z')
(1617, 1876, 2019967248L, '?AfxCriticalInit@@YGHXZ')
(1618, 1877, 2021936011L, '?AfxCriticalNewHandler@@YAHI@Z')
(1619, 1878, 2019967289L, '?AfxCriticalTerm@@YGXXZ')
(1620, 1879, 2021934990L, '?AfxCustomLogFont@@YGHIPAUtagLOGFONTW@@@Z')
(1621, 1880, 2021345697L, '?AfxDaoCheck@@YGXJPBD0HHH@Z')
(1622, 1881, 2021384395L, '?AfxDaoGetEngine@@YGPAU_DAODBEngine@@XZ')
(1623, 1882, 2021384176L, '?AfxDaoInit@@YGXXZ')
(1624, 1883, 2021384409L, '?AfxDaoTerm@@YGXXZ')
(1625, 1884, 2022350488L, '?afxData@@3UAUX_DATA@@A')
(1626, 1885, 2020739420L, '?AfxDeactivateActCtx@@YGHKK@Z')
(1627, 1886, 2021935781L, '?AfxDeleteObject@@YGXPAPAX@Z')
(1628, 1888, 2021442192L, '?AfxDlgProc@@YGHPAUHWND__@@IIJ@Z')
(1629, 1889, 2021655969L, '?AfxDllCanUnloadNow@@YGJXZ')
(1630, 1890, 2021655761L, '?AfxDllGetClassObject@@YGJABU_GUID@@0PAPAX@Z')
(1631, 1891, 2021905571L, '?AfxDrawDitheredBitmap@@YGXPAVCDC@@HHABVCBitmap@@KK@Z')
(1632, 1892, 2021903867L, '?AfxDrawGrayBitmap@@YGXPAVCDC@@HHABVCBitmap@@K@Z')
(1633, 1893, 2021955938L, '?AfxDynamicDownCast@@YAPAVCObject@@PAUCRuntimeClass@@PAV1@@Z')
(1634, 1894, 2021768684L, '?AfxEditviewTerm@@YAXXZ')
(1635, 1895, 2021575778L, '?AfxEnableControlContainer@@YAXPAVCOccManager@@@Z')
(1636, 1896, 2021846951L, '?AfxEndDeferRegisterClass@@YGHJ@Z')
(1637, 1897, 2021755924L, '?AfxEndThread@@YGXIH@Z')
(1638, 1898, 2021900616L, '?AfxEnumMetaFileProc@@YGHPAUHDC__@@PAUtagHANDLETABLE@@PAUtagMETARECORD@@HJ@Z')
(1639, 1899, 2021934853L, '?AfxExtractSubString@@YGHAAV?$CStringT@_WV?$StrTraitMFC_DLL@_WV?$ChTraitsCRT@_W@ATL@@@@@ATL@@PB_WH_W@Z')
(1640, 1900, 2021448757L, '?AfxFailMaxChars@@YGXPAVCDataExchange@@H@Z')
(1641, 1901, 2021448871L, '?AfxFailRadio@@YGXPAVCDataExchange@@@Z')
(1642, 1902, 2021391678L, '?AfxFieldText@@YGHPAVCDataExchange@@HPAXPAVCDaoRecordset@@@Z')
(1643, 1903, 2021431907L, '?AfxFieldText@@YGHPAVCDataExchange@@HPAXPAVCRecordset@@@Z')
(1644, 1904, 2021833524L, '?AfxFindMessageEntry@@YGPBUAFX_MSGMAP_ENTRY@@PBU1@III@Z')
(1645, 1905, 2021936828L, '?AfxFindResourceHandle@@YGPAUHINSTANCE__@@PB_W0@Z')
(1646, 1906, 2021937078L, '?AfxFindStringResourceHandle@@YGPAUHINSTANCE__@@I@Z')
(1647, 1907, 2021225077L, '?AfxFormatString1@@YGXAAV?$CStringT@_WV?$StrTraitMFC_DLL@_WV?$ChTraitsCRT@_W@ATL@@@@@ATL@@IPB_W@Z')
(1648, 1908, 2021225108L, '?AfxFormatString2@@YGXAAV?$CStringT@_WV?$StrTraitMFC_DLL@_WV?$ChTraitsCRT@_W@ATL@@@@@ATL@@IPB_W1@Z')
(1649, 1909, 2021224667L, '?AfxFormatStrings@@YGXAAV?$CStringT@_WV?$StrTraitMFC_DLL@_WV?$ChTraitsCRT@_W@ATL@@@@@ATL@@IPBQB_WH@Z')
(1650, 1910, 2021224771L, '?AfxFormatStrings@@YGXAAV?$CStringT@_WV?$StrTraitMFC_DLL@_WV?$ChTraitsCRT@_W@ATL@@@@@ATL@@PB_WPBQB_WH@Z')
(1651, 1911, 2021936770L, '?AfxFreeLibrary@@YGHPAUHINSTANCE__@@@Z')
(1652, 1912, 2021535687L, '?AfxFullPath@@YGHPA_WPB_W@Z')
(1653, 1913, 2021827266L, '?AfxGetAfxWndProc@@YGP6GJPAUHWND__@@IIJ@ZXZ')
(1654, 1914, 2020740608L, '?AfxGetAppModuleState@@YGPAVAFX_MODULE_STATE@@XZ')
(1655, 1915, 2021653351L, '?AfxGetClassIDFromString@@YGJPB_WPAU_GUID@@@Z')
(1656, 1916, 2021755170L, '?AfxGetCurrentMessage@@YGPAUtagMSG@@XZ')
(1657, 1917, 2021384127L, '?AfxGetDaoState@@YAPAV_AFX_DAO_STATE@@XZ')
(1658, 1918, 2021381978L, '?AfxGetDefaultValue@@YAXPAU_DAOField@@AAV?$CStringT@_WV?$StrTraitMFC_DLL@_WV?$ChTraitsCRT@_W@ATL@@@@@ATL@@@Z')
(1659, 1919, 2021904594L, '?AfxGetDitheredBitmap@@YGXABVCBitmap@@PAV1@KK@Z')
(1660, 1920, 2021573759L, '?AfxGetDlgItemStartFromHWND@@YAPAUHWND__@@HPAU1@@Z')
(1661, 1921, 2021936817L, '?AfxGetDllVersion@@YGKXZ')
(1662, 1922, 2021380973L, '?AfxGetFieldInfo@@YAXPAU_DAOField@@AAUCDaoFieldInfo@@K@Z')
(1663, 1923, 2021225938L, '?AfxGetFileName@@YGIPB_WPA_WI@Z')
(1664, 1924, 2021536036L, '?AfxGetFileTitle@@YGIPB_WPA_WI@Z')
(1665, 1925, 2021903061L, '?AfxGetGrayBitmap@@YGXABVCBitmap@@PAV1@K@Z')
(1666, 1926, 2021394906L, '?AfxGetHENV@@YGPAXXZ')
(1667, 1927, 2021382976L, '?AfxGetIndexFieldInfo@@YAXPAU_DAOIndex@@AAUCDaoIndexInfo@@@Z')
(1668, 1928, 2021382818L, '?AfxGetIndexFields@@YAXPAU_DAOIndex@@PAPAUDAOIndexFields@@@Z')
(1669, 1929, 2021382265L, '?AfxGetIndexInfo@@YAXPAU_DAOIndex@@AAUCDaoIndexInfo@@K@Z')
(1670, 1930, 2021534627L, '?AfxGetInProcServer@@YGHPB_WAAV?$CStringT@_WV?$StrTraitMFC_DLL@_WV?$ChTraitsCRT@_W@ATL@@@@@ATL@@@Z')
(1671, 1931, 2020740694L, '?AfxGetInstanceHandleHelper@@YGPAUHINSTANCE__@@XZ')
(1672, 1932, 2021549979L, '?AfxGetInternetHandleType@@YGKPAX@Z')
(1673, 1933, 2021536232L, '?AfxGetModuleShortFileName@@YGXPAUHINSTANCE__@@AAV?$CStringT@_WV?$StrTraitMFC_DLL@_WV?$ChTraitsCRT@_W@ATL@@@@@ATL@@@Z')
(1674, 1934, 2020740638L, '?AfxGetModuleState@@YGPAVAFX_MODULE_STATE@@XZ')
(1675, 1935, 2020740775L, '?AfxGetModuleThreadState@@YGPAVAFX_MODULE_THREAD_STATE@@XZ')
(1676, 1936, 2020236103L, '?AfxGetNewHandler@@YGP6AHI@ZXZ')
(1677, 1937, 2020148724L, '?AFXGetParentFrame@@YAPAVCFrameWnd@@PBVCWnd@@@Z')
(1678, 1938, 2021836059L, '?AfxGetParentOwner@@YGPAUHWND__@@PAU1@@Z')
(1679, 1939, 2020740893L, '?AfxGetPerUserRegistration@@YGHXZ')
(1680, 1940, 2021272195L, '?AfxGetPropSheetFont@@YGHAAV?$CStringT@_WV?$StrTraitMFC_DLL@_WV?$ChTraitsCRT@_W@ATL@@@@@ATL@@AAGH@Z')
(1681, 1941, 2020465644L, '?AFXGetRegPath@@YA?AV?$CStringT@_WV?$StrTraitMFC_DLL@_WV?$ChTraitsCRT@_W@ATL@@@@@ATL@@PB_W0@Z')
(1682, 1942, 2021535716L, '?AfxGetRoot@@YGXPB_WAAV?$CStringT@_WV?$StrTraitMFC_DLL@_WV?$ChTraitsCRT@_W@ATL@@@@@ATL@@@Z')
(1683, 1943, 2021753182L, '?AfxGetStringManager@@YGPAUIAtlStringMgr@ATL@@XZ')
(1684, 1944, 2021755156L, '?AfxGetThread@@YGPAVCWinThread@@XZ')
(1685, 1945, 2020738868L, '?AfxGetThreadState@@YGPAV_AFX_THREAD_STATE@@XZ')
(1686, 1946, 2021733551L, '?AfxGetTypeLibCache@@YGPAVCTypeLibCache@@PBU_GUID@@@Z')
(1687, 1947, 2022345232L, '?afxGlobalData@@3UAFX_GLOBAL_DATA@@A')
(1688, 1948, 2021935952L, '?AfxGlobalFree@@YGXPAX@Z')
(1689, 1949, 2021444723L, '?AfxHelpEnabled@@YGHXZ')
(1690, 1950, 2021828165L, '?AfxHookWindowCreate@@YGXPAVCWnd@@@Z')
(1691, 1951, 2021833403L, '?AfxHtmlHelp@@YGPAUHWND__@@PAU1@PB_WIK@Z')
(1692, 1952, 2020740723L, '?AfxInitCurrentStateApp@@YGHXZ')
(1693, 1953, 2021936473L, '?AfxInitExtensionModule@@YGHAAUAFX_EXTENSION_MODULE@@PAUHINSTANCE__@@@Z')
(1694, 1954, 2020822099L, '?AfxInitLocalData@@YGXPAUHINSTANCE__@@@Z')
(1695, 1955, 2021847774L, '?AfxInitNetworkAddressControl@@YGHXZ')
(1696, 1956, 2021870178L, '?AfxInitRichEdit@@YGHXZ')
(1697, 1957, 2021870223L, '?AfxInitRichEdit2@@YGHXZ')
(1698, 1958, 2021756006L, '?AfxInitThread@@YGXXZ')
(1699, 1959, 2021755525L, '?AfxInternalIsIdleMessage@@YAHPAUtagMSG@@@Z')
(1700, 1960, 2021755367L, '?AfxInternalPreTranslateMessage@@YAHPAUtagMSG@@@Z')
(1701, 1961, 2021755286L, '?AfxInternalProcessWndProcException@@YGJPAVCException@@PBUtagMSG@@@Z')
(1702, 1962, 2021755184L, '?AfxInternalPumpMessage@@YGHXZ')
(1703, 1963, 2021550038L, '?AfxInternetStatusCallback@@YGXPAXKK0K@Z')
(1704, 1964, 2021881671L, '?AfxIsDescendant@@YGHPAUHWND__@@0@Z')
(1705, 1965, 2020150879L, '?AfxIsExtendedFrameClass@@YGHPAVCWnd@@@Z')
(1706, 1966, 2021755635L, '?AfxIsIdleMessage@@YAHPAUtagMSG@@@Z')
(1707, 1967, 2020150994L, '?AfxIsMFCToolBar@@YGHPAVCWnd@@@Z')
(1708, 1968, 2020740708L, '?AfxIsModuleDll@@YGHXZ')
(1709, 1969, 2021765914L, '?AfxIsValidAddress@@YGHPBXIH@Z')
(1710, 1970, 2021765936L, '?AfxIsValidAtom@@YAHG@Z')
(1711, 1971, 2021766072L, '?AfxIsValidAtom@@YAHPB_W@Z')
(1712, 1972, 2021765892L, '?AfxIsValidString@@YGHPB_WH@Z')
(1713, 1973, 2021765892L, '?AfxIsValidString@@YGHPBDH@Z')
(1714, 1974, 2022340084L, '?afxKeyboardManager@@3PAVCKeyboardManager@@A')
(1715, 1975, 2021423829L, '?AfxLoadField@@YGXAAVCRecordset@@IPAXPAJ@Z')
(1716, 1976, 2021218640L, '?AfxLoadLangResourceDLL@@YGPAUHINSTANCE__@@PB_W@Z')
(1717, 1977, 2021218166L, '?AfxLoadLangResourceDLL@@YGPAUHINSTANCE__@@PB_W0@Z')
(1718, 1978, 2021936667L, '?AfxLoadLibrary@@YGPAUHINSTANCE__@@PB_W@Z')
(1719, 1979, 2021936715L, '?AfxLoadLibraryEx@@YGPAUHINSTANCE__@@PB_WPAXK@Z')
(1720, 1980, 2021937326L, '?AfxLoadString@@YGHIPA_WI@Z')
(1721, 1981, 2021937437L, '?AfxLoadString@@YGHIPADI@Z')
(1722, 1982, 2021261748L, '?AfxLoadSysColorBitmap@@YGPAUHBITMAP__@@PAUHINSTANCE__@@PAUHRSRC__@@H@Z')
(1723, 1983, 2019967363L, '?AfxLockGlobals@@YGXH@Z')
(1724, 1984, 2021908585L, '?AfxLockTempMaps@@YGXXZ')
(1725, 1985, 2021693762L, '?AfxMergeMenus@@YGPAUHMENU__@@PAU1@0PAJHH@Z')
(1726, 1986, 2021227469L, '?AfxMessageBox@@YGHIII@Z')
(1727, 1987, 2021227413L, '?AfxMessageBox@@YGHPB_WII@Z')
(1728, 1988, 2021693403L, '?AfxOleCanExitApp@@YGHXZ')
(1729, 1989, 2021693500L, '?AfxOleGetUserCtrl@@YGHXZ')
(1730, 1990, 2021685538L, '?AfxOleInit@@YGHXZ')
(1731, 1991, 2021710674L, '?AfxOleInprocRegisterHelper@@YGHPAUHKEY__@@0H@Z')
(1732, 1992, 2021693424L, '?AfxOleLockApp@@YGXXZ')
(1733, 1993, 2021605673L, '?AfxOleLockControl@@YGHABU_GUID@@@Z')
(1734, 1994, 2021605818L, '?AfxOleLockControl@@YGHPB_W@Z')
(1735, 1995, 2021693317L, '?AfxOleOnReleaseAllObjects@@YGXXZ')
(1736, 1996, 2021339247L, '?AfxOleRegisterControlClass@@YGHPAUHINSTANCE__@@ABU_GUID@@PB_WIIHK1GG@Z')
(1737, 1997, 2021709598L, '?AfxOleRegisterHelper@@YGHPBQB_W0HHPAUHKEY__@@@Z')
(1738, 1998, 2021340648L, '?AfxOleRegisterPropertyPageClass@@YGHPAUHINSTANCE__@@ABU_GUID@@I@Z')
(1739, 1999, 2021340678L, '?AfxOleRegisterPropertyPageClass@@YGHPAUHINSTANCE__@@ABU_GUID@@IH@Z')
(1740, 2000, 2021708988L, '?AfxOleRegisterServerClass@@YGHABU_GUID@@PB_W11W4OLE_APPTYPE@@PAPB_W3H1@Z')
(1741, 2001, 2021709036L, '?AfxOleRegisterServerClass@@YGHABU_GUID@@PB_W11W4OLE_APPTYPE@@PAPB_W3H11@Z')
(1742, 2002, 2021337966L, '?AfxOleRegisterTypeLib@@YGHPAUHINSTANCE__@@ABU_GUID@@PB_W2@Z')
(1743, 2003, 2021734680L, '?AfxOleSetEditMenu@@YGXPAVCOleClientItem@@PAVCMenu@@IIII@Z')
(1744, 2004, 2021693475L, '?AfxOleSetUserCtrl@@YGXH@Z')
(1745, 2005, 2021685695L, '?AfxOleTerm@@YGXH@Z')
(1746, 2006, 2021685793L, '?AfxOleTermOrFreeLib@@YGXHH@Z')
(1747, 2007, 2021606063L, '?AfxOleUnlockAllControls@@YGXXZ')
(1748, 2008, 2021693445L, '?AfxOleUnlockApp@@YGXXZ')
(1749, 2009, 2021605952L, '?AfxOleUnlockControl@@YGHABU_GUID@@@Z')
(1750, 2010, 2021605885L, '?AfxOleUnlockControl@@YGHPB_W@Z')
(1751, 2011, 2021340184L, '?AfxOleUnregisterClass@@YGHABU_GUID@@PB_W@Z')
(1752, 2012, 2021709396L, '?AfxOleUnregisterHelper@@YGHPBQB_W0HPAUHKEY__@@@Z')
(1753, 2013, 2021709213L, '?AfxOleUnregisterServerClass@@YGHABU_GUID@@PB_W11W4OLE_APPTYPE@@PAPB_W3@Z')
(1754, 2014, 2021338356L, '?AfxOleUnregisterTypeLib@@YGHABU_GUID@@GGK@Z')
(1755, 2015, 2021549829L, '?AfxParseURL@@YGHPB_WAAKAAV?$CStringT@_WV?$StrTraitMFC_DLL@_WV?$ChTraitsCRT@_W@ATL@@@@@ATL@@2AAG@Z')
(1756, 2016, 2021549618L, '?AfxParseURLEx@@YGHPB_WAAKAAV?$CStringT@_WV?$StrTraitMFC_DLL@_WV?$ChTraitsCRT@_W@ATL@@@@@ATL@@2AAG22K@Z')
(1757, 2017, 2020735085L, '?AFXPlaySystemSound@@YAXH@Z')
(1758, 2018, 2021221757L, '?AfxPostQuitMessage@@YGXH@Z')
(1759, 2019, 2021755487L, '?AfxPreTranslateMessage@@YAHPAUtagMSG@@@Z')
(1760, 2020, 2020410799L, '?AFXPrintPreview@@YAXPAVCView@@@Z')
(1761, 2021, 2021755333L, '?AfxProcessWndProcException@@YGJPAVCException@@PBUtagMSG@@@Z')
(1762, 2022, 2021481152L, '?AfxPropPageCallback@@YGIPAUHWND__@@IPAU_PROPSHEETPAGEW@@@Z')
(1763, 2023, 2021486547L, '?AfxPropSheetCallback@@YGHPAUHWND__@@IJ@Z')
(1764, 2024, 2021755259L, '?AfxPumpMessage@@YGHXZ')
(1765, 2025, 2021232809L, '?AfxReadStringLength@@YGIAAVCArchive@@AAH@Z')
(1766, 2028, 2021830667L, '?AfxRegisterClass@@YGHPAUtagWNDCLASSW@@@Z')
(1767, 2029, 2021579238L, '?AfxRegisterSiteFactory@@YGHPAVIControlSiteFactory@@@Z')
(1768, 2030, 2021830818L, '?AfxRegisterWndClass@@YGPB_WIPAUHICON__@@PAUHBRUSH__@@0@Z')
(1769, 2033, 2021341593L, '?AfxRegQueryValue@@YGJPAUHKEY__@@PB_WPA_WPAJ@Z')
(1770, 2034, 2021341734L, '?AfxRegSetValue@@YGJPAUHKEY__@@PB_WK1K@Z')
(1771, 2035, 2020739386L, '?AfxReleaseActCtx@@YGXPAX@Z')
(1772, 2036, 2021838062L, '?AfxRepositionWindow@@YGXPAUAFX_SIZEPARENTPARAMS@@PAUHWND__@@PBUtagRECT@@@Z')
(1773, 2037, 2021833595L, '?AfxResetMsgCache@@YGXXZ')
(1774, 2038, 2021534825L, '?AfxResolveShortcut@@YGHPAVCWnd@@PB_WPA_WH@Z')
(1775, 2039, 2021425438L, '?AfxRFXBulkDefault@@YGXPAVCFieldExchange@@PB_WPAXPAJHK@Z')
(1776, 2040, 2021744068L, '?AfxSafeArrayInit@@YGXPAVCOleSafeArray@@@Z')
(1777, 2041, 2021382118L, '?AfxSetDefaultValue@@YAXPAU_DAOField@@AAV?$CStringT@_WV?$StrTraitMFC_DLL@_WV?$ChTraitsCRT@_W@ATL@@@@@ATL@@@Z')
(1778, 2042, 2021381594L, '?AfxSetFieldInfo@@YAXPAU_DAOField@@AAUCDaoFieldInfo@@@Z')
(1779, 2043, 2021383616L, '?AfxSetIndexFieldInfo@@YAXPAU_DAOIndex@@AAUCDaoIndexInfo@@@Z')
(1780, 2044, 2021382663L, '?AfxSetIndexInfo@@YAXPAU_DAOIndex@@AAUCDaoIndexInfo@@@Z')
(1781, 2045, 2020738225L, '?AfxSetModuleState@@YGPAVAFX_MODULE_STATE@@PAV1@@Z')
(1782, 2046, 2020236117L, '?AfxSetNewHandler@@YGP6AHI@ZP6AHI@Z@Z')
(1783, 2047, 2020740871L, '?AfxSetPerUserRegistration@@YGXH@Z')
(1784, 2048, 2021935623L, '?AfxSetWindowText@@YGXPAUHWND__@@PB_W@Z')
(1785, 2049, 2021747010L, '?AfxSocketTerm@@YGXXZ')
(1786, 2050, 2020734991L, '?AFXSoundThreadProc@@YAXPAX@Z')
(1787, 2051, 2021423696L, '?AfxStoreField@@YGXAAVCRecordset@@IPAX@Z')
(1788, 2052, 2021534478L, '?AfxStringFromCLSID@@YG?AV?$CStringT@_WV?$StrTraitMFC_DLL@_WV?$ChTraitsCRT@_W@ATL@@@@@ATL@@ABU_GUID@@@Z')
(1789, 2053, 2021936554L, '?AfxTermExtensionModule@@YGXAAUAFX_EXTENSION_MODULE@@H@Z')
(1790, 2054, 2020822129L, '?AfxTermLocalData@@YGXPAUHINSTANCE__@@H@Z')
(1791, 2055, 2021756057L, '?AfxTermThread@@YGXPAUHINSTANCE__@@@Z')
(1792, 2056, 2021459923L, '?AfxTextFloatFormat@@YGXPAVCDataExchange@@HPAXNH@Z')
(1793, 2057, 2021238337L, '?AfxThrowArchiveException@@YGXHPB_W@Z')
(1794, 2058, 2021347063L, '?AfxThrowDaoException@@YGXHJ@Z')
(1795, 2059, 2021393783L, '?AfxThrowDBException@@YGXFPAVCDatabase@@PAX@Z')
(1796, 2060, 2021547523L, '?AfxThrowFileException@@YGXHJPB_W@Z')
(1797, 2061, 2021560010L, '?AfxThrowInternetException@@YGXKK@Z')
(1798, 2062, 2021531853L, '?AfxThrowInvalidArgException@@YGXXZ')
(1799, 2063, 2021531595L, '?AfxThrowLastCleanup@@YGXXZ')
(1800, 2064, 2021531787L, '?AfxThrowMemoryException@@YGXXZ')
(1801, 2065, 2021531820L, '?AfxThrowNotSupportedException@@YGXXZ')
(1802, 2066, 2021652288L, '?AfxThrowOleDispatchException@@YGXGII@Z')
(1803, 2067, 2021652213L, '?AfxThrowOleDispatchException@@YGXGPB_WI@Z')
(1804, 2068, 2021693514L, '?AfxThrowOleException@@YGXJ@Z')
(1805, 2069, 2021902995L, '?AfxThrowResourceException@@YGXXZ')
(1806, 2070, 2021903028L, '?AfxThrowUserException@@YGXXZ')
(1807, 2071, 2021544354L, '?AfxTimeToFileTime@@YAXABVCTime@ATL@@PAU_FILETIME@@@Z')
(1808, 2072, 2020822159L, '?AfxTlsAddRef@@YGXXZ')
(1809, 2073, 2020822171L, '?AfxTlsRelease@@YGXXZ')
(1810, 2074, 2021761732L, '?AfxTrackerTerm@@YAXXZ')
(1811, 2075, 2020991191L, '?AFXTrackMouse@@YAHPAUtagTRACKMOUSEEVENT@@@Z')
(1812, 2076, 2020991051L, '?AFXTrackMouseTimerProc@@YGXPAUHWND__@@IIK@Z')
(1813, 2077, 2021531554L, '?AfxTryCleanup@@YGXXZ')
(1814, 2078, 2021828260L, '?AfxUnhookWindowCreate@@YGHXZ')
(1815, 2079, 2019967482L, '?AfxUnlockGlobals@@YGXH@Z')
(1816, 2080, 2021908599L, '?AfxUnlockTempMaps@@YGHH@Z')
(1817, 2081, 2021694409L, '?AfxUnmergeMenus@@YGXPAUHMENU__@@00@Z')
(1818, 2082, 2021579267L, '?AfxUnregisterSiteFactory@@YGHPAVIControlSiteFactory@@@Z')
(1819, 2083, 2021226040L, '?AfxUnregisterWndClasses@@YGXXZ')
(1820, 2084, 2022344176L, '?afxUserToolsManager@@3PAVCUserToolsManager@@A')
(1821, 2085, 2021739115L, '?AfxVariantInit@@YGXPAUtagVARIANT@@@Z')
(1822, 2086, 2021295870L, '?AfxVerifyLicFile@@YGHPAUHINSTANCE__@@PB_W1I@Z')
(1823, 2087, 2021752687L, '?AfxW2AHelper@@YGPADPADPB_WH@Z')
(1824, 2088, 2021225367L, '?AfxWinInit@@YGHPAUHINSTANCE__@@0PA_WH@Z')
(1825, 2089, 2021909370L, '?AfxWinMain@@YGHPAUHINSTANCE__@@0PA_WH@Z')
(1826, 2090, 2021226208L, '?AfxWinTerm@@YGXXZ')
(1827, 2091, 2021827182L, '?AfxWndProc@@YGJPAUHWND__@@IIJ@Z')
(1828, 2092, 2021938160L, '?AfxWndProcDllOle@@YGJPAUHWND__@@IIJ@Z')
(1829, 2093, 2021232978L, '?AfxWriteStringLength@@YGXAAVCArchive@@IH@Z')
(1830, 2094, 2020032212L, '?AlignAutoHidePane@CDockingManager@@QAEXPAVCPaneDivider@@H@Z')
(1831, 2095, 2020037598L, '?AlignByRect@CDockingManager@@IAEXABVCRect@@AAV2@KHH@Z')
(1832, 2096, 2020067263L, '?AlignDockSite@CDockSite@@QAEXABVCRect@@AAV2@H@Z')
(1833, 2097, 2021548708L, '?Alloc@CFixedAlloc@@QAEPAXXZ')
(1834, 2098, 2021548464L, '?Alloc@CFixedAllocNoSync@@QAEPAXXZ')
(1835, 2099, 2021541730L, '?Alloc@CMemFile@@MAEPAEK@Z')
(1836, 2100, 2021542781L, '?Alloc@CSharedFile@@MAEPAEK@Z')
(1837, 2101, 2021404621L, '?AllocAndCacheFieldInfo@CRecordset@@IAEXXZ')
(1838, 2102, 2021753193L, '?Allocate@CAfxStringMgr@@UAEPAUCStringData@ATL@@HH@Z')
(1839, 2103, 2021379757L, '?AllocCache@CDaoRecordset@@IAEXXZ')
(1840, 2104, 2021385607L, '?AllocCacheValue@CDaoFieldExchange@@SGXAAPAUCDaoFieldCache@@K@Z')
(1841, 2105, 2021396841L, '?AllocConnect@CDatabase@@IAEXK@Z')
(1842, 2106, 2021743659L, '?AllocData@COleSafeArray@@QAEXXZ')
(1843, 2107, 2021379171L, '?AllocDatabase@CDaoRecordset@@IAEXXZ')
(1844, 2108, 2021411086L, '?AllocDataCache@CRecordset@@QAEXXZ')
(1845, 2109, 2021743680L, '?AllocDescriptor@COleSafeArray@@QAEXK@Z')
(1846, 2110, 2021245466L, '?AllocElements@CControlBar@@QAEHHH@Z')
(1847, 2111, 2020312514L, '?AllocElements@CPane@@QAEHHH@Z')
(1848, 2112, 2021259216L, '?AllocElements@CStatusBar@@QAEHHH@Z')
(1849, 2113, 2021403125L, '?AllocHstmt@CRecordset@@IAEHXZ')
(1850, 2114, 2021390011L, '?AllocLongBinary@@YAXAAVCLongBinary@@K@Z')
(1851, 2115, 2021481231L, '?AllocPSP@CPropertyPage@@IAEXK@Z')
(1852, 2116, 2021404924L, '?AllocRowset@CRecordset@@IAEXXZ')
(1853, 2117, 2020820599L, '?AllocSlot@CThreadSlotData@@QAEHXZ')
(1854, 2118, 2021409335L, '?AllocStatusArrays@CRecordset@@QAEXXZ')
(1855, 2119, 2019862628L, '?AllocSysString@?$CStringT@_WV?$StrTraitMFC_DLL@_WV?$ChTraitsCRT@_W@ATL@@@@@ATL@@QBEPA_WXZ')
(1856, 2120, 2021951563L, '?AllocSysString@?$CStringT@DV?$StrTraitMFC_DLL@DV?$ChTraitsCRT@D@ATL@@@@@ATL@@QBEPA_WXZ')
(1857, 2121, 2021703924L, '?AllocValue@CProperty@@AAEPAXK@Z')
(1858, 2122, 2021323004L, '?AmbientAppearance@COleControl@@QAEFXZ')
(1859, 2123, 2021323044L, '?AmbientBackColor@COleControl@@QAEKXZ')
(1860, 2124, 2021323091L, '?AmbientDisplayName@COleControl@@QAE?AV?$CStringT@_WV?$StrTraitMFC_DLL@_WV?$ChTraitsCRT@_W@ATL@@@@@ATL@@XZ')
(1861, 2125, 2021323170L, '?AmbientFont@COleControl@@QAEPAUIFontDisp@@XZ')
(1862, 2126, 2021323209L, '?AmbientForeColor@COleControl@@QAEKXZ')
(1863, 2127, 2021323256L, '?AmbientLocaleID@COleControl@@QAEKXZ')
(1864, 2128, 2021323296L, '?AmbientScaleUnits@COleControl@@QAE?AV?$CStringT@_WV?$StrTraitMFC_DLL@_WV?$ChTraitsCRT@_W@ATL@@@@@ATL@@XZ')
(1865, 2129, 2021323498L, '?AmbientShowGrabHandles@COleControl@@QAEHXZ')
(1866, 2130, 2021323542L, '?AmbientShowHatching@COleControl@@QAEHXZ')
(1867, 2131, 2021323375L, '?AmbientTextAlign@COleControl@@QAEFXZ')
(1868, 2132, 2021323458L, '?AmbientUIDead@COleControl@@QAEHXZ')
(1869, 2133, 2021323415L, '?AmbientUserMode@COleControl@@QAEHXZ')
(1870, 2134, 2020703398L, '?AnimTimerProc@CMFCRibbonStatusBarPane@@KGXPAUHWND__@@IIK@Z')
(1871, 2135, 2019844061L, '?Append@?$CSimpleStringT@_W$00@ATL@@QAEXABV12@@Z')
(1872, 2136, 2019850461L, '?Append@?$CSimpleStringT@_W$00@ATL@@QAEXPB_W@Z')
(1873, 2137, 2019843922L, '?Append@?$CSimpleStringT@_W$00@ATL@@QAEXPB_WH@Z')
(1874, 2138, 2021946736L, '?Append@?$CSimpleStringT@D$00@ATL@@QAEXABV12@@Z')
(1875, 2139, 2021946505L, '?Append@?$CSimpleStringT@D$00@ATL@@QAEXPBD@Z')
(1876, 2140, 2021946551L, '?Append@?$CSimpleStringT@D$00@ATL@@QAEXPBDH@Z')
(1877, 2141, 2021239209L, '?Append@CByteArray@@QAEHABV1@@Z')
(1878, 2142, 2021364554L, '?Append@CDaoQueryDef@@UAEXXZ')
(1879, 2143, 2021359823L, '?Append@CDaoTableDef@@UAEXXZ')
(1880, 2144, 2021347832L, '?Append@CDaoWorkspace@@UAEXXZ')
(1881, 2145, 2021243292L, '?Append@CDWordArray@@QAEHABV1@@Z')
(1882, 2146, 2021243292L, '?Append@CObArray@@QAEHABV1@@Z')
(1883, 2147, 2021243292L, '?Append@CPtrArray@@QAEHABV1@@Z')
(1884, 2148, 2021242185L, '?Append@CStringArray@@QAEHABV1@@Z')
(1885, 2149, 2021243292L, '?Append@CUIntArray@@QAEHABV1@@Z')
(1886, 2150, 2021243798L, '?Append@CWordArray@@QAEHABV1@@Z')
(1887, 2151, 2019844486L, '?AppendChar@?$CSimpleStringT@_W$00@ATL@@QAEX_W@Z')
(1888, 2152, 2021946686L, '?AppendChar@?$CSimpleStringT@D$00@ATL@@QAEXD@Z')
(1889, 2153, 2021407790L, '?AppendFilterAndSortSQL@CRecordset@@IAEXXZ')
(1890, 2154, 2021955620L, '?AppendFormat@?$CStringT@_WV?$StrTraitMFC_DLL@_WV?$ChTraitsCRT@_W@ATL@@@@@ATL@@QAAXIZZ')
(1891, 2155, 2021955593L, '?AppendFormat@?$CStringT@_WV?$StrTraitMFC_DLL@_WV?$ChTraitsCRT@_W@ATL@@@@@ATL@@QAAXPB_WZZ')
(1892, 2156, 2021954918L, '?AppendFormat@?$CStringT@DV?$StrTraitMFC_DLL@DV?$ChTraitsCRT@D@ATL@@@@@ATL@@QAAXIZZ')
(1893, 2157, 2021954891L, '?AppendFormat@?$CStringT@DV?$StrTraitMFC_DLL@DV?$ChTraitsCRT@D@ATL@@@@@ATL@@QAAXPBDZZ')
(1894, 2158, 2021953841L, '?AppendFormatV@?$CStringT@_WV?$StrTraitMFC_DLL@_WV?$ChTraitsCRT@_W@ATL@@@@@ATL@@QAEXPB_WPAD@Z')
(1895, 2159, 2021951235L, '?AppendFormatV@?$CStringT@DV?$StrTraitMFC_DLL@DV?$ChTraitsCRT@D@ATL@@@@@ATL@@QAEXPBDPAD@Z')
(1896, 2160, 2021410661L, '?AppendNames@CRecordset@@QAEIPAV?$CStringT@_WV?$StrTraitMFC_DLL@_WV?$ChTraitsCRT@_W@ATL@@@@@ATL@@PB_W@Z')
(1897, 2161, 2021410745L, '?AppendNamesValues@CRecordset@@QAEIPAXPAV?$CStringT@_WV?$StrTraitMFC_DLL@_WV?$ChTraitsCRT@_W@ATL@@@@@ATL@@PB_W@Z')
(1898, 2162, 2021384979L, '?AppendParamType@CDaoFieldExchange@@SGXAAV?$CStringT@_WV?$StrTraitMFC_DLL@_WV?$ChTraitsCRT@_W@ATL@@@@@ATL@@K@Z')
(1899, 2163, 2021410843L, '?AppendValues@CRecordset@@QAEIPAXPAV?$CStringT@_WV?$StrTraitMFC_DLL@_WV?$ChTraitsCRT@_W@ATL@@@@@ATL@@PB_W@Z')
(1900, 2164, 2021222710L, '?ApplicationRecoveryCallback@CWinApp@@UAEKPAX@Z')
(1901, 2165, 2021308613L, '?Apply@XPropertyPage@COlePropertyPage@@UAGJXZ')
(1902, 2166, 2021450942L, '?ApplyOFNToShellDialog@CFileDialog@@QAEXXZ')
(1903, 2167, 2020196358L, '?ApplyParams@CMDIClientAreaWnd@@AAEXPAVCMFCTabCtrl@@@Z')
(1904, 2168, 2021664394L, '?ApplyPrintDevice@COleDocument@@QAEHPBUtagDVTARGETDEVICE@@@Z')
(1905, 2169, 2021664497L, '?ApplyPrintDevice@COleDocument@@QAEHPBUtagPDW@@@Z')
(1906, 2170, 2019874429L, '?ApplyRestoredTabInfo@CBaseTabbedPane@@UAEXH@Z')
(1907, 2171, 2019887214L, '?ApplyRestoredTabInfo@CMFCBaseTabCtrl@@UAEXH@Z')
(1908, 2172, 2021677807L, '?ApplyViewState@XOleDocumentView@CDocObjectServer@@UAGJPAUIStream@@@Z')
(1909, 2173, 2021899957L, '?ArcTo@CDC@@QAEHHHHHHHHH@Z')
(1910, 2174, 2020361407L, '?ArrangeCaptionButtons@CPaneFrameWnd@@IAEXXZ')
(1911, 2175, 2020060769L, '?ArrangePanes@CDockingPanesRow@@UAEXHH@Z')
(1912, 2176, 2020061329L, '?ArrangePanes@CDockingPanesRow@@UAEXPAVCPane@@@Z')
(1913, 2177, 2020064959L, '?ArrangePanesRect@CDockingPanesRow@@IAEXPAVCPane@@@Z')
(1914, 2178, 2020731090L, '?Assign@CSmartDockingStandaloneGuideWnd@@QAEHPAUHBITMAP__@@H@Z')
(1915, 2179, 2020821439L, '?AssignInstance@CThreadSlotData@@QAEXPAUHINSTANCE__@@@Z')
(1916, 2180, 2021749092L, '?AsyncSelect@CAsyncSocket@@QAEHJ@Z')
(1917, 2181, 2021224226L, '?Attach@?$CSimpleStringT@_W$00@ATL@@AAEXPAUCStringData@2@@Z')
(1918, 2182, 2021224226L, '?Attach@?$CSimpleStringT@D$00@ATL@@AAEXPAUCStringData@2@@Z')
(1919, 2183, 2021747340L, '?Attach@CAsyncSocket@@QAEHIJ@Z')
(1920, 2184, 2021897053L, '?Attach@CDC@@QAEHPAUHDC__@@@Z')
(1921, 2185, 2021902213L, '?Attach@CGdiObject@@QAEHPAX@Z')
(1922, 2186, 2021861701L, '?Attach@CImageList@@QAEHPAU_IMAGELIST@@@Z')
(1923, 2187, 2021541569L, '?Attach@CMemFile@@QAEXPAEII@Z')
(1924, 2188, 2021914826L, '?Attach@CMenu@@QAEHPAUHMENU__@@@Z')
(1925, 2189, 2021699628L, '?Attach@CMonikerFile@@IAEHPAUIMoniker@@PAUIBindHost@@PAUIBindStatusCallback@@PAUIBindCtx@@PAVCFileException@@@Z')
(1926, 2190, 2021699056L, '?Attach@CMonikerFile@@IAEHPB_WPAUIBindHost@@PAUIBindStatusCallback@@PAUIBindCtx@@PAVCFileException@@@Z')
(1927, 2191, 2021656125L, '?Attach@COleDataObject@@QAEXPAUIDataObject@@H@Z')
(1928, 2192, 2021742694L, '?Attach@COleSafeArray@@QAEXAAUtagVARIANT@@@Z')
(1929, 2193, 2021711482L, '?Attach@COleStreamFile@@QAEXPAUIStream@@@Z')
(1930, 2194, 2021737925L, '?Attach@COleVariant@@QAEXAAUtagVARIANT@@@Z')
(1931, 2195, 2021827007L, '?Attach@CWnd@@QAEHPAUHWND__@@@Z')
(1932, 2196, 2021657177L, '?AttachClipboard@COleDataObject@@QAEHXZ')
(1933, 2197, 2021921984L, '?AttachControlSite@COleControlContainer@@QAEXPAVCWnd@@I@Z')
(1934, 2198, 2021920540L, '?AttachControlSite@CWnd@@IAEXPAVCHandleMap@@@Z')
(1935, 2199, 2021920610L, '?AttachControlSite@CWnd@@QAEXPAV1@I@Z')
(1936, 2200, 2021622413L, '?AttachDataObject@COleClientItem@@QBEXAAVCOleDataObject@@@Z')
(1937, 2201, 2021653828L, '?AttachDispatch@COleDispatchDriver@@QAEXPAUIDispatch@@H@Z')
(1938, 2202, 2021749409L, '?AttachHandle@CAsyncSocket@@SGXIPAV1@H@Z')
(1939, 2203, 2021490525L, '?AttachOnSetup@CPrintDialog@@MAEPAV1@XZ')
(1940, 2204, 2020017138L, '?AttachToTabWnd@CDockablePane@@UAEPAV1@PAV1@W4AFX_DOCK_METHOD@@HPAPAV1@@Z')
(1941, 2205, 2021588373L, '?AttachWindow@COleControlSite@@QAEXXZ')
(1942, 2206, 2020866258L, '?AutoGrayInactiveImages@CMFCToolBar@@SGXHHH@Z')
(1943, 2207, 2020031760L, '?AutoHidePane@CDockingManager@@QAEPAVCMFCAutoHideBar@@PAVCDockablePane@@PAV2@@Z')
(1944, 2208, 2021823431L, '?AutoLoad@CBitmapButton@@QAEHIPAVCWnd@@@Z')
(1945, 2209, 2019982511L, '?AutosaveAllDocumentInfo@CDataRecoveryHandler@@UAEHXZ')
(1946, 2210, 2019982032L, '?AutosaveDocumentInfo@CDataRecoveryHandler@@UAEHPAVCDocument@@H@Z')
(1947, 2211, 2021751515L, '?AuxQueueAdd@CSocket@@KGXIIJ@Z')
(1948, 2212, 2021782929L, '?BeforeNavigate2@CHtmlView@@MAEXPAUIDispatch@@PAUtagVARIANT@@1111PAF@Z')
(1949, 2213, 2021700326L, '?BeginBusyState@COleMessageFilter@@UAEXXZ')
(1950, 2214, 2021853924L, '?BeginDrag@CDragListBox@@UAEHVCPoint@@@Z')
(1951, 2215, 2021656274L, '?BeginEnumFormats@COleDataObject@@QAEXXZ')
(1952, 2216, 2021881708L, '?BeginModalState@CFrameWnd@@UAEXXZ')
(1953, 2217, 2021351513L, '?BeginTrans@CDaoWorkspace@@QAEXXZ')
(1954, 2218, 2021396432L, '?BeginTrans@CDatabase@@QAEHXZ')
(1955, 2219, 2020064237L, '?BeginTrans@CDockingPanesRow@@IAEXXZ')
(1956, 2220, 2021273189L, '?BeginWaitCursor@CCmdTarget@@QAEXXZ')
(1957, 2221, 2021747882L, '?Bind@CAsyncSocket@@QAEHIPB_W@Z')
(1958, 2222, 2021597343L, '?BindColumns@CDataSourceControl@@UAEXXZ')
(1959, 2223, 2021577482L, '?BindControls@COccManager@@IAEXPAVCWnd@@@Z')
(1960, 2224, 2021590641L, '?BindDefaultProperty@COleControlSite@@UAEXJGPB_WPAVCWnd@@@Z')
(1961, 2225, 2021920496L, '?BindDefaultProperty@CWnd@@QAEXJGPB_WPAV1@@Z')
(1962, 2226, 2021379443L, '?BindFields@CDaoRecordset@@IAEXXZ')
(1963, 2227, 2021410482L, '?BindFieldsForUpdate@CRecordset@@QAEXXZ')
(1964, 2228, 2021410407L, '?BindFieldsToColumns@CRecordset@@QAEIXZ')
(1965, 2229, 2021379656L, '?BindParameters@CDaoRecordset@@IAEXXZ')
(1966, 2230, 2019845999L, '?BindParameters@CDatabase@@UAEXPAX@Z')
(1967, 2231, 2021410296L, '?BindParams@CRecordset@@QAEIPAX@Z')
(1968, 2232, 2021597267L, '?BindProp@CDataSourceControl@@UAEXPAVCDataBoundProperty@@H@Z')
(1969, 2233, 2021596884L, '?BindProp@CDataSourceControl@@UAEXPAVCOleControlSite@@H@Z')
(1970, 2234, 2021590810L, '?BindProperty@COleControlSite@@UAEXJPAVCWnd@@@Z')
(1971, 2235, 2021920518L, '?BindProperty@CWnd@@QAEXJPAV1@@Z')
(1972, 2236, 2020168159L, '?BitmapToClient@CMFCImagePaintArea@@IAEXAAVCRect@@@Z')
(1973, 2237, 2021323586L, '?BoundPropertyChanged@COleControl@@QAEXJ@Z')
(1974, 2238, 2021323685L, '?BoundPropertyRequestEdit@COleControl@@QAEHJ@Z')
(1975, 2239, 2020034987L, '?BringBarsToTop@CDockingManager@@QAEXKH@Z')
(1976, 2240, 2021892665L, '?BringToTop@CFrameWnd@@IAEXH@Z')
(1977, 2241, 2021570606L, '?BroadcastAmbientPropertyChange@COleControlContainer@@UAEXJ@Z')
(1978, 2242, 2020716813L, '?BrowseCallbackProc@CShellManager@@KGHPAUHWND__@@IJJ@Z')
(1979, 2243, 2020716862L, '?BrowseForFolder@CShellManager@@QAEHAAV?$CStringT@_WV?$StrTraitMFC_DLL@_WV?$ChTraitsCRT@_W@ATL@@@@@ATL@@PAVCWnd@@PB_W2IPAH@Z')
(1980, 2244, 2020254527L, '?Build@CMenuTearOffManager@@QAEXIAAV?$CStringT@_WV?$StrTraitMFC_DLL@_WV?$ChTraitsCRT@_W@ATL@@@@@ATL@@@Z')
(1981, 2245, 2021394062L, '?BuildErrorString@CDBException@@UAEXPAVCDatabase@@PAXH@Z')
(1982, 2246, 2020561230L, '?BuildFonts@CMFCRibbonFontComboBox@@QAEXHEE@Z')
(1983, 2247, 2020247058L, '?BuildOrigItems@CMFCMenuBar@@MAEHI@Z')
(1984, 2248, 2020408375L, '?BuildOrigItems@CMFCPopupMenuBar@@QAEHI@Z')
(1985, 2249, 2020048280L, '?BuildPanesMenu@CDockingManager@@QAEXAAVCMenu@@H@Z')
(1986, 2250, 2021379351L, '?BuildParameterList@CDaoRecordset@@IAEXXZ')
(1987, 2251, 2021486946L, '?BuildPropPageArray@CPropertySheet@@UAEXXZ')
(1988, 2252, 2021379284L, '?BuildSelectList@CDaoRecordset@@IAEXXZ')
(1989, 2253, 2021407508L, '?BuildSelectSQL@CRecordset@@IAEXXZ')
(1990, 2254, 2021294005L, '?BuildSharedMenu@COleControl@@MAEHXZ')
(1991, 2255, 2021668154L, '?BuildSharedMenu@COleDocIPFrameWnd@@MAEHXZ')
(1992, 2256, 2021689015L, '?BuildSharedMenu@COleIPFrameWnd@@MAEHXZ')
(1993, 2257, 2021378965L, '?BuildSQL@CDaoRecordset@@IAEXXZ')
(1994, 2258, 2021403585L, '?BuildSQL@CRecordset@@IAEXPB_W@Z')
(1995, 2259, 2021408295L, '?BuildUpdateSQL@CRecordset@@IAEXXZ')
(1996, 2260, 2021290195L, '?ButtonDblClk@COleControl@@IAEXGIVCPoint@@@Z')
(1997, 2261, 2021289764L, '?ButtonDown@COleControl@@IAEXGIVCPoint@@@Z')
(1998, 2262, 2019847566L, '?ButtonFromAutoHideWindow@CMFCAutoHideBar@@IAEPAVCMFCAutoHideButton@@PAVCDockablePane@@@Z')
(1999, 2263, 2019848168L, '?ButtonFromPoint@CMFCAutoHideBar@@IAEPAVCMFCAutoHideButton@@VCPoint@@@Z')
(2000, 2264, 2020828448L, '?ButtonToIndex@CMFCToolBar@@QBEHPBVCMFCToolBarButton@@@Z')
(2001, 2265, 2021289926L, '?ButtonUp@COleControl@@IAEXGIVCPoint@@@Z')
(2002, 2266, 2021054289L, '?Cache@CMFCVisualManagerBitmapCache@@QAEHABVCSize@@AAVCMFCControlRenderer@@@Z')
(2003, 2267, 2021053064L, '?Cache@CMFCVisualManagerBitmapCacheItem@CMFCVisualManagerBitmapCache@@QAEXABVCSize@@AAVCMFCControlRenderer@@@Z')
(2004, 2268, 2021733864L, '?Cache@CTypeLibCache@@QAEXKPAUITypeLib@@@Z')
(2005, 2269, 2021274460L, '?Cache@XOleCache@COleControl@@UAGJPAUtagFORMATETC@@KPAK@Z')
(2006, 2270, 2021657862L, '?CacheData@COleDataSource@@QAEXGPAUtagSTGMEDIUM@@PAUtagFORMATETC@@@Z')
(2007, 2271, 2021657797L, '?CacheGlobalData@COleDataSource@@QAEXGPAXPAUtagFORMATETC@@@Z')
(2008, 2272, 2021734022L, '?CacheTypeInfo@CTypeLibCache@@QAEXKABU_GUID@@PAUITypeInfo@@@Z')
(2009, 2273, 2021054547L, '?CacheY@CMFCVisualManagerBitmapCache@@QAEHHAAVCMFCControlRenderer@@@Z')
(2010, 2274, 2020328164L, '?CalcAvailablePaneSpace@CPaneContainer@@UAEHHPAVCPane@@PAV1@H@Z')
(2011, 2275, 2020310597L, '?CalcAvailableSize@CPane@@UAE?AVCSize@@VCRect@@@Z')
(2012, 2276, 2020328406L, '?CalcAvailableSpace@CPaneContainer@@UAE?AVCSize@@V2@H@Z')
(2013, 2277, 2021918393L, '?CalcBorders@CMiniFrameWnd@@SGXPAUtagRECT@@KK@Z')
(2014, 2278, 2020819945L, '?CalcBorderSize@CMFCTasksPaneFrameWnd@@UBEXAAVCRect@@@Z')
(2015, 2279, 2020360102L, '?CalcBorderSize@CPaneFrameWnd@@UBEXAAVCRect@@@Z')
(2016, 2280, 2020015369L, '?CalcCorrectOffset@CDockablePane@@IAE?AVCPoint@@VCRect@@H@Z')
(2017, 2281, 2021245734L, '?CalcDynamicLayout@CControlBar@@UAE?AVCSize@@HK@Z')
(2018, 2282, 2021245734L, '?CalcDynamicLayout@CReBar@@UAE?AVCSize@@HK@Z')
(2019, 2283, 2021267134L, '?CalcDynamicLayout@CToolBar@@UAE?AVCSize@@HK@Z')
(2020, 2284, 2020429092L, '?CalcEditMargin@CMFCPropertyGridCtrl@@IAEXXZ')
(2021, 2285, 2020032968L, '?CalcExpectedDockedRect@CDockingManager@@QAEXPAVCWnd@@VCPoint@@AAVCRect@@AAHPAPAVCDockablePane@@@Z')
(2022, 2286, 2020153101L, '?CalcExpectedDockedRect@CGlobalUtils@@QAEXAAVCPaneContainerManager@@PAVCWnd@@VCPoint@@AAVCRect@@AAHPAPAVCDockablePane@@@Z')
(2023, 2287, 2020267346L, '?CalcExpectedDockedRect@CMultiPaneFrameWnd@@UAEXPAVCWnd@@VCPoint@@AAVCRect@@AAHPAPAVCDockablePane@@@Z')
(2024, 2288, 2020346654L, '?CalcExpectedDockedRect@CPaneDivider@@UAEXPAVCWnd@@VCPoint@@AAVCRect@@AAHPAPAVCDockablePane@@@Z')
(2025, 2289, 2019854755L, '?CalcFixedLayout@CControlBar@@UAE?AVCSize@@HH@Z')
(2026, 2290, 2021251857L, '?CalcFixedLayout@CDialogBar@@UAE?AVCSize@@HH@Z')
(2027, 2291, 2019848387L, '?CalcFixedLayout@CDockablePane@@UAE?AVCSize@@HH@Z')
(2028, 2292, 2021254510L, '?CalcFixedLayout@CDockBar@@UAE?AVCSize@@HH@Z')
(2029, 2293, 2020054385L, '?CalcFixedLayout@CDockingPanesRow@@UAE?AVCSize@@HH@Z')
(2030, 2294, 2020072160L, '?CalcFixedLayout@CDockSite@@UAE?AVCSize@@HH@Z')
(2031, 2295, 2019848387L, '?CalcFixedLayout@CMFCAutoHideBar@@UAE?AVCSize@@HH@Z')
(2032, 2296, 2019911566L, '?CalcFixedLayout@CMFCCaptionBar@@MAE?AVCSize@@HH@Z')
(2033, 2297, 2020245075L, '?CalcFixedLayout@CMFCMenuBar@@UAE?AVCSize@@HH@Z')
(2034, 2298, 2020283938L, '?CalcFixedLayout@CMFCOutlookBarPane@@MAE?AVCSize@@HH@Z')
(2035, 2299, 2020461317L, '?CalcFixedLayout@CMFCReBar@@UAE?AVCSize@@HH@Z')
(2036, 2300, 2020471702L, '?CalcFixedLayout@CMFCRibbonBar@@MAE?AVCSize@@HH@Z')
(2037, 2301, 2020693350L, '?CalcFixedLayout@CMFCRibbonStatusBar@@MAE?AVCSize@@HH@Z')
(2038, 2302, 2020745790L, '?CalcFixedLayout@CMFCStatusBar@@UAE?AVCSize@@HH@Z')
(2039, 2303, 2020828595L, '?CalcFixedLayout@CMFCToolBar@@UAE?AVCSize@@HH@Z')
(2040, 2304, 2020344716L, '?CalcFixedLayout@CPaneDivider@@UAE?AVCSize@@HH@Z')
(2041, 2305, 2021270826L, '?CalcFixedLayout@CReBar@@UAE?AVCSize@@HH@Z')
(2042, 2306, 2021260595L, '?CalcFixedLayout@CStatusBar@@UAE?AVCSize@@HH@Z')
(2043, 2307, 2021267086L, '?CalcFixedLayout@CToolBar@@UAE?AVCSize@@HH@Z')
(2044, 2308, 2021251186L, '?CalcInsideRect@CControlBar@@UBEXAAVCRect@@H@Z')
(2045, 2309, 2020312626L, '?CalcInsideRect@CPane@@QBEXAAVCRect@@H@Z')
(2046, 2310, 2021259346L, '?CalcInsideRect@CStatusBar@@UBEXAAVCRect@@H@Z')
(2047, 2311, 2020063960L, '?CalcLastPaneOffset@CDockingPanesRow@@IAEHXZ')
(2048, 2312, 2020238778L, '?CalcLayout@CMFCMenuBar@@UAE?AVCSize@@KH@Z')
(2049, 2313, 2020846678L, '?CalcLayout@CMFCToolBar@@MAE?AVCSize@@KH@Z')
(2050, 2314, 2021265964L, '?CalcLayout@CToolBar@@IAE?AVCSize@@KH@Z')
(2051, 2315, 2020246936L, '?CalcMaxButtonHeight@CMFCMenuBar@@UAEHXZ')
(2052, 2316, 2020860061L, '?CalcMaxButtonHeight@CMFCToolBar@@MAEHXZ')
(2053, 2317, 2021866553L, '?CalcMinimumItemHeight@CCheckListBox@@IAEHXZ')
(2054, 2318, 2020363692L, '?CalcMinSize@CPaneFrameWnd@@MAEXAAVCSize@@PAUtagMINMAXINFO@@@Z')
(2055, 2319, 2019960028L, '?CalcNcSize@CMFCControlBarImpl@@IAEXPAUtagNCCALCSIZE_PARAMS@@@Z')
(2056, 2320, 2021794562L, '?CalcPageDisplaySize@CPreviewView@@IAE?AVCSize@@XZ')
(2057, 2321, 2020037027L, '?CalcPaneOffset@CDockingManager@@IAEXPAVCAutoHideDockSite@@@Z')
(2058, 2322, 2020314199L, '?CalcRecentDockedRect@CPane@@QAEXXZ')
(2059, 2323, 2020014936L, '?CalcRectForSliding@CDockablePane@@IAEXAAVCRect@@0H@Z')
(2060, 2324, 2020335319L, '?CalcRects@CPaneContainerManager@@QAEXAAVCRect@@00AAKKVCSize@@2@Z')
(2061, 2325, 2021794321L, '?CalcScaleRatio@CPreviewView@@MAE?AVCSize@@V2@0@Z')
(2062, 2326, 2019924725L, '?CalcSize@CMFCColorBar@@MAE?AVCSize@@H@Z')
(2063, 2327, 2020398409L, '?CalcSize@CMFCPopupMenuBar@@MAE?AVCSize@@H@Z')
(2064, 2328, 2020674053L, '?CalcSize@CMFCRibbonPanelMenuBar@@UAE?AVCSize@@H@Z')
(2065, 2329, 2020847216L, '?CalcSize@CMFCToolBar@@UAE?AVCSize@@H@Z')
(2066, 2330, 2021265059L, '?CalcSize@CToolBar@@IAE?AVCSize@@PAU_TBBUTTON@@H@Z')
(2067, 2331, 2020246503L, '?CalcSysButtonSize@CMFCMenuBar@@IAEXXZ')
(2068, 2332, 2020661886L, '?CalcTotalWidth@CMFCRibbonPanel@@IAEHXZ')
(2069, 2333, 2020322130L, '?CalculateRecentSize@CPaneContainer@@QAEXXZ')
(2070, 2334, 2020068538L, '?CalcWindowRect@CDockSite@@MAEXPAUtagRECT@@I@Z')
(2071, 2335, 2021769379L, '?CalcWindowRect@CEditView@@MAEXPAUtagRECT@@I@Z')
(2072, 2336, 2020197627L, '?CalcWindowRect@CMDIClientAreaWnd@@MAEXPAUtagRECT@@I@Z')
(2073, 2337, 2021821942L, '?CalcWindowRect@CScrollView@@UAEXPAUtagRECT@@I@Z')
(2074, 2338, 2021766996L, '?CalcWindowRect@CView@@UAEXPAUtagRECT@@I@Z')
(2075, 2339, 2021838247L, '?CalcWindowRect@CWnd@@UAEXPAUtagRECT@@I@Z')
(2076, 2340, 2020198748L, '?CalcWindowRectForMDITabbedGroups@CMDIClientAreaWnd@@QAEXPAUtagRECT@@I@Z')
(2077, 2341, 2021649018L, '?CallMemberFunc@CCmdTarget@@IAEJPBUAFX_DISPMAP_ENTRY@@GPAUtagVARIANT@@PAUtagDISPPARAMS@@PAI@Z')
(2078, 2342, 2020024702L, '?CanAcceptMiniFrame@CDockablePane@@UBEHPAVCPaneFrameWnd@@@Z')
(2079, 2343, 2019854614L, '?CanAcceptPane@CAutoHideDockSite@@UBEHPBVCBasePane@@@Z')
(2080, 2344, 2020072758L, '?CanAcceptPane@CDockSite@@UBEHPBVCBasePane@@@Z')
(2081, 2345, 2020277814L, '?CanAcceptPane@CMFCOutlookBar@@UBEHPBVCBasePane@@@Z')
(2082, 2346, 2021468017L, '?CanAccessExternal@CDHtmlDialog@@UAEHXZ')
(2083, 2347, 2021626408L, '?CanActivate@COleClientItem@@MAEHXZ')
(2084, 2348, 2021815262L, '?CanActivate@CRichEditCntrItem@@UAEHXZ')
(2085, 2349, 2021934495L, '?CanActivateNext@CSplitterWnd@@UAEHH@Z')
(2086, 2350, 2021371208L, '?CanAppend@CDaoRecordset@@QBEHXZ')
(2087, 2351, 2020025478L, '?CanAutoHide@CDockablePane@@UBEHXZ')
(2088, 2352, 2019868377L, '?CanBeAddedToQuickAccessToolBar@CMFCRibbonBaseElement@@UBEHXZ')
(2089, 2353, 2020153854L, '?CanBeAttached@CGlobalUtils@@QBEHPAVCWnd@@@Z')
(2090, 2354, 2020340002L, '?CanBeAttached@CPaneContainerManager@@UBEHXZ')
(2091, 2355, 2020267568L, '?CanBeDockedToPane@CMultiPaneFrameWnd@@UBEHPBVCDockablePane@@@Z')
(2092, 2356, 2020366695L, '?CanBeDockedToPane@CPaneFrameWnd@@UBEHPBVCDockablePane@@@Z')
(2093, 2357, 2020290954L, '?CanBeDropped@CMFCOutlookBarPaneButton@@UAEHPAVCMFCToolBar@@@Z')
(2094, 2358, 2020852757L, '?CanBeRestored@CMFCToolBar@@UBEHXZ')
(2095, 2359, 2020466034L, '?CanBeStretched@CMFCRibbonButton@@UAEHXZ')
(2096, 2360, 2020316666L, '?CanBeTabbedDocument@CPane@@UBEHXZ')
(2097, 2361, 2021371353L, '?CanBookmark@CDaoRecordset@@QAEHXZ')
(2098, 2362, 2021399932L, '?CanBookmark@CRecordset@@QBEHXZ')
(2099, 2363, 2021395943L, '?Cancel@CDatabase@@QAEXXZ')
(2100, 2364, 2021402717L, '?Cancel@CRecordset@@QAEXXZ')
(2101, 2365, 2021750403L, '?CancelBlockingCall@CSocket@@QAEXXZ')
(2102, 2366, 2021853977L, '?CancelDrag@CDragListBox@@UAEXVCPoint@@@Z')
(2103, 2367, 2021603195L, '?Cancelled@XNotifyDBEvents@COleControlSite@@UAGJKKQAUtagDBNOTIFYREASON@@@Z')
(2104, 2368, 2021639499L, '?CancelLink@COleUILinkInfo@@UAGJK@Z')
(2105, 2369, 2021509286L, '?CancelLoop@CDockContext@@QAEXXZ')
(2106, 2370, 2020664357L, '?CancelMode@CMFCRibbonPanel@@IAEXXZ')
(2107, 2371, 2021483048L, '?CancelToClose@CPropertyPage@@QAEXXZ')
(2108, 2372, 2021829520L, '?CancelToolTips@CWnd@@SGXH@Z')
(2109, 2373, 2021376346L, '?CancelUpdate@CDaoRecordset@@UAEXXZ')
(2110, 2374, 2021401276L, '?CancelUpdate@CRecordset@@QAEXXZ')
(2111, 2375, 2021496007L, '?CanCloseFrame@CDocument@@UAEHPAVCFrameWnd@@@Z')
(2112, 2376, 2021715023L, '?CanCloseFrame@COleServerDoc@@UAEHPAVCFrameWnd@@@Z')
(2113, 2377, 2021632808L, '?CanCreateFromData@COleClientItem@@SGHPBVCOleDataObject@@@Z')
(2114, 2378, 2021632876L, '?CanCreateLinkFromData@COleClientItem@@SGHPBVCOleDataObject@@@Z')
(2115, 2379, 2021509804L, '?CanDock@CDockContext@@QAEKXZ')
(2116, 2380, 2021894753L, '?CanDock@CFrameWnd@@QAEKVCRect@@KPAPAVCDockBar@@@Z')
(2117, 2381, 2021895340L, '?CanEnterHelpMode@CFrameWnd@@QAEHXZ')
(2118, 2382, 2019859879L, '?CanFloat@CBasePane@@UBEHXZ')
(2119, 2383, 2019874509L, '?CanFloat@CBaseTabbedPane@@UBEHXZ')
(2120, 2384, 2020866145L, '?CanHandleSiblings@CMFCToolBar@@QAEHXZ')
(2121, 2385, 2021630415L, '?CanInPlaceActivate@XOleIPSite@COleClientItem@@UAGJXZ')
(2122, 2386, 2020790482L, '?CanInPlaceActivate@XOleIPSite@COleControlSite@@UAGJXZ')
(2123, 2387, 2020153929L, '?CanPaneBeInFloatingMultiPaneFrameWnd@CGlobalUtils@@QBEHPAVCWnd@@@Z')
(2124, 2388, 2021632620L, '?CanPaste@COleClientItem@@SGHXZ')
(2125, 2389, 2021870563L, '?CanPaste@CRichEditCtrl@@QBEHI@Z')
(2126, 2390, 2021808879L, '?CanPaste@CRichEditView@@QBEHXZ')
(2127, 2391, 2021632739L, '?CanPasteLink@COleClientItem@@SGHXZ')
(2128, 2392, 2021371217L, '?CanRestart@CDaoRecordset@@QAEHXZ')
(2129, 2393, 2021371150L, '?CanScroll@CDaoRecordset@@QBEHXZ')
(2130, 2394, 2020302546L, '?CanShowFewerPageButtons@CMFCOutlookBarTabCtrl@@UBEHXZ')
(2131, 2395, 2020302521L, '?CanShowMorePageButtons@CMFCOutlookBarTabCtrl@@UBEHXZ')
(2132, 2396, 2021353853L, '?CanTransact@CDaoDatabase@@QAEHXZ')
(2133, 2397, 2021371285L, '?CanTransact@CDaoRecordset@@QAEHXZ')
(2134, 2398, 2021353785L, '?CanUpdate@CDaoDatabase@@QAEHXZ')
(2135, 2399, 2021365046L, '?CanUpdate@CDaoQueryDef@@QAEHXZ')
(2136, 2400, 2021371159L, '?CanUpdate@CDaoRecordset@@QBEHXZ')
(2137, 2401, 2021360219L, '?CanUpdate@CDaoTableDef@@QAEHXZ')
(2138, 2402, 2021592004L, '?CanWindowlessActivate@XOleIPSite@COleControlSite@@UAGJXZ')
(2139, 2403, 2020734962L, '?CauseCancelMode@CSmartDockingManager@@QAEXXZ')
(2140, 2404, 2021463300L, '?CDHtmlSinkHandlerQueryInterface@CDHtmlEventSink@@UAGJABU_GUID@@PAPAX@Z')
(2141, 2405, 2020662075L, '?CenterElementsInColumn@CMFCRibbonPanel@@IAEXHHH@Z')
(2142, 2406, 2021820732L, '?CenterOnPoint@CScrollView@@IAEXVCPoint@@@Z')
(2143, 2407, 2021844880L, '?CenterWindow@CWnd@@QAEXPAV1@@Z')
(2144, 2408, 2020810036L, '?ChangeActivePage@CMFCTasksPane@@IAEXHH@Z')
(2145, 2409, 2021737873L, '?ChangeType@COleVariant@@QAEXGPAUtagVARIANT@@@Z')
(2146, 2410, 2021853008L, '?CharToItem@CListBox@@UAEHII@Z')
(2147, 2411, 2021950622L, '?CharToOemA@?$CStringT@DV?$StrTraitMFC_DLL@DV?$ChTraitsCRT@D@ATL@@@@@ATL@@QAEXXZ')
(2148, 2412, 2021396620L, '?Check@CDatabase@@UBEHF@Z')
(2149, 2413, 2021402900L, '?Check@CRecordset@@UBEHF@Z')
(2150, 2414, 2020151469L, '?CheckAlignment@CGlobalUtils@@QBEHVCPoint@@PAVCBasePane@@HPBVCDockingManager@@HAAKKPBUtagRECT@@@Z')
(2151, 2415, 2020339884L, '?CheckAndRemoveNonValidPane@CPaneContainerManager@@QAEHPAVCWnd@@@Z')
(2152, 2416, 2020389072L, '?CheckArea@CMFCPopupMenu@@QBE?AW4MENUAREA_TYPE@1@ABVCPoint@@@Z')
(2153, 2417, 2021444968L, '?CheckAutoCenter@CDialog@@UAEHXZ')
(2154, 2418, 2021344229L, '?CheckAutoCenter@CWnd@@UAEHXZ')
(2155, 2419, 2020013383L, '?CheckAutoHideCondition@CDockablePane@@MAEHXZ')
(2156, 2420, 2020187472L, '?CheckChar@CMFCMaskedEdit@@AAEH_WH@Z')
(2157, 2421, 2021235767L, '?CheckCount@CArchive@@QAEXXZ')
(2158, 2422, 2021572547L, '?CheckDlgButton@COleControlContainer@@UAEXHI@Z')
(2159, 2423, 2021918808L, '?CheckDlgButton@CWnd@@QAEXHI@Z')
(2160, 2424, 2020339629L, '?CheckForMiniFrameAndCaption@CPaneContainerManager@@UAEHVCPoint@@PAPAVCDockablePane@@@Z')
(2161, 2425, 2021866896L, '?CheckFromPoint@CCheckListBox@@IAEHVCPoint@@AAH@Z')
(2162, 2426, 2021631975L, '?CheckGeneral@COleClientItem@@MAEXJ@Z')
(2163, 2427, 2020266157L, '?CheckGripperVisibility@CMultiPaneFrameWnd@@UAEXXZ')
(2164, 2428, 2021396645L, '?CheckHstmt@CDatabase@@QBGHFPAX@Z')
(2165, 2429, 2019850305L, '?CheckImplicitLoad@?$CStringT@_WV?$StrTraitMFC_DLL@_WV?$ChTraitsCRT@_W@ATL@@@@@ATL@@AAE_NPBX@Z')
(2166, 2430, 2021223753L, '?CheckImplicitLoad@?$CStringT@DV?$StrTraitMFC_DLL@DV?$ChTraitsCRT@D@ATL@@@@@ATL@@AAE_NPBX@Z')
(2167, 2431, 2019904832L, '?CheckNextPrevRadioButton@CMFCButton@@IAEHH@Z')
(2168, 2432, 2020328995L, '?CheckPaneDividerVisibility@CPaneContainer@@QAEXXZ')
(2169, 2433, 2020057154L, '?CheckPanes@CDockingPanesRow@@IAEHAAVCRect@@PAVCPane@@_NVCPoint@@HAAPAX@Z')
(2170, 2434, 2021572618L, '?CheckRadioButton@COleControlContainer@@UAEXHHH@Z')
(2171, 2435, 2021918852L, '?CheckRadioButton@CWnd@@QAEXHHH@Z')
(2172, 2436, 2019914864L, '?CheckRectangle@CMFCCaptionBar@@IAEHAAVCRect@@ABV2@H@Z')
(2173, 2437, 2021406385L, '?CheckRowsetCurrencyStatus@CRecordset@@QAEXGJ@Z')
(2174, 2438, 2021400221L, '?CheckRowsetError@CRecordset@@UAEXF@Z')
(2175, 2439, 2021822327L, '?CheckScrollBars@CScrollView@@QBEXAAH0@Z')
(2176, 2440, 2020013809L, '?CheckStopSlideCondition@CDockablePane@@MAEHH@Z')
(2177, 2441, 2021344229L, '?CheckTabbedBarAlignment@CTabbedPane@@MAEHXZ')
(2178, 2442, 2020346514L, '?CheckVisibility@CPaneDivider@@UAEHXZ')
(2179, 2443, 2020462462L, '?ChWindowFromPoint@@YAPAUHWND__@@PAU1@UtagPOINT@@@Z')
(2180, 2444, 2019701316L, '?classCDaoDatabase@CDaoDatabase@@2UCRuntimeClass@@B')
(2181, 2445, 2019701152L, '?classCDaoException@CDaoException@@2UCRuntimeClass@@B')
(2182, 2446, 2019701372L, '?classCDaoQueryDef@CDaoQueryDef@@2UCRuntimeClass@@B')
(2183, 2447, 2019701400L, '?classCDaoRecordset@CDaoRecordset@@2UCRuntimeClass@@B')
(2184, 2448, 2019702200L, '?classCDaoRecordView@CDaoRecordView@@2UCRuntimeClass@@B')
(2185, 2449, 2019701344L, '?classCDaoTableDef@CDaoTableDef@@2UCRuntimeClass@@B')
(2186, 2450, 2019701180L, '?classCDaoWorkspace@CDaoWorkspace@@2UCRuntimeClass@@B')
(2187, 2451, 2019703148L, '?classCDatabase@CDatabase@@2UCRuntimeClass@@B')
(2188, 2452, 2019703120L, '?classCDBException@CDBException@@2UCRuntimeClass@@B')
(2189, 2453, 2019703428L, '?classCLongBinary@CLongBinary@@2UCRuntimeClass@@B')
(2190, 2454, 2019747776L, '?classCOleDBRecordView@COleDBRecordView@@2UCRuntimeClass@@B')
(2191, 2455, 2019703176L, '?classCRecordset@CRecordset@@2UCRuntimeClass@@B')
(2192, 2456, 2019703752L, '?classCRecordView@CRecordView@@2UCRuntimeClass@@B')
(2193, 2457, 2021210601L, '?CleanState@CWinAppEx@@UAEHPB_W@Z')
(2194, 2458, 2021059437L, '?CleanStyle@CMFCVisualManagerOffice2007@@SGXXZ')
(2195, 2459, 2020148198L, '?CleanUp@AFX_GLOBAL_DATA@@QAEXXZ')
(2196, 2460, 2019953604L, '?CleanUp@CCommandManager@@QAEXXZ')
(2197, 2461, 2020174264L, '?CleanUp@CKeyboardManager@@SGXXZ')
(2198, 2462, 2020251123L, '?CleanUp@CMenuHash@@QAEXXZ')
(2199, 2463, 2020252613L, '?CleanUp@CMenuImages@@SGXXZ')
(2200, 2464, 2019879352L, '?CleanUp@CMFCBaseTabCtrl@@UAEXXZ')
(2201, 2465, 2019897776L, '?CleanUp@CMFCButton@@UAEXXZ')
(2202, 2466, 2019963154L, '?CleanUp@CMFCControlRenderer@@UAEXXZ')
(2203, 2467, 2020114916L, '?CleanUp@CMFCFontComboBox@@IAEXXZ')
(2204, 2468, 2020913295L, '?CleanUp@CMFCToolBarImages@@SGXXZ')
(2205, 2469, 2021059492L, '?CleanUp@CMFCVisualManagerOffice2007@@MAEXXZ')
(2206, 2470, 2020317049L, '?CleanUp@CPaneContainer@@IAEXXZ')
(2207, 2471, 2021482537L, '?Cleanup@CPropertyPage@@IAEXXZ')
(2208, 2472, 2020464787L, '?CleanUp@CRecentDockSiteInfo@@QAEXXZ')
(2209, 2473, 2021852665L, '?Cleanup@CSplitButton@@IAEXXZ')
(2210, 2474, 2019848477L, '?CleanUpAutoHideButtons@CMFCAutoHideBar@@IAEXXZ')
(2211, 2475, 2020699257L, '?CleanUpCustomizeItems@CMFCRibbonStatusBar@@IAEXXZ')
(2212, 2476, 2020861361L, '?CleanUpImages@CMFCToolBar@@SGXXZ')
(2213, 2477, 2020861482L, '?CleanUpLockedImages@CMFCToolBar@@QAEXXZ')
(2214, 2478, 2021306368L, '?CleanupObjectArray@COlePropertyPage@@IAEXXZ')
(2215, 2479, 2020524432L, '?CleanUpSizes@CMFCRibbonButtonsGroup@@MAEXXZ')
(2216, 2480, 2020531042L, '?CleanUpSizes@CMFCRibbonCategory@@IAEXXZ')
(2217, 2481, 2020669346L, '?CleanUpSizes@CMFCRibbonPanel@@IAEXXZ')
(2218, 2482, 2021025605L, '?CleanUpThemes@CMFCBaseVisualManager@@IAEXXZ')
(2219, 2483, 2020705205L, '?CleanUpUndoList@CMFCRibbonUndoButton@@QAEXXZ')
(2220, 2484, 2021431096L, '?Clear@CDBVariant@@QAEXXZ')
(2221, 2485, 2021514208L, '?Clear@CDockState@@QAEXXZ')
(2222, 2486, 2020638473L, '?Clear@CMFCRibbonGallery@@UAEXXZ')
(2223, 2487, 2020929095L, '?Clear@CMFCToolBarImages@@QAEXXZ')
(2224, 2488, 2021054200L, '?Clear@CMFCVisualManagerBitmapCache@@QAEXXZ')
(2225, 2489, 2020287362L, '?ClearAll@CMFCOutlookBarPane@@QAEXXZ')
(2226, 2490, 2019953558L, '?ClearAllCmdImages@CCommandManager@@QAEXXZ')
(2227, 2491, 2019953521L, '?ClearCmdImage@CCommandManager@@QAEXI@Z')
(2228, 2492, 2020276196L, '?ClearData@CMFCRibbonComboBox@@MAEXXZ')
(2229, 2493, 2020561892L, '?ClearData@CMFCRibbonFontComboBox@@MAEXXZ')
(2230, 2494, 2021380595L, '?ClearDirtyFieldStatus@CDaoRecordset@@QAEXI@Z')
(2231, 2495, 2021409977L, '?ClearDirtyFieldStatus@CRecordset@@QAEXK@Z')
(2232, 2496, 2021409874L, '?ClearFieldStatus@CRecordset@@QAEXXZ')
(2233, 2497, 2021380817L, '?ClearFieldStatusFlags@CDaoRecordset@@QAEXXZ')
(2234, 2498, 2020906213L, '?ClearFonts@CMFCToolBarFontComboBox@@KGXXZ')
(2235, 2499, 2019891455L, '?ClearImageList@CMFCBaseTabCtrl@@UAEXXZ')
(2236, 2500, 2019904716L, '?ClearImages@CMFCButton@@IAEXH@Z')
(2237, 2501, 2021380677L, '?ClearNullFieldStatus@CDaoRecordset@@QAEXI@Z')
(2238, 2502, 2021410091L, '?ClearNullFieldStatus@CRecordset@@QAEXK@Z')
(2239, 2503, 2021410205L, '?ClearNullParamStatus@CRecordset@@QAEXK@Z')
(2240, 2504, 2021496282L, '?ClearPathName@CDocument@@UAEXXZ')
(2241, 2505, 2019953540L, '?ClearUserCmdImages@CCommandManager@@QAEXXZ')
(2242, 2506, 2020788784L, '?ClickCommandControl@CTaskDialog@@IBEXH@Z')
(2243, 2507, 2020789069L, '?ClickRadioButton@CTaskDialog@@IBEXH@Z')
(2244, 2508, 2021296816L, '?ClientToParent@COleControl@@UBEXPBUtagRECT@@PAUtagPOINT@@@Z')
(2245, 2509, 2021899887L, '?ClientToScreen@CWnd@@QBEXPAUtagRECT@@@Z')
(2246, 2510, 2021298681L, '?ClipCaretRect@COleControl@@QAEHPAUtagRECT@@@Z')
(2247, 2511, 2021440697L, '?ClipToPage@CPreviewDC@@QAEXXZ')
(2248, 2512, 2021946421L, '?Clone@CAfxStringMgr@@UAEPAUIAtlStringMgr@ATL@@XZ')
(2249, 2513, 2021478652L, '?Clone@CArchiveStream@@UAGJPAPAUIStream@@@Z')
(2250, 2514, 2021682590L, '?Clone@XEnumVOID@CEnumArray@@UAGJPAPAUIEnumVOID@@@Z')
(2251, 2515, 2021678064L, '?Clone@XOleDocumentView@CDocObjectServer@@UAGJPAUIOleInPlaceSite@@PAPAUIOleDocumentView@@@Z')
(2252, 2516, 2019845245L, '?CloneData@?$CSimpleStringT@_W$00@ATL@@CAPAUCStringData@2@PAU32@@Z')
(2253, 2517, 2021429692L, '?CloneData@?$CSimpleStringT@D$00@ATL@@CAPAUCStringData@2@PAU32@@Z')
(2254, 2518, 2021234098L, '?Close@CArchive@@QAEXXZ')
(2255, 2519, 2021612526L, '?Close@CAsyncMonikerFile@@UAEXXZ')
(2256, 2520, 2021748183L, '?Close@CAsyncSocket@@UAEXXZ')
(2257, 2521, 2021325930L, '?Close@CCachedDataPathProperty@@UAEXXZ')
(2258, 2522, 2021353485L, '?Close@CDaoDatabase@@UAEXXZ')
(2259, 2523, 2021364955L, '?Close@CDaoQueryDef@@UAEXXZ')
(2260, 2524, 2021370437L, '?Close@CDaoRecordset@@UAEXXZ')
(2261, 2525, 2021360137L, '?Close@CDaoTableDef@@UAEXXZ')
(2262, 2526, 2021348237L, '?Close@CDaoWorkspace@@UAEXXZ')
(2263, 2527, 2021395958L, '?Close@CDatabase@@UAEXXZ')
(2264, 2528, 2021533672L, '?Close@CFile@@UAEXXZ')
(2265, 2529, 2021536732L, '?Close@CFileFind@@QAEXXZ')
(2266, 2530, 2021554003L, '?Close@CInternetConnection@@UAEXXZ')
(2267, 2531, 2021552601L, '?Close@CInternetFile@@UAEXXZ')
(2268, 2532, 2021550234L, '?Close@CInternetSession@@UAEXXZ')
(2269, 2533, 2021542311L, '?Close@CMemFile@@UAEXXZ')
(2270, 2534, 2021498499L, '?Close@CMirrorFile@@UAEXXZ')
(2271, 2535, 2021699831L, '?Close@CMonikerFile@@UAEXXZ')
(2272, 2536, 2021616561L, '?Close@COleClientItem@@QAEXW4tagOLECLOSE@@@Z')
(2273, 2537, 2021713308L, '?Close@COleStreamFile@@UAEXXZ')
(2274, 2538, 2021398997L, '?Close@CRecordset@@UAEXXZ')
(2275, 2539, 2020707925L, '?Close@CSettingsStore@@UAEXXZ')
(2276, 2540, 2021750817L, '?Close@CSocket@@UAEXXZ')
(2277, 2541, 2021752304L, '?Close@CSocketFile@@UAEXXZ')
(2278, 2542, 2021547111L, '?Close@CStdioFile@@UAEXXZ')
(2279, 2543, 2021672235L, '?Close@XOleObject@CDocObjectServer@@UAGJK@Z')
(2280, 2544, 2021299815L, '?Close@XOleObject@COleControl@@UAGJK@Z')
(2281, 2545, 2021722340L, '?Close@XOleObject@COleServerDoc@@UAGJK@Z')
(2282, 2546, 2021478652L, '?Close@XOleObject@COleServerItem@@UAGJK@Z')
(2283, 2547, 2021522596L, '?CloseAllDocuments@CDocManager@@UAEXH@Z')
(2284, 2548, 2021529371L, '?CloseAllDocuments@CDocTemplate@@UAEXH@Z')
(2285, 2549, 2021226683L, '?CloseAllDocuments@CWinApp@@QAEXH@Z')
(2286, 2550, 2020208095L, '?CloseAllWindows@CMDIClientAreaWnd@@QAEXPAVCMFCTabCtrl@@@Z')
(2287, 2551, 2020442738L, '?CloseColorPopup@CMFCPropertyGridCtrl@@UAEXXZ')
(2288, 2552, 2021536805L, '?CloseContext@CFileFind@@MAEXXZ')
(2289, 2553, 2021558968L, '?CloseContext@CFtpFileFind@@MAEXXZ')
(2290, 2554, 2021558968L, '?CloseContext@CGopherFileFind@@MAEXXZ')
(2291, 2555, 2020976876L, '?CloseContextMenu@CMFCToolBarsMenuPropertyPage@@QAEXPAVCMFCPopupMenu@@@Z')
(2292, 2556, 2020407552L, '?CloseDelayedSubMenu@CMFCPopupMenuBar@@UAEXXZ')
(2293, 2557, 2020680633L, '?CloseDelayedSubMenu@CMFCRibbonPanelMenuBar@@UAEXXZ')
(2294, 2558, 2020381250L, '?CloseMenu@CMFCPopupMenu@@QAEXH@Z')
(2295, 2559, 2020266112L, '?CloseMiniFrame@CMultiPaneFrameWnd@@UAEXXZ')
(2296, 2560, 2020361760L, '?CloseMiniFrame@CPaneFrameWnd@@MAEXXZ')
(2297, 2561, 2019868299L, '?ClosePopupMenu@CMFCRibbonBaseElement@@UAEXXZ')
(2298, 2562, 2020516056L, '?ClosePopupMenu@CMFCRibbonButton@@UAEXXZ')
(2299, 2563, 2021754303L, '?CloseThemeData@CThemeHelper@@SAJPAX@Z')
(2300, 2564, 2021754136L, '?CloseThemeDataFail@CThemeHelper@@CAJPAX@Z')
(2301, 2565, 2021677487L, '?CloseView@XOleDocumentView@CDocObjectServer@@UAGJK@Z')
(2302, 2566, 2020802371L, '?CollapseAllGroups@CMFCTasksPane@@QAEXH@Z')
(2303, 2567, 2020802480L, '?CollapseAllGroups@CMFCTasksPane@@QAEXHH@Z')
(2304, 2568, 2020802287L, '?CollapseGroup@CMFCTasksPane@@QAEHPAVCMFCTasksPaneTaskGroup@@H@Z')
(2305, 2569, 2020383282L, '?CollapseSubmenus@CMFCPopupMenu@@IAEXXZ')
(2306, 2570, 2020116453L, '?Collate@?$CStringT@_WV?$StrTraitMFC_DLL@_WV?$ChTraitsCRT@_W@ATL@@@@@ATL@@QBEHPB_W@Z')
(2307, 2571, 2021948321L, '?Collate@?$CStringT@DV?$StrTraitMFC_DLL@DV?$ChTraitsCRT@D@ATL@@@@@ATL@@QBEHPBD@Z')
(2308, 2572, 2020151367L, '?CollateNoCase@?$CStringT@_WV?$StrTraitMFC_DLL@_WV?$ChTraitsCRT@_W@ATL@@@@@ATL@@QBEHPB_W@Z')
(2309, 2573, 2021948349L, '?CollateNoCase@?$CStringT@DV?$StrTraitMFC_DLL@DV?$ChTraitsCRT@D@ATL@@@@@ATL@@QBEHPBD@Z')
(2310, 2574, 2021555085L, '?Command@CFtpConnection@@QAEPAVCInternetFile@@PB_WW4CmdResponseType@1@KK@Z')
(2311, 2575, 2020743446L, '?CommandToIndex@CMFCStatusBar@@QBEHI@Z')
(2312, 2576, 2020828148L, '?CommandToIndex@CMFCToolBar@@QBEHIH@Z')
(2313, 2577, 2021259892L, '?CommandToIndex@CStatusBar@@QBEHI@Z')
(2314, 2578, 2021264661L, '?CommandToIndex@CToolBar@@QBEHI@Z')
(2315, 2579, 2021478652L, '?Commit@CArchiveStream@@UAGJK@Z')
(2316, 2580, 2021620764L, '?CommitItem@COleClientItem@@UAEXH@Z')
(2317, 2581, 2021661178L, '?CommitItems@COleDocument@@QAEXHPAUIStorage@@@Z')
(2318, 2582, 2021351563L, '?CommitTrans@CDaoWorkspace@@QAEXXZ')
(2319, 2583, 2021396478L, '?CommitTrans@CDatabase@@QAEHXZ')
(2320, 2584, 2020064316L, '?CommitTrans@CDockingPanesRow@@IAEXXZ')
(2321, 2585, 2020001774L, '?CommonConstruct@CDialogEx@@IAEXXZ')
(2322, 2586, 2021682925L, '?CommonConstruct@COleObjectFactory@@IAEXABU_GUID@@PAUCRuntimeClass@@HHPB_W@Z')
(2323, 2587, 2021481784L, '?CommonConstruct@CPropertyPage@@IAEXPB_WI@Z')
(2324, 2588, 2021482327L, '?CommonConstruct@CPropertyPage@@IAEXPB_WIII@Z')
(2325, 2589, 2021484812L, '?CommonConstruct@CPropertySheet@@QAEXPAVCWnd@@I@Z')
(2326, 2590, 2021485356L, '?CommonConstruct@CPropertySheet@@QAEXPAVCWnd@@IPAUHBITMAP__@@PAUHPALETTE__@@1@Z')
(2327, 2591, 2021756397L, '?CommonConstruct@CWinThread@@QAEXXZ')
(2328, 2592, 2019994995L, '?CommonCreate@CMFCDesktopAlertWnd@@IAEHVCPoint@@PAVCMFCDesktopAlertWndInfo@@@Z')
(2329, 2593, 2019961333L, '?CommonInit@CMFCControlRendererInfo@@QAEXXZ')
(2330, 2594, 2019972890L, '?CommonInit@CMFCCustomizeButton@@IAEXXZ')
(2331, 2595, 2020099400L, '?CommonInit@CMFCDropDownListBox@@IAEXXZ')
(2332, 2596, 2020159150L, '?CommonInit@CMFCHeaderCtrl@@IAEXXZ')
(2333, 2597, 2020450015L, '?CommonInit@CMFCPropertyPage@@IAEXXZ')
(2334, 2598, 2020454123L, '?CommonInit@CMFCPropertySheet@@IAEXXZ')
(2335, 2599, 2020505350L, '?CommonInit@CMFCRibbonButton@@IAEXXZ')
(2336, 2600, 2020527535L, '?CommonInit@CMFCRibbonCategory@@IAEXPAVCMFCRibbonBar@@PB_WIIVCSize@@2@Z')
(2337, 2601, 2020552631L, '?CommonInit@CMFCRibbonColorButton@@IAEXXZ')
(2338, 2602, 2020557500L, '?CommonInit@CMFCRibbonComboBox@@IAEXXZ')
(2339, 2603, 2020573359L, '?CommonInit@CMFCRibbonEdit@@IAEXXZ')
(2340, 2604, 2020638832L, '?CommonInit@CMFCRibbonGallery@@IAEXXZ')
(2341, 2605, 2020645366L, '?CommonInit@CMFCRibbonGalleryMenuButton@@IAEXXZ')
(2342, 2606, 2020648293L, '?CommonInit@CMFCRibbonPanel@@IAEXPB_WPAUHICON__@@@Z')
(2343, 2607, 2020673013L, '?CommonInit@CMFCRibbonPanelMenuBar@@IAEXXZ')
(2344, 2608, 2020683881L, '?CommonInit@CMFCRibbonProgressBar@@IAEXXZ')
(2345, 2609, 2020689137L, '?CommonInit@CMFCRibbonSlider@@IAEXXZ')
(2346, 2610, 2020701558L, '?CommonInit@CMFCRibbonStatusBarPane@@IAEXXZ')
(2347, 2611, 2020704772L, '?CommonInit@CMFCRibbonUndoButton@@IAEXXZ')
(2348, 2612, 2021350220L, '?CompactDatabase@CDaoWorkspace@@SGXPB_W00H@Z')
(2349, 2613, 2021349831L, '?CompactDatabase@CDaoWorkspace@@SGXPB_W00H0@Z')
(2350, 2614, 2019863157L, '?Compare@?$CStringT@_WV?$StrTraitMFC_DLL@_WV?$ChTraitsCRT@_W@ATL@@@@@ATL@@QBEHPB_W@Z')
(2351, 2615, 2021429909L, '?Compare@?$CStringT@DV?$StrTraitMFC_DLL@DV?$ChTraitsCRT@D@ATL@@@@@ATL@@QBEHPBD@Z')
(2352, 2616, 2020895542L, '?Compare@CMFCToolBarComboBoxButton@@UAEHPB_W0@Z')
(2353, 2617, 2020790482L, '?CompareItem@CComboBox@@UAEHPAUtagCOMPAREITEMSTRUCT@@@Z')
(2354, 2618, 2020790482L, '?CompareItem@CListBox@@UAEHPAUtagCOMPAREITEMSTRUCT@@@Z')
(2355, 2619, 2020113836L, '?CompareItem@CMFCFontComboBox@@UAEHPAUtagCOMPAREITEMSTRUCT@@@Z')
(2356, 2620, 2019849313L, '?CompareNoCase@?$CStringT@_WV?$StrTraitMFC_DLL@_WV?$ChTraitsCRT@_W@ATL@@@@@ATL@@QBEHPB_W@Z')
(2357, 2621, 2021948277L, '?CompareNoCase@?$CStringT@DV?$StrTraitMFC_DLL@DV?$ChTraitsCRT@D@ATL@@@@@ATL@@QBEHPBD@Z')
(2358, 2622, 2020181658L, '?CompareProc@CMFCListCtrl@@KGHJJJ@Z')
(2359, 2623, 2020719331L, '?CompareProc@CMFCShellTreeCtrl@@KGHJJJ@Z')
(2360, 2624, 2020445131L, '?CompareProps@CMFCPropertyGridCtrl@@MBEHPBVCMFCPropertyGridProperty@@0@Z')
(2361, 2625, 2021386369L, '?CompareValue@CDaoFieldExchange@@SGHPAX0K@Z')
(2362, 2626, 2020875052L, '?CompareWith@CMFCToolBarButton@@UBEHABV1@@Z')
(2363, 2627, 2020951800L, '?CompareWith@CMFCToolBarMenuButton@@UBEHABVCMFCToolBarButton@@@Z')
(2364, 2628, 2021438420L, '?ComputeDeltas@CPreviewDC@@IAE?AVCSize@@AAHPB_WAAIHIPAHHPA_W30@Z')
(2365, 2629, 2019871125L, '?Concatenate@?$CSimpleStringT@_W$00@ATL@@KAXAAV12@PB_WH1H@Z')
(2366, 2630, 2021947041L, '?Concatenate@?$CSimpleStringT@D$00@ATL@@KAXAAV12@PBDH1H@Z')
(2367, 2631, 2020717340L, '?ConcatenateItem@CShellManager@@QAEPAU_ITEMIDLIST@@PBU2@0@Z')
(2368, 2632, 2021748223L, '?Connect@CAsyncSocket@@QAEHPB_WI@Z')
(2369, 2633, 2021397053L, '?Connect@CDatabase@@IAEHK@Z')
(2370, 2634, 2021474971L, '?ConnectDHtmlElementEvents@CDHtmlDialog@@IAEJK@Z')
(2371, 2635, 2021474835L, '?ConnectDHtmlEvents@CDHtmlDialog@@IAEJPAUIUnknown@@@Z')
(2372, 2636, 2021750331L, '?ConnectHelper@CAsyncSocket@@MAEHPBUsockaddr@@H@Z')
(2373, 2637, 2021751107L, '?ConnectHelper@CSocket@@MAEHPBUsockaddr@@H@Z')
(2374, 2638, 2021587317L, '?ConnectSink@COleControlSite@@IAEKABU_GUID@@PAUIUnknown@@@Z')
(2375, 2640, 2021463241L, '?ConnectToConnectionPoint@CDHtmlEventSink@@QAEJPAUIUnknown@@ABU_GUID@@PAK@Z')
(2376, 2641, 2021464627L, '?ConnectToControl@CDHtmlControlSink@@QAEJPAUIUnknown@@@Z')
(2377, 2642, 2021719109L, '?ConnectView@COleServerDoc@@IAEXPAVCWnd@@PAVCView@@@Z')
(2378, 2643, 2021952431L, '?Construct@?$CStringT@_WV?$StrTraitMFC_DLL@_WV?$ChTraitsCRT@_W@ATL@@@@@ATL@@SAXPAV12@@Z')
(2379, 2644, 2021952431L, '?Construct@?$CStringT@DV?$StrTraitMFC_DLL@DV?$ChTraitsCRT@D@ATL@@@@@ATL@@SAXPAV12@@Z')
(2380, 2645, 2021481603L, '?Construct@CPropertyPage@@QAEXII@Z')
(2381, 2646, 2021482256L, '?Construct@CPropertyPage@@QAEXIIII@Z')
(2382, 2647, 2021481630L, '?Construct@CPropertyPage@@QAEXPB_WI@Z')
(2383, 2648, 2021482289L, '?Construct@CPropertyPage@@QAEXPB_WIII@Z')
(2384, 2649, 2021484702L, '?Construct@CPropertySheet@@QAEXIPAVCWnd@@I@Z')
(2385, 2650, 2021485228L, '?Construct@CPropertySheet@@QAEXIPAVCWnd@@IPAUHBITMAP__@@PAUHPALETTE__@@1@Z')
(2386, 2651, 2021484756L, '?Construct@CPropertySheet@@QAEXPB_WPAVCWnd@@I@Z')
(2387, 2652, 2021485291L, '?Construct@CPropertySheet@@QAEXPB_WPAVCWnd@@IPAUHBITMAP__@@PAUHPALETTE__@@2@Z')
(2388, 2653, 2021761847L, '?Construct@CRectTracker@@IAEXXZ')
(2389, 2654, 2021478652L, '?ContextSensitiveHelp@XOleInPlaceActiveObject@COleControl@@UAGJH@Z')
(2390, 2655, 2021726315L, '?ContextSensitiveHelp@XOleInPlaceActiveObject@COleServerDoc@@UAGJH@Z')
(2391, 2656, 2021628938L, '?ContextSensitiveHelp@XOleInPlaceFrame@COleFrameHook@@UAGJH@Z')
(2392, 2657, 2021478652L, '?ContextSensitiveHelp@XOleInPlaceObject@COleControl@@UAGJH@Z')
(2393, 2658, 2021725615L, '?ContextSensitiveHelp@XOleInPlaceObject@COleServerDoc@@UAGJH@Z')
(2394, 2659, 2021478652L, '?ContextSensitiveHelp@XOleIPFrame@COleControlContainer@@UAGJH@Z')
(2395, 2660, 2021630370L, '?ContextSensitiveHelp@XOleIPSite@COleClientItem@@UAGJH@Z')
(2396, 2661, 2021478652L, '?ContextSensitiveHelp@XOleIPSite@COleControlSite@@UAGJH@Z')
(2397, 2662, 2021478652L, '?ContextSensitiveHelp@XRichEditOleCallback@CRichEditView@@UAGJH@Z')
(2398, 2663, 2019925302L, '?ContextToSize@CMFCColorBar@@QAEXHH@Z')
(2399, 2664, 2021486047L, '?ContinueModal@CPropertySheet@@UAEHXZ')
(2400, 2665, 2021846657L, '?ContinueModal@CWnd@@UAEHXZ')
(2401, 2666, 2020148388L, '?ControlBarCleanUp@@YAXXZ')
(2402, 2667, 2020234951L, '?ControlBarToTabbedDocument@CMDIFrameWndEx@@UAEPAVCMDIChildWndEx@@PAVCDockablePane@@@Z')
(2403, 2668, 2021282427L, '?ControlInfoChanged@COleControl@@QAEXXZ')
(2404, 2669, 2021646193L, '?ConvertObject@XOleUIObjInfo@COlePropertiesDialog@@UAGJKABU_GUID@@@Z')
(2405, 2670, 2021632944L, '?ConvertTo@COleClientItem@@UAEHABU_GUID@@@Z')
(2406, 2671, 2021815436L, '?ConvertTo@CRichEditCntrItem@@UAEHABU_GUID@@@Z')
(2407, 2672, 2019876944L, '?ConvertToTabbedDocument@CBaseTabbedPane@@UAEXH@Z')
(2408, 2673, 2020025922L, '?ConvertToTabbedDocument@CDockablePane@@UAEXH@Z')
(2409, 2674, 2020268036L, '?ConvertToTabbedDocument@CMultiPaneFrameWnd@@UAEXXZ')
(2410, 2675, 2019845999L, '?ConvertToTabbedDocument@CPane@@UAEXH@Z')
(2411, 2676, 2020349452L, '?ConvertToTabbedDocument@CPaneFrameWnd@@UAEXXZ')
(2412, 2677, 2021239283L, '?Copy@CByteArray@@QAEXABV1@@Z')
(2413, 2678, 2021243370L, '?Copy@CDWordArray@@QAEXABV1@@Z')
(2414, 2679, 2021243370L, '?Copy@CObArray@@QAEXABV1@@Z')
(2415, 2680, 2021743713L, '?Copy@COleSafeArray@@QAEXPAPAUtagSAFEARRAY@@@Z')
(2416, 2681, 2020330315L, '?Copy@CPaneContainer@@UAEPAV1@PAV1@@Z')
(2417, 2682, 2021243370L, '?Copy@CPtrArray@@QAEXABV1@@Z')
(2418, 2683, 2021242255L, '?Copy@CStringArray@@QAEXABV1@@Z')
(2419, 2684, 2021243370L, '?Copy@CUIntArray@@QAEXABV1@@Z')
(2420, 2685, 2021243875L, '?Copy@CWordArray@@QAEXABV1@@Z')
(2421, 2686, 2020288431L, '?CopyButtonsList@CMFCOutlookBarPane@@IAEXABVCObList@@AAV2@@Z')
(2422, 2687, 2021952338L, '?CopyChars@?$CSimpleStringT@_W$00@ATL@@SAXPA_WPB_WH@Z')
(2423, 2688, 2021947007L, '?CopyChars@?$CSimpleStringT@D$00@ATL@@SAXPADPBDH@Z')
(2424, 2689, 2021952371L, '?CopyCharsOverlapped@?$CSimpleStringT@_W$00@ATL@@SAXPA_WPB_WH@Z')
(2425, 2690, 2021947024L, '?CopyCharsOverlapped@?$CSimpleStringT@D$00@ATL@@SAXPADPBDH@Z')
(2426, 2691, 2021596733L, '?CopyColumnID@CDataSourceControl@@QAEHPAUtagDBCOLUMNID@@PBU2@@Z')
(2427, 2692, 2019942452L, '?CopyFrom@CMFCColorMenuButton@@MAEXABVCMFCToolBarButton@@@Z')
(2428, 2693, 2019976536L, '?CopyFrom@CMFCCustomizeButton@@UAEXABVCMFCToolBarButton@@@Z')
(2429, 2694, 2019977292L, '?CopyFrom@CMFCCustomizeMenuButton@@MAEXABVCMFCToolBarButton@@@Z')
(2430, 2695, 2020105288L, '?CopyFrom@CMFCDropDownToolbarButton@@UAEXABVCMFCToolBarButton@@@Z')
(2431, 2696, 2019865909L, '?CopyFrom@CMFCRibbonBaseElement@@UAEXABV1@@Z')
(2432, 2697, 2020513631L, '?CopyFrom@CMFCRibbonButton@@MAEXABVCMFCRibbonBaseElement@@@Z')
(2433, 2698, 2020523775L, '?CopyFrom@CMFCRibbonButtonsGroup@@MAEXABVCMFCRibbonBaseElement@@@Z')
(2434, 2699, 2020533912L, '?CopyFrom@CMFCRibbonCategory@@UAEXAAV1@@Z')
(2435, 2700, 2020554269L, '?CopyFrom@CMFCRibbonColorButton@@MAEXABVCMFCRibbonBaseElement@@@Z')
(2436, 2701, 2020559231L, '?CopyFrom@CMFCRibbonComboBox@@MAEXABVCMFCRibbonBaseElement@@@Z')
(2437, 2702, 2020646405L, '?CopyFrom@CMFCRibbonDefaultPanelButton@@UAEXABVCMFCRibbonBaseElement@@@Z')
(2438, 2703, 2020575975L, '?CopyFrom@CMFCRibbonEdit@@UAEXABVCMFCRibbonBaseElement@@@Z')
(2439, 2704, 2020561120L, '?CopyFrom@CMFCRibbonFontComboBox@@MAEXABVCMFCRibbonBaseElement@@@Z')
(2440, 2705, 2020642055L, '?CopyFrom@CMFCRibbonGallery@@MAEXABVCMFCRibbonBaseElement@@@Z')
(2441, 2706, 2020635543L, '?CopyFrom@CMFCRibbonGalleryIcon@@MAEXABVCMFCRibbonBaseElement@@@Z')
(2442, 2707, 2020645881L, '?CopyFrom@CMFCRibbonGalleryMenuButton@@UAEXABVCMFCToolBarButton@@@Z')
(2443, 2708, 2020626979L, '?CopyFrom@CMFCRibbonLinkCtrl@@UAEXABVCMFCRibbonBaseElement@@@Z')
(2444, 2709, 2020630771L, '?CopyFrom@CMFCRibbonMainPanel@@MAEXAAVCMFCRibbonPanel@@@Z')
(2445, 2710, 2020648026L, '?CopyFrom@CMFCRibbonPanel@@MAEXAAV1@@Z')
(2446, 2711, 2020684175L, '?CopyFrom@CMFCRibbonProgressBar@@MAEXABVCMFCRibbonBaseElement@@@Z')
(2447, 2712, 2020685032L, '?CopyFrom@CMFCRibbonQuickAccessToolBarDefaultState@@QAEXABV1@@Z')
(2448, 2713, 2019863939L, '?CopyFrom@CMFCRibbonSeparator@@MAEXABVCMFCRibbonBaseElement@@@Z')
(2449, 2714, 2020689700L, '?CopyFrom@CMFCRibbonSlider@@MAEXABVCMFCRibbonBaseElement@@@Z')
(2450, 2715, 2020702160L, '?CopyFrom@CMFCRibbonStatusBarPane@@MAEXABVCMFCRibbonBaseElement@@@Z')
(2451, 2717, 2020705475L, '?CopyFrom@CMFCRibbonUndoButton@@MAEXABVCMFCRibbonBaseElement@@@Z')
(2452, 2718, 2020868678L, '?CopyFrom@CMFCToolBarButton@@UAEXABV1@@Z')
(2453, 2719, 2020885250L, '?CopyFrom@CMFCToolBarComboBoxButton@@UAEXABVCMFCToolBarButton@@@Z')
(2454, 2720, 2020897093L, '?CopyFrom@CMFCToolBarDateTimeCtrl@@UAEXABVCMFCToolBarButton@@@Z')
(2455, 2721, 2020901500L, '?CopyFrom@CMFCToolBarEditBoxButton@@UAEXABVCMFCToolBarButton@@@Z')
(2456, 2722, 2020909329L, '?CopyFrom@CMFCToolBarFontComboBox@@MAEXABVCMFCToolBarButton@@@Z')
(2457, 2723, 2020941811L, '?CopyFrom@CMFCToolBarMenuButton@@UAEXABVCMFCToolBarButton@@@Z')
(2458, 2724, 2020952432L, '?CopyFrom@CMFCToolBarMenuButtonsButton@@UAEXABVCMFCToolBarButton@@@Z')
(2459, 2725, 2020980377L, '?CopyFrom@CMFCToolBarSpinEditBoxButton@@MAEXABVCMFCToolBarButton@@@Z')
(2460, 2726, 2020981109L, '?CopyFrom@CMFCToolBarSystemMenuButton@@UAEXABVCMFCToolBarButton@@@Z')
(2461, 2727, 2020526654L, '?CopyFrom@CRibbonCategoryScroll@@EAEXABVCMFCRibbonBaseElement@@@Z')
(2462, 2728, 2020991864L, '?CopyIconToClipboard@CUserTool@@QAEHXZ')
(2463, 2729, 2020927626L, '?CopyImageToClipboard@CMFCToolBarImages@@QAEHH@Z')
(2464, 2730, 2020717449L, '?CopyItem@CShellManager@@QAEPAU_ITEMIDLIST@@PBU2@@Z')
(2465, 2731, 2020177534L, '?CopyKeyMap@CMFCKeyMapDialog@@MAEXXZ')
(2466, 2732, 2019958171L, '?CopyOriginalMenuItemsFromMenu@CContextMenuManager@@IAEXIAAVCMFCPopupMenuBar@@@Z')
(2467, 2733, 2019957972L, '?CopyOriginalMenuItemsToMenu@CContextMenuManager@@IAEXIAAVCMFCPopupMenuBar@@@Z')
(2468, 2734, 2019860801L, '?CopyState@CBasePane@@UAEXPAV1@@Z')
(2469, 2735, 2020025618L, '?CopyState@CDockablePane@@UAEXPAV1@@Z')
(2470, 2736, 2020316503L, '?CopyState@CPane@@UAEXPAV1@@Z')
(2471, 2737, 2020931312L, '?CopyTemp@CMFCToolBarImages@@IAEXAAV1@@Z')
(2472, 2738, 2021464928L, '?CopyTo@CArchiveStream@@UAGJPAUIStream@@T_ULARGE_INTEGER@@PAT3@2@Z')
(2473, 2739, 2020928098L, '?CopyTo@CMFCToolBarImages@@QAEHAAV1@@Z')
(2474, 2740, 2020050816L, '?CopyTo@CSmartDockingInfo@@QAEXAAV1@@Z')
(2475, 2741, 2021632011L, '?CopyToClipboard@COleClientItem@@QAEXH@Z')
(2476, 2742, 2021728639L, '?CopyToClipboard@COleServerItem@@QAEXH@Z')
(2477, 2743, 2021386072L, '?CopyValue@CDaoFieldExchange@@SGXPAX0K@Z')
(2478, 2744, 2021860838L, '?Create@CAnimateCtrl@@UAEHKABUtagRECT@@PAVCWnd@@I@Z')
(2479, 2745, 2021747255L, '?Create@CAsyncSocket@@QAEHIHJPB_W@Z')
(2480, 2746, 2021852354L, '?Create@CButton@@UAEHPB_WKABUtagRECT@@PAVCWnd@@I@Z')
(2481, 2747, 2021863927L, '?Create@CCheckListBox@@UAEHKABUtagRECT@@PAVCWnd@@I@Z')
(2482, 2748, 2021853307L, '?Create@CComboBox@@UAEHKABUtagRECT@@PAVCWnd@@I@Z')
(2483, 2749, 2021877533L, '?Create@CComboBoxEx@@UAEHKABUtagRECT@@PAVCWnd@@I@Z')
(2484, 2750, 2021946118L, '?Create@CControlFrameWnd@@UAEHPB_W@Z')
(2485, 2751, 2021352913L, '?Create@CDaoDatabase@@UAEXPB_W0H@Z')
(2486, 2752, 2021364196L, '?Create@CDaoQueryDef@@UAEXPB_W0@Z')
(2487, 2753, 2021359477L, '?Create@CDaoTableDef@@UAEXPB_WJ00@Z')
(2488, 2754, 2021347591L, '?Create@CDaoWorkspace@@UAEXPB_W00@Z')
(2489, 2755, 2021871709L, '?Create@CDateTimeCtrl@@UAEHKABUtagRECT@@PAVCWnd@@I@Z')
(2490, 2756, 2021442843L, '?Create@CDialog@@UAEHPB_WPAVCWnd@@@Z')
(2491, 2757, 2021251502L, '?Create@CDialogBar@@UAEHPAVCWnd@@PB_WII@Z')
(2492, 2758, 2020005706L, '?Create@CDockablePane@@UAEHPB_WPAVCWnd@@ABUtagRECT@@HIKKKPAUCCreateContext@@@Z')
(2493, 2759, 2020005754L, '?Create@CDockablePane@@UAEHPB_WPAVCWnd@@VCSize@@HIKKK@Z')
(2494, 2760, 2021252397L, '?Create@CDockBar@@UAEHPAVCWnd@@KI@Z')
(2495, 2761, 2020028074L, '?Create@CDockingManager@@QAEHPAVCFrameWnd@@@Z')
(2496, 2762, 2020066903L, '?Create@CDockSite@@UAEHKABUtagRECT@@PAVCWnd@@KPAUCCreateContext@@@Z')
(2497, 2763, 2021853572L, '?Create@CEdit@@QAEHKABUtagRECT@@PAVCWnd@@I@Z')
(2498, 2764, 2021462564L, '?Create@CFindReplaceDialog@@UAEHHPB_W0KPAVCWnd@@@Z')
(2499, 2765, 2021775471L, '?Create@CFormView@@MAEHPB_W0KABUtagRECT@@PAVCWnd@@IPAUCCreateContext@@@Z')
(2500, 2766, 2021882833L, '?Create@CFrameWnd@@UAEHPB_W0KABUtagRECT@@PAVCWnd@@0KPAUCCreateContext@@@Z')
(2501, 2767, 2021859627L, '?Create@CHeaderCtrl@@UAEHKABUtagRECT@@PAVCWnd@@I@Z')
(2502, 2768, 2021859777L, '?Create@CHotKeyCtrl@@UAEHKABUtagRECT@@PAVCWnd@@I@Z')
(2503, 2769, 2021784025L, '?Create@CHtmlEditCtrl@@UAEHPB_WKABUtagRECT@@PAVCWnd@@HPAUCCreateContext@@@Z')
(2504, 2770, 2021784464L, '?Create@CHtmlEditView@@UAEHPB_W0KABUtagRECT@@PAVCWnd@@IPAUCCreateContext@@@Z')
(2505, 2771, 2021778278L, '?Create@CHtmlView@@UAEHPB_W0KABUtagRECT@@PAVCWnd@@IPAUCCreateContext@@@Z')
(2506, 2772, 2021861631L, '?Create@CImageList@@QAEHAAV1@H0HHH@Z')
(2507, 2773, 2021861505L, '?Create@CImageList@@QAEHHHIHH@Z')
(2508, 2774, 2021861564L, '?Create@CImageList@@QAEHIHHK@Z')
(2509, 2775, 2021879445L, '?Create@CImageList@@QAEHPAV1@@Z')
(2510, 2776, 2021861564L, '?Create@CImageList@@QAEHPB_WHHK@Z')
(2511, 2777, 2021877402L, '?Create@CIPAddressCtrl@@UAEHKABUtagRECT@@PAVCWnd@@I@Z')
(2512, 2778, 2021878757L, '?Create@CLinkCtrl@@UAEHKABUtagRECT@@PAVCWnd@@I@Z')
(2513, 2779, 2021878822L, '?Create@CLinkCtrl@@UAEHPB_WKABUtagRECT@@PAVCWnd@@I@Z')
(2514, 2780, 2021852914L, '?Create@CListBox@@UAEHKABUtagRECT@@PAVCWnd@@I@Z')
(2515, 2781, 2021856150L, '?Create@CListCtrl@@QAEHKABUtagRECT@@PAVCWnd@@I@Z')
(2516, 2782, 2021911458L, '?Create@CMDIChildWnd@@UAEHPB_W0KABUtagRECT@@PAVCMDIFrameWnd@@PAUCCreateContext@@@Z')
(2517, 2783, 2019849250L, '?Create@CMFCAutoHideBar@@UAEHPB_WKABUtagRECT@@PAVCWnd@@IKPAUCCreateContext@@@Z')
(2518, 2784, 2019850845L, '?Create@CMFCAutoHideButton@@UAEHPAVCMFCAutoHideBar@@PAVCDockablePane@@K@Z')
(2519, 2785, 2019908280L, '?Create@CMFCCaptionBar@@QAEHKPAVCWnd@@IHH@Z')
(2520, 2786, 2019928164L, '?Create@CMFCColorBar@@UAEHPAVCWnd@@KIPAVCPalette@@HHH@Z')
(2521, 2787, 2019961772L, '?Create@CMFCControlRenderer@@UAEHABVCMFCControlRendererInfo@@H@Z')
(2522, 2788, 2019994842L, '?Create@CMFCDesktopAlertWnd@@UAEHPAVCWnd@@AAVCMFCDesktopAlertWndInfo@@PAUHMENU__@@VCPoint@@@Z')
(2523, 2789, 2019994752L, '?Create@CMFCDesktopAlertWnd@@UAEHPAVCWnd@@IPAUHMENU__@@VCPoint@@PAUCRuntimeClass@@@Z')
(2524, 2790, 2020102815L, '?Create@CMFCDropDownFrame@@UAEHPAVCWnd@@HHPAVCMFCDropDownToolBar@@@Z')
(2525, 2791, 2020244986L, '?Create@CMFCMenuBar@@UAEHPAVCWnd@@KI@Z')
(2526, 2792, 2020277672L, '?Create@CMFCOutlookBar@@UAEHPB_WPAVCWnd@@ABUtagRECT@@IKKPAUCCreateContext@@@Z')
(2527, 2793, 2020280792L, '?Create@CMFCOutlookBarPane@@UAEHPAVCWnd@@KIK@Z')
(2528, 2794, 2020293751L, '?Create@CMFCOutlookBarTabCtrl@@UAEHABVCRect@@PAVCWnd@@I@Z')
(2529, 2795, 2020373815L, '?Create@CMFCPopupMenu@@UAEHPAVCWnd@@HHPAUHMENU__@@HH@Z')
(2530, 2796, 2020436245L, '?Create@CMFCPropertyGridCtrl@@UAEHKABUtagRECT@@PAVCWnd@@I@Z')
(2531, 2797, 2020447866L, '?Create@CMFCPropertyGridToolTipCtrl@@UAEHPAVCWnd@@@Z')
(2532, 2798, 2020461924L, '?Create@CMFCReBar@@QAEHPAVCWnd@@KKI@Z')
(2533, 2799, 2020470763L, '?Create@CMFCRibbonBar@@QAEHPAVCWnd@@KI@Z')
(2534, 2800, 2020693076L, '?Create@CMFCRibbonStatusBar@@QAEHPAVCWnd@@KI@Z')
(2535, 2801, 2021287521L, '?Create@CMFCShadowRenderer@@MAEHABVCMFCControlRendererInfo@@H@Z')
(2536, 2802, 2019965788L, '?Create@CMFCShadowRenderer@@UAEHHKHH@Z')
(2537, 2803, 2020371150L, '?Create@CMFCShadowWnd@@UAEHXZ')
(2538, 2804, 2020742306L, '?Create@CMFCStatusBar@@QAEHPAVCWnd@@KI@Z')
(2539, 2805, 2020752117L, '?Create@CMFCTabCtrl@@QAEHW4Style@1@ABUtagRECT@@PAVCWnd@@IW4Location@CMFCBaseTabCtrl@@H@Z')
(2540, 2806, 2020823616L, '?Create@CMFCToolBar@@UAEHPAVCWnd@@KI@Z')
(2541, 2807, 2020958679L, '?Create@CMFCToolBarsCustomizeDialog@@UAEHXZ')
(2542, 2808, 2021257571L, '?Create@CMiniDockFrameWnd@@UAEHPAVCWnd@@K@Z')
(2543, 2809, 2021917582L, '?Create@CMiniFrameWnd@@UAEHPB_W0KABUtagRECT@@PAVCWnd@@I@Z')
(2544, 2810, 2021872912L, '?Create@CMonthCalCtrl@@UAEHKABUtagPOINT@@PAVCWnd@@I@Z')
(2545, 2811, 2021872856L, '?Create@CMonthCalCtrl@@UAEHKABUtagRECT@@PAVCWnd@@I@Z')
(2546, 2812, 2021879013L, '?Create@CNetAddressCtrl@@UAEHKABUtagRECT@@PAVCWnd@@I@Z')
(2547, 2813, 2021614790L, '?Create@COleResizeBar@@UAEHPAVCWnd@@KI@Z')
(2548, 2814, 2021743353L, '?Create@COleSafeArray@@QAEXGKPAK@Z')
(2549, 2815, 2021743491L, '?Create@COleSafeArray@@QAEXGKPAUtagSAFEARRAYBOUND@@@Z')
(2550, 2816, 2021878692L, '?Create@CPagerCtrl@@UAEHKABUtagRECT@@PAVCWnd@@I@Z')
(2551, 2817, 2020305335L, '?Create@CPane@@UAEHPB_WKABUtagRECT@@PAVCWnd@@IKPAUCCreateContext@@@Z')
(2552, 2818, 2020331238L, '?Create@CPaneContainerManager@@UAEHPAVCWnd@@PAVCPaneDivider@@PAUCRuntimeClass@@@Z')
(2553, 2819, 2020340464L, '?Create@CPaneDialog@@QAEHPB_WPAVCWnd@@H0IIKK@Z')
(2554, 2820, 2020340421L, '?Create@CPaneDialog@@QAEHPB_WPAVCWnd@@HIII@Z')
(2555, 2821, 2020341699L, '?Create@CPaneDivider@@UAEHKABUtagRECT@@PAVCWnd@@IPAUCCreateContext@@@Z')
(2556, 2822, 2020347736L, '?Create@CPaneFrameWnd@@UAEHPB_WKABUtagRECT@@PAVCWnd@@PAUCCreateContext@@@Z')
(2557, 2823, 2021746868L, '?Create@CPlex@@SGPAU1@AAPAU1@II@Z')
(2558, 2824, 2021859517L, '?Create@CProgressCtrl@@UAEHKABUtagRECT@@PAVCWnd@@I@Z')
(2559, 2825, 2021486647L, '?Create@CPropertySheet@@UAEHPAVCWnd@@KK@Z')
(2560, 2826, 2021271431L, '?Create@CReBar@@UAEHPAVCWnd@@KKI@Z')
(2561, 2827, 2021877829L, '?Create@CReBarCtrl@@QAEHKABUtagRECT@@PAVCWnd@@I@Z')
(2562, 2828, 2021337056L, '?Create@CReflectorWnd@@QAEHABVCRect@@PAUHWND__@@@Z')
(2563, 2829, 2021870268L, '?Create@CRichEditCtrl@@QAEHKABUtagRECT@@PAVCWnd@@I@Z')
(2564, 2830, 2019938985L, '?Create@CScreenWnd@@UAEHPAVCMFCColorDialog@@@Z')
(2565, 2831, 2021853666L, '?Create@CScrollBar@@UAEHKABUtagRECT@@PAVCWnd@@I@Z')
(2566, 2832, 2020709722L, '?Create@CSettingsStoreSP@@QAEAAVCSettingsStore@@HH@Z')
(2567, 2833, 2021859104L, '?Create@CSliderCtrl@@UAEHKABUtagRECT@@PAVCWnd@@I@Z')
(2568, 2834, 2020727091L, '?Create@CSmartDockingGroupGuide@@MAEXW4SDMarkerPlace@CSmartDockingStandaloneGuide@@PAVCSmartDockingGroupGuidesManager@@@Z')
(2569, 2835, 2021621222L, '?Create@CSmartDockingGroupGuide@@UAEXW4SDMarkerPlace@CSmartDockingStandaloneGuide@@PAVCWnd@@@Z')
(2570, 2836, 2020728530L, '?Create@CSmartDockingGroupGuidesManager@@UAEXPAVCWnd@@@Z')
(2571, 2837, 2020731706L, '?Create@CSmartDockingHighlighterWnd@@QAEXPAVCWnd@@@Z')
(2572, 2838, 2020733101L, '?Create@CSmartDockingManager@@QAEXPAVCWnd@@PAUCRuntimeClass@@1@Z')
(2573, 2839, 2020724264L, '?Create@CSmartDockingStandaloneGuide@@UAEXW4SDMarkerPlace@1@PAVCWnd@@@Z')
(2574, 2840, 2020730446L, '?Create@CSmartDockingStandaloneGuideWnd@@QAEHPAUtagRECT@@PAUHBITMAP__@@PAUHRGN__@@PAVCWnd@@HH@Z')
(2575, 2841, 2021858946L, '?Create@CSpinButtonCtrl@@UAEHKABUtagRECT@@PAVCWnd@@I@Z')
(2576, 2842, 2021852509L, '?Create@CSplitButton@@UAEHPB_WKABUtagRECT@@PAVCWnd@@I@Z')
(2577, 2843, 2021922381L, '?Create@CSplitterWnd@@UAEHPAVCWnd@@HHUtagSIZE@@PAUCCreateContext@@KI@Z')
(2578, 2844, 2021852219L, '?Create@CStatic@@UAEHPB_WKABUtagRECT@@PAVCWnd@@I@Z')
(2579, 2845, 2021258561L, '?Create@CStatusBar@@UAEHPAVCWnd@@KI@Z')
(2580, 2846, 2021855542L, '?Create@CStatusBarCtrl@@QAEHKABUtagRECT@@PAVCWnd@@I@Z')
(2581, 2847, 2021860417L, '?Create@CTabCtrl@@UAEHKABUtagRECT@@PAVCWnd@@I@Z')
(2582, 2848, 2021262656L, '?Create@CToolBar@@UAEHPAVCWnd@@KI@Z')
(2583, 2849, 2021854827L, '?Create@CToolBarCtrl@@QAEHKABUtagRECT@@PAVCWnd@@I@Z')
(2584, 2850, 2021758270L, '?Create@CToolTipCtrl@@UAEHPAVCWnd@@K@Z')
(2585, 2851, 2021857515L, '?Create@CTreeCtrl@@QAEHKABUtagRECT@@PAVCWnd@@I@Z')
(2586, 2852, 2021828657L, '?Create@CWnd@@UAEHPB_W0KABUtagRECT@@PAV1@IPAUCCreateContext@@@Z')
(2587, 2853, 2021843156L, '?CreateAccessibleProxy@CWnd@@UAEJIJPAJ@Z')
(2588, 2854, 2020739480L, '?CreateActivationContext@AFX_MODULE_STATE@@QAEXXZ')
(2589, 2855, 2021156964L, '?CreateAutoHideButtonRegion@CMFCVisualManagerVS2005@@IAEHVCRect@@KAAPAUtagPOINT@@@Z')
(2590, 2856, 2020790482L, '?CreateBindContext@CMonikerFile@@IAEPAUIBindCtx@@PAVCFileException@@@Z')
(2591, 2857, 2021699962L, '?CreateBindHost@CMonikerFile@@KAPAUIBindHost@@XZ')
(2592, 2858, 2021614062L, '?CreateBindStatusCallback@CAsyncMonikerFile@@MAEPAUIUnknown@@PAU2@@Z')
(2593, 2859, 2020077473L, '?CreateBitmap_32@CDrawingManager@@SGPAUHBITMAP__@@ABVCSize@@PAPAX@Z')
(2594, 2860, 2020428941L, '?CreateBoldFont@CMFCPropertyGridCtrl@@IAEXXZ')
(2595, 2861, 2021910030L, '?CreateClient@CMDIFrameWnd@@UAEHPAUtagCREATESTRUCTW@@PAVCMenu@@@Z')
(2596, 2862, 2021814073L, '?CreateClientItem@CRichEditDoc@@UBEPAVCRichEditCntrItem@@PAU_reobject@@@Z')
(2597, 2863, 2021618998L, '?CreateCloneFrom@COleClientItem@@QAEHPBV1@@Z')
(2598, 2864, 2020419719L, '?CreateCombo@CMFCPropertyGridProperty@@MAEPAVCComboBox@@PAVCWnd@@VCRect@@@Z')
(2599, 2865, 2020892254L, '?CreateCombo@CMFCToolBarComboBoxButton@@UAEPAVCComboBox@@PAVCWnd@@ABVCRect@@@Z')
(2600, 2866, 2020907362L, '?CreateCombo@CMFCToolBarFontComboBox@@MAEPAVCComboBox@@PAVCWnd@@ABVCRect@@@Z')
(2601, 2867, 2020909222L, '?CreateCombo@CMFCToolBarFontSizeComboBox@@MAEPAVCComboBox@@PAVCWnd@@ABVCRect@@@Z')
(2602, 2868, 2021922599L, '?CreateCommon@CSplitterWnd@@IAEHPAVCWnd@@UtagSIZE@@KI@Z')
(2603, 2869, 2021634813L, '?CreateConnectionArray@CConnectionPoint@@QAEXXZ')
(2604, 2870, 2021576131L, '?CreateContainer@COccManager@@UAEPAVCOleControlContainer@@PAVCWnd@@@Z')
(2605, 2871, 2019928249L, '?CreateControl@CMFCColorBar@@UAEHPAVCWnd@@ABVCRect@@IHPAVCPalette@@@Z')
(2606, 2872, 2021570711L, '?CreateControl@COleControlContainer@@QAEHPAVCWnd@@ABU_GUID@@PB_WKABUtagRECT@@IPAVCFile@@HPA_WPAPAVCOleControlSite@@@Z')
(2607, 2873, 2021571236L, '?CreateControl@COleControlContainer@@QAEHPAVCWnd@@ABU_GUID@@PB_WKPBUtagPOINT@@PBUtagSIZE@@IPAVCFile@@HPA_WPAPAVCOleControlSite@@@Z')
(2608, 2874, 2021570863L, '?CreateControl@COleControlContainer@@QAEHPAVCWnd@@ABVCControlCreationInfo@@KPBUtagPOINT@@PBUtagSIZE@@I@Z')
(2609, 2875, 2021584422L, '?CreateControl@COleControlSite@@QAEJPAVCWnd@@ABVCControlCreationInfo@@KPBUtagPOINT@@PBUtagSIZE@@I@Z')
(2610, 2876, 2021584158L, '?CreateControl@COleControlSite@@UAEJPAVCWnd@@ABU_GUID@@PB_WKABUtagRECT@@IPAVCFile@@HPA_W@Z')
(2611, 2877, 2021584304L, '?CreateControl@COleControlSite@@UAEJPAVCWnd@@ABU_GUID@@PB_WKPBUtagPOINT@@PBUtagSIZE@@IPAVCFile@@HPA_W@Z')
(2612, 2878, 2021569583L, '?CreateControl@CWnd@@QAEHABU_GUID@@PB_WKABUtagRECT@@PAV1@IPAVCFile@@HPA_W@Z')
(2613, 2879, 2021569726L, '?CreateControl@CWnd@@QAEHABU_GUID@@PB_WKPBUtagPOINT@@PBUtagSIZE@@PAV1@IPAVCFile@@HPA_W@Z')
(2614, 2880, 2021569808L, '?CreateControl@CWnd@@QAEHABVCControlCreationInfo@@KPBUtagPOINT@@PBUtagSIZE@@PAV1@I@Z')
(2615, 2881, 2021569465L, '?CreateControl@CWnd@@QAEHPB_W0KABUtagRECT@@PAV1@IPAVCFile@@HPA_W@Z')
(2616, 2882, 2021570912L, '?CreateControlCommon@COleControlContainer@@QAEHPAVCWnd@@ABU_GUID@@ABVCControlCreationInfo@@PB_WKPBUtagPOINT@@PBUtagSIZE@@IPAVCFile@@HPA_WPAPAVCOleControlSite@@@Z')
(2617, 2883, 2021584473L, '?CreateControlCommon@COleControlSite@@MAEJPAVCWnd@@ABU_GUID@@ABVCControlCreationInfo@@PB_WKPBUtagPOINT@@PBUtagSIZE@@IPAVCFile@@HPA_W@Z')
(2618, 2884, 2021848214L, '?CreateControlContainer@CWnd@@MAEHPAPAVCOleControlContainer@@@Z')
(2619, 2885, 2021467849L, '?CreateControlSite@CDHtmlDialog@@UAEHPAVCOleControlContainer@@PAPAVCOleControlSite@@IABU_GUID@@@Z')
(2620, 2886, 2021778212L, '?CreateControlSite@CHtmlView@@UAEHPAVCOleControlContainer@@PAPAVCOleControlSite@@IABU_GUID@@@Z')
(2621, 2887, 2021848246L, '?CreateControlSite@CWnd@@MAEHPAVCOleControlContainer@@PAPAVCOleControlSite@@IABU_GUID@@@Z')
(2622, 2888, 2021277594L, '?CreateControlWindow@COleControl@@MAEHPAUHWND__@@ABVCRect@@PBUtagRECT@@@Z')
(2623, 2889, 2020252697L, '?CreateCopy@CMenuImages@@KGXAAVCMFCToolBarImages@@K@Z')
(2624, 2890, 2020278243L, '?CreateCustomPage@CMFCOutlookBar@@QAEPAVCMFCOutlookBarPane@@PB_WHKH@Z')
(2625, 2891, 2020899214L, '?CreateDateTimeCtrl@CMFCToolBarDateTimeCtrl@@MAEPAVCMFCToolBarDateTimeCtrlImpl@@PAVCWnd@@ABVCRect@@@Z')
(2626, 2892, 2020811988L, '?CreateDefaultMiniframe@CMFCTasksPane@@UAEPAVCPaneFrameWnd@@VCRect@@@Z')
(2627, 2893, 2020311723L, '?CreateDefaultMiniframe@CPane@@UAEPAVCPaneFrameWnd@@VCRect@@@Z')
(2628, 2894, 2020016398L, '?CreateDefaultPaneDivider@CDockablePane@@SGPAVCPaneDivider@@KPAVCWnd@@PAUCRuntimeClass@@@Z')
(2629, 2895, 2021902725L, '?CreateDIBPatternBrush@CBrush@@QAEHPAXI@Z')
(2630, 2896, 2021554472L, '?CreateDirectoryW@CFtpConnection@@QAEHPB_W@Z')
(2631, 2897, 2021653577L, '?CreateDispatch@COleDispatchDriver@@QAEHABU_GUID@@PAVCOleException@@@Z')
(2632, 2898, 2021653742L, '?CreateDispatch@COleDispatchDriver@@QAEHPB_WPAVCOleException@@@Z')
(2633, 2899, 2020147693L, '?CreateDitherBitmap@AFX_GLOBAL_DATA@@IAEPAUHBITMAP__@@PAUHDC__@@@Z')
(2634, 2900, 2021443088L, '?CreateDlg@CWnd@@IAEHPB_WPAV1@@Z')
(2635, 2901, 2021577728L, '?CreateDlgControl@COccManager@@IAEHPAVCWnd@@PAUHWND__@@HPAUDLGITEMTEMPLATE@@GPAEKPAPAU3@@Z')
(2636, 2902, 2021577092L, '?CreateDlgControls@COccManager@@UAEHPAVCWnd@@PAXPAU_AFX_OCC_DIALOG_INFO@@@Z')
(2637, 2903, 2021576962L, '?CreateDlgControls@COccManager@@UAEHPAVCWnd@@PB_WPAU_AFX_OCC_DIALOG_INFO@@@Z')
(2638, 2904, 2021443171L, '?CreateDlgIndirect@CWnd@@IAEHPBUDLGTEMPLATE@@PAV1@PAUHINSTANCE__@@@Z')
(2639, 2905, 2019982649L, '?CreateDocumentInfo@CDataRecoveryHandler@@UAEHPAVCDocument@@@Z')
(2640, 2906, 2021287521L, '?CreateDocumentWindow@CMDIFrameWndEx@@UAEPAVCMDIChildWndEx@@PB_WPAVCObject@@@Z')
(2641, 2907, 2021857421L, '?CreateDragImage@CListCtrl@@QAEPAVCImageList@@HPAUtagPOINT@@@Z')
(2642, 2908, 2021858564L, '?CreateDragImage@CTreeCtrl@@QAEPAVCImageList@@PAU_TREEITEM@@@Z')
(2643, 2909, 2020286479L, '?CreateDroppedButton@CMFCOutlookBarPane@@MAEPAVCMFCToolBarButton@@PAVCOleDataObject@@@Z')
(2644, 2910, 2020399675L, '?CreateDroppedButton@CMFCPopupMenuBar@@MAEPAVCMFCToolBarButton@@PAVCOleDataObject@@@Z')
(2645, 2911, 2020851341L, '?CreateDroppedButton@CMFCToolBar@@MAEPAVCMFCToolBarButton@@PAVCOleDataObject@@@Z')
(2646, 2912, 2020576873L, '?CreateEdit@CMFCRibbonEdit@@UAEPAVCMFCRibbonRichEditCtrl@@PAVCWnd@@K@Z')
(2647, 2913, 2020892367L, '?CreateEdit@CMFCToolBarComboBoxButton@@UAEPAVCMFCToolBarComboBoxEdit@@PAVCWnd@@ABVCRect@@K@Z')
(2648, 2914, 2020903579L, '?CreateEdit@CMFCToolBarEditBoxButton@@UAEPAVCEdit@@PAVCWnd@@ABVCRect@@@Z')
(2649, 2915, 2020980062L, '?CreateEdit@CMFCToolBarSpinEditBoxButton@@MAEPAVCEdit@@PAVCWnd@@ABVCRect@@@Z')
(2650, 2916, 2021304187L, '?CreateEmpty@CPictureHolder@@QAEHXZ')
(2651, 2917, 2021859160L, '?CreateEx@CAnimateCtrl@@UAEHKKABUtagRECT@@PAVCWnd@@I@Z')
(2652, 2918, 2019855292L, '?CreateEx@CBasePane@@UAEHKPB_W0KABUtagRECT@@PAVCWnd@@IKPAUCCreateContext@@@Z')
(2653, 2919, 2021859160L, '?CreateEx@CComboBoxEx@@UAEHKKABUtagRECT@@PAVCWnd@@I@Z')
(2654, 2920, 2020005861L, '?CreateEx@CDockablePane@@UAEHKPB_WPAVCWnd@@ABUtagRECT@@HIKKKPAUCCreateContext@@@Z')
(2655, 2921, 2020066939L, '?CreateEx@CDockSite@@UAEHKKABUtagRECT@@PAVCWnd@@KPAUCCreateContext@@@Z')
(2656, 2922, 2021859160L, '?CreateEx@CHeaderCtrl@@UAEHKKABUtagRECT@@PAVCWnd@@I@Z')
(2657, 2923, 2021859160L, '?CreateEx@CHotKeyCtrl@@UAEHKKABUtagRECT@@PAVCWnd@@I@Z')
(2658, 2924, 2021859160L, '?CreateEx@CIPAddressCtrl@@UAEHKKABUtagRECT@@PAVCWnd@@I@Z')
(2659, 2925, 2021878888L, '?CreateEx@CLinkCtrl@@UAEHKKABUtagRECT@@PAVCWnd@@I@Z')
(2660, 2926, 2021878949L, '?CreateEx@CLinkCtrl@@UAEHPB_WKKABUtagRECT@@PAVCWnd@@I@Z')
(2661, 2927, 2021856206L, '?CreateEx@CListCtrl@@QAEHKKABUtagRECT@@PAVCWnd@@I@Z')
(2662, 2928, 2020245021L, '?CreateEx@CMFCMenuBar@@UAEHPAVCWnd@@KKVCRect@@I@Z')
(2663, 2929, 2020470793L, '?CreateEx@CMFCRibbonBar@@QAEHPAVCWnd@@KKI@Z')
(2664, 2930, 2020693106L, '?CreateEx@CMFCRibbonStatusBar@@QAEHPAVCWnd@@KKI@Z')
(2665, 2931, 2020742336L, '?CreateEx@CMFCStatusBar@@QAEHPAVCWnd@@KKI@Z')
(2666, 2932, 2020823683L, '?CreateEx@CMFCToolBar@@UAEHPAVCWnd@@KKVCRect@@I@Z')
(2667, 2933, 2021917621L, '?CreateEx@CMiniFrameWnd@@UAEHKPB_W0KABUtagRECT@@PAVCWnd@@I@Z')
(2668, 2934, 2021859160L, '?CreateEx@CNetAddressCtrl@@UAEHKKABUtagRECT@@PAVCWnd@@I@Z')
(2669, 2935, 2021859160L, '?CreateEx@CPagerCtrl@@UAEHKKABUtagRECT@@PAVCWnd@@I@Z')
(2670, 2936, 2020305377L, '?CreateEx@CPane@@UAEHKPB_WKABUtagRECT@@PAVCWnd@@IKPAUCCreateContext@@@Z')
(2671, 2937, 2020341735L, '?CreateEx@CPaneDivider@@UAEHKKABUtagRECT@@PAVCWnd@@IPAUCCreateContext@@@Z')
(2672, 2938, 2020347772L, '?CreateEx@CPaneFrameWnd@@UAEHKPB_WKABUtagRECT@@PAVCWnd@@PAUCCreateContext@@@Z')
(2673, 2939, 2021859160L, '?CreateEx@CProgressCtrl@@UAEHKKABUtagRECT@@PAVCWnd@@I@Z')
(2674, 2940, 2021877885L, '?CreateEx@CReBarCtrl@@QAEHKKABUtagRECT@@PAVCWnd@@I@Z')
(2675, 2941, 2021870323L, '?CreateEx@CRichEditCtrl@@QAEHKKABUtagRECT@@PAVCWnd@@I@Z')
(2676, 2942, 2021859160L, '?CreateEx@CSliderCtrl@@UAEHKKABUtagRECT@@PAVCWnd@@I@Z')
(2677, 2943, 2021859160L, '?CreateEx@CSpinButtonCtrl@@UAEHKKABUtagRECT@@PAVCWnd@@I@Z')
(2678, 2944, 2021258594L, '?CreateEx@CStatusBar@@UAEHPAVCWnd@@KKI@Z')
(2679, 2945, 2021855598L, '?CreateEx@CStatusBarCtrl@@QAEHKKABUtagRECT@@PAVCWnd@@I@Z')
(2680, 2946, 2021859160L, '?CreateEx@CTabCtrl@@UAEHKKABUtagRECT@@PAVCWnd@@I@Z')
(2681, 2947, 2021262741L, '?CreateEx@CToolBar@@UAEHPAVCWnd@@KKVCRect@@I@Z')
(2682, 2948, 2021854883L, '?CreateEx@CToolBarCtrl@@QAEHKKABUtagRECT@@PAVCWnd@@I@Z')
(2683, 2949, 2021758370L, '?CreateEx@CToolTipCtrl@@UAEHPAVCWnd@@KK@Z')
(2684, 2950, 2021857571L, '?CreateEx@CTreeCtrl@@QAEHKKABUtagRECT@@PAVCWnd@@I@Z')
(2685, 2951, 2021828306L, '?CreateEx@CWnd@@UAEHKPB_W0KABUtagRECT@@PAV1@IPAX@Z')
(2686, 2952, 2021828386L, '?CreateEx@CWnd@@UAEHKPB_W0KHHHHPAUHWND__@@PAUHMENU__@@PAX@Z')
(2687, 2953, 2021361997L, '?CreateField@CDaoTableDef@@QAEXAAUCDaoFieldInfo@@@Z')
(2688, 2954, 2021361809L, '?CreateField@CDaoTableDef@@QAEXPB_WFJJ@Z')
(2689, 2955, 2021893920L, '?CreateFloatingFrame@CFrameWnd@@QAEPAVCMiniDockFrameWnd@@K@Z')
(2690, 2956, 2020804258L, '?CreateFonts@CMFCTasksPane@@IAEXXZ')
(2691, 2957, 2021281018L, '?CreateFrameWindow@COleControl@@MAEPAVCControlFrameWnd@@XZ')
(2692, 2958, 2021304249L, '?CreateFromBitmap@CPictureHolder@@QAEHI@Z')
(2693, 2959, 2021304433L, '?CreateFromBitmap@CPictureHolder@@QAEHPAUHBITMAP__@@PAUHPALETTE__@@H@Z')
(2694, 2960, 2021304342L, '?CreateFromBitmap@CPictureHolder@@QAEHPAVCBitmap@@PAVCPalette@@H@Z')
(2695, 2961, 2021618011L, '?CreateFromClipboard@COleClientItem@@QAEHW4tagOLERENDER@@GPAUtagFORMATETC@@@Z')
(2696, 2962, 2021618248L, '?CreateFromData@COleClientItem@@QAEHPAVCOleDataObject@@W4tagOLERENDER@@GPAUtagFORMATETC@@@Z')
(2697, 2963, 2021618611L, '?CreateFromFile@COleClientItem@@QAEHPB_WABU_GUID@@W4tagOLERENDER@@GPAUtagFORMATETC@@@Z')
(2698, 2964, 2021304599L, '?CreateFromIcon@CPictureHolder@@QAEHI@Z')
(2699, 2965, 2021304652L, '?CreateFromIcon@CPictureHolder@@QAEHPAUHICON__@@H@Z')
(2700, 2966, 2020932567L, '?CreateFromImageList@CMFCToolBarImages@@QAEHABVCImageList@@@Z')
(2701, 2967, 2020237736L, '?CreateFromMenu@CMFCMenuBar@@UAEXPAUHMENU__@@HH@Z')
(2702, 2968, 2020944811L, '?CreateFromMenu@CMFCToolBarMenuButton@@UAEXPAUHMENU__@@@Z')
(2703, 2969, 2020981572L, '?CreateFromMenu@CMFCToolBarSystemMenuButton@@UAEXPAUHMENU__@@@Z')
(2704, 2970, 2021304513L, '?CreateFromMetafile@CPictureHolder@@QAEHPAUHMETAFILE__@@HHH@Z')
(2705, 2971, 2020869149L, '?CreateFromOleData@CMFCToolBarButton@@SGPAV1@PAVCOleDataObject@@@Z')
(2706, 2972, 2019992828L, '?CreateFromParams@CMFCDesktopAlertDialog@@QAEHAAVCMFCDesktopAlertWndInfo@@PAVCMFCDesktopAlertWnd@@@Z')
(2707, 2973, 2021143062L, '?CreateGripperBrush@CMFCVisualManagerOfficeXP@@MAEXXZ')
(2708, 2974, 2019945861L, '?CreateHexagon@CMFCColorPickerCtrl@@IAEXXZ')
(2709, 2975, 2019944897L, '?CreateHexGreyScaleBar@CMFCColorPickerCtrl@@IAEXXZ')
(2710, 2976, 2020640302L, '?CreateIcons@CMFCRibbonGallery@@IAEXXZ')
(2711, 2977, 2021362547L, '?CreateIndex@CDaoTableDef@@QAEXAAUCDaoIndexInfo@@@Z')
(2712, 2978, 2021442960L, '?CreateIndirect@CDialog@@IAEHPAXPAVCWnd@@PAUHINSTANCE__@@@Z')
(2713, 2979, 2021443033L, '?CreateIndirect@CDialog@@IAEHPBUDLGTEMPLATE@@PAVCWnd@@PAXPAUHINSTANCE__@@@Z')
(2714, 2980, 2021442933L, '?CreateIndirect@CDialog@@UAEHPAXPAVCWnd@@@Z')
(2715, 2981, 2021443003L, '?CreateIndirect@CDialog@@UAEHPBUDLGTEMPLATE@@PAVCWnd@@PAX@Z')
(2716, 2982, 2020419208L, '?CreateInPlaceEdit@CMFCPropertyGridProperty@@UAEPAVCWnd@@VCRect@@AAH@Z')
(2717, 2983, 2021718663L, '?CreateInPlaceFrame@COleServerDoc@@MAEPAVCOleIPFrameWnd@@PAVCWnd@@@Z')
(2718, 2984, 2021534194L, '?CreateInstance@AFX_COM@@QAEJABU_GUID@@PAUIUnknown@@0PAPAX@Z')
(2719, 2985, 2021684696L, '?CreateInstance@XClassFactory@COleObjectFactory@@UAGJPAUIUnknown@@ABU_GUID@@PAPAX@Z')
(2720, 2986, 2021685018L, '?CreateInstanceLic@XClassFactory@COleObjectFactory@@UAGJPAUIUnknown@@0ABU_GUID@@PA_WPAPAX@Z')
(2721, 2987, 2021641031L, '?CreateItem@COleInsertDialog@@QAEHPAVCOleClientItem@@@Z')
(2722, 2988, 2021644048L, '?CreateItem@COlePasteSpecialDialog@@QAEHPAVCOleClientItem@@@Z')
(2723, 2989, 2020717174L, '?CreateItem@CShellManager@@QAEPAU_ITEMIDLIST@@I@Z')
(2724, 2990, 2020707774L, '?CreateKey@CSettingsStore@@UAEHPB_W@Z')
(2725, 2991, 2021618090L, '?CreateLinkFromClipboard@COleClientItem@@QAEHW4tagOLERENDER@@GPAUtagFORMATETC@@@Z')
(2726, 2992, 2021618369L, '?CreateLinkFromData@COleClientItem@@QAEHPAVCOleDataObject@@W4tagOLERENDER@@GPAUtagFORMATETC@@@Z')
(2727, 2993, 2021618754L, '?CreateLinkFromFile@COleClientItem@@QAEHPB_WW4tagOLERENDER@@GPAUtagFORMATETC@@@Z')
(2728, 2994, 2021555773L, '?CreateLocator@CGopherConnection@@QAE?AVCGopherLocator@@PB_W0K@Z')
(2729, 2995, 2021555599L, '?CreateLocator@CGopherConnection@@SA?AVCGopherLocator@@PB_W@Z')
(2730, 2996, 2021555640L, '?CreateLocator@CGopherConnection@@SA?AVCGopherLocator@@PB_W00KG@Z')
(2731, 2997, 2020917366L, '?CreateMask@CMFCToolBarImages@@IAEXHHH@Z')
(2732, 2998, 2021712715L, '?CreateMemoryStream@COleStreamFile@@QAEHPAVCFileException@@@Z')
(2733, 2999, 2020817003L, '?CreateMenu@CMFCTasksPane@@QBEPAUHMENU__@@XZ')
(2734, 3000, 2020945148L, '?CreateMenu@CMFCToolBarMenuButton@@UBEPAUHMENU__@@XZ')
(2735, 3001, 2020981595L, '?CreateMenu@CMFCToolBarSystemMenuButton@@UBEPAUHMENU__@@XZ')
(2736, 3002, 2020815084L, '?CreateNavigationToolbar@CMFCTasksPane@@IAEHXZ')
(2737, 3003, 2021910876L, '?CreateNewChild@CMDIFrameWnd@@QAEPAVCMDIChildWnd@@PAUCRuntimeClass@@IPAUHMENU__@@PAUHACCEL__@@@Z')
(2738, 3004, 2021528638L, '?CreateNewDocument@CDocTemplate@@UAEPAVCDocument@@XZ')
(2739, 3005, 2021528684L, '?CreateNewFrame@CDocTemplate@@UAEPAVCFrameWnd@@PAVCDocument@@PAV2@@Z')
(2740, 3006, 2021618894L, '?CreateNewItem@COleClientItem@@QAEHABU_GUID@@W4tagOLERENDER@@GPAUtagFORMATETC@@@Z')
(2741, 3007, 2021203628L, '?CreateNewItem@CVSListBoxBase@@MAEXXZ')
(2742, 3008, 2020205907L, '?CreateNewTabGroup@CMDIClientAreaWnd@@AAEPAVCMFCTabCtrl@@PAV2@VCRect@@H@Z')
(2743, 3009, 2020984266L, '?CreateNewTool@CMFCToolBarsToolsPropertyPage@@IAEPAVCUserTool@@XZ')
(2744, 3010, 2020993632L, '?CreateNewTool@CUserToolsManager@@QAEPAVCUserTool@@XZ')
(2745, 3011, 2020118937L, '?CreateNewToolBar@CFrameImpl@@IAEPBVCMFCToolBar@@PB_W@Z')
(2746, 3012, 2020233795L, '?CreateNewWindow@CMDIFrameWndEx@@UAEPAVCMDIChildWndEx@@PB_WPAVCObject@@@Z')
(2747, 3013, 2019853366L, '?CreateObject@CAutoHideDockSite@@SGPAVCObject@@XZ')
(2748, 3014, 2021239944L, '?CreateObject@CByteArray@@SGPAVCObject@@XZ')
(2749, 3015, 2021902816L, '?CreateObject@CDC@@SGPAVCObject@@XZ')
(2750, 3016, 2021664287L, '?CreateObject@CDocItem@@SGPAVCObject@@XZ')
(2751, 3017, 2020005222L, '?CreateObject@CDockablePane@@SGPAVCObject@@XZ')
(2752, 3018, 2020026101L, '?CreateObject@CDockablePaneAdapter@@SGPAVCObject@@XZ')
(2753, 3019, 2020066619L, '?CreateObject@CDockSite@@SGPAVCObject@@XZ')
(2754, 3020, 2021516741L, '?CreateObject@CDockState@@SGPAVCObject@@XZ')
(2755, 3021, 2021240624L, '?CreateObject@CDWordArray@@SGPAVCObject@@XZ')
(2756, 3022, 2021774730L, '?CreateObject@CEditView@@SGPAVCObject@@XZ')
(2757, 3023, 2021892807L, '?CreateObject@CFrameWnd@@SGPAVCObject@@XZ')
(2758, 3024, 2020132319L, '?CreateObject@CFrameWndEx@@SGPAVCObject@@XZ')
(2759, 3025, 2021902887L, '?CreateObject@CGdiObject@@SGPAVCObject@@XZ')
(2760, 3026, 2020237178L, '?CreateObject@CHelpComboBoxButton@@SGPAVCObject@@XZ')
(2761, 3027, 2021785744L, '?CreateObject@CHtmlEditView@@SGPAVCObject@@XZ')
(2762, 3028, 2021785691L, '?CreateObject@CHtmlView@@SGPAVCObject@@XZ')
(2763, 3029, 2021862021L, '?CreateObject@CImageList@@SGPAVCObject@@XZ')
(2764, 3030, 2021766293L, '?CreateObject@CListView@@SGPAVCObject@@XZ')
(2765, 3031, 2021565334L, '?CreateObject@CMapStringToOb@@SGPAVCObject@@XZ')
(2766, 3032, 2021567120L, '?CreateObject@CMapStringToString@@SGPAVCObject@@XZ')
(2767, 3033, 2021567684L, '?CreateObject@CMapWordToOb@@SGPAVCObject@@XZ')
(2768, 3034, 2021914568L, '?CreateObject@CMDIChildWnd@@SGPAVCObject@@XZ')
(2769, 3035, 2020215441L, '?CreateObject@CMDIChildWndEx@@SGPAVCObject@@XZ')
(2770, 3036, 2021914504L, '?CreateObject@CMDIFrameWnd@@SGPAVCObject@@XZ')
(2771, 3037, 2020227126L, '?CreateObject@CMDIFrameWndEx@@SGPAVCObject@@XZ')
(2772, 3038, 2021917340L, '?CreateObject@CMenu@@SGPAVCObject@@XZ')
(2773, 3039, 2019846516L, '?CreateObject@CMFCAutoHideBar@@SGPAVCObject@@XZ')
(2774, 3040, 2019850694L, '?CreateObject@CMFCAutoHideButton@@SGPAVCObject@@XZ')
(2775, 3041, 2019896818L, '?CreateObject@CMFCBaseToolBar@@SGPAVCObject@@XZ')
(2776, 3042, 2019897148L, '?CreateObject@CMFCButton@@SGPAVCObject@@XZ')
(2777, 3043, 2019907502L, '?CreateObject@CMFCCaptionBar@@SGPAVCObject@@XZ')
(2778, 3044, 2019921738L, '?CreateObject@CMFCColorBar@@SGPAVCObject@@XZ')
(2779, 3045, 2019939698L, '?CreateObject@CMFCColorMenuButton@@SGPAVCObject@@XZ')
(2780, 3046, 2019961555L, '?CreateObject@CMFCControlRenderer@@SGPAVCObject@@XZ')
(2781, 3047, 2019970064L, '?CreateObject@CMFCCustomColorsPropertyPage@@SGPAVCObject@@XZ')
(2782, 3048, 2019972588L, '?CreateObject@CMFCCustomizeButton@@SGPAVCObject@@XZ')
(2783, 3049, 2019976948L, '?CreateObject@CMFCCustomizeMenuButton@@SGPAVCObject@@XZ')
(2784, 3050, 2019990545L, '?CreateObject@CMFCDesktopAlertDialog@@SGPAVCObject@@XZ')
(2785, 3051, 2020102419L, '?CreateObject@CMFCDropDownFrame@@SGPAVCObject@@XZ')
(2786, 3052, 2020101308L, '?CreateObject@CMFCDropDownToolBar@@SGPAVCObject@@XZ')
(2787, 3053, 2020104788L, '?CreateObject@CMFCDropDownToolbarButton@@SGPAVCObject@@XZ')
(2788, 3054, 2020237293L, '?CreateObject@CMFCMenuBar@@SGPAVCObject@@XZ')
(2789, 3055, 2020257385L, '?CreateObject@CMFCMousePropertyPage@@SGPAVCObject@@XZ')
(2790, 3056, 2020276931L, '?CreateObject@CMFCOutlookBar@@SGPAVCObject@@XZ')
(2791, 3057, 2020280358L, '?CreateObject@CMFCOutlookBarPane@@SGPAVCObject@@XZ')
(2792, 3058, 2020288888L, '?CreateObject@CMFCOutlookBarPaneAdapter@@SGPAVCObject@@XZ')
(2793, 3059, 2020289079L, '?CreateObject@CMFCOutlookBarPaneButton@@SGPAVCObject@@XZ')
(2794, 3060, 2020293183L, '?CreateObject@CMFCOutlookBarTabCtrl@@SGPAVCObject@@XZ')
(2795, 3061, 2020372123L, '?CreateObject@CMFCPopupMenu@@SGPAVCObject@@XZ')
(2796, 3062, 2020396060L, '?CreateObject@CMFCPopupMenuBar@@SGPAVCObject@@XZ')
(2797, 3063, 2020449740L, '?CreateObject@CMFCPropertyPage@@SGPAVCObject@@XZ')
(2798, 3064, 2020467810L, '?CreateObject@CMFCRibbonApplicationButton@@SGPAVCObject@@XZ')
(2799, 3065, 2020504597L, '?CreateObject@CMFCRibbonButton@@SGPAVCObject@@XZ')
(2800, 3066, 2020520434L, '?CreateObject@CMFCRibbonButtonsGroup@@SGPAVCObject@@XZ')
(2801, 3067, 2020466998L, '?CreateObject@CMFCRibbonCaptionButton@@SGPAVCObject@@XZ')
(2802, 3068, 2020526904L, '?CreateObject@CMFCRibbonCategory@@SGPAVCObject@@XZ')
(2803, 3069, 2020537441L, '?CreateObject@CMFCRibbonCheckBox@@SGPAVCObject@@XZ')
(2804, 3070, 2020551704L, '?CreateObject@CMFCRibbonColorButton@@SGPAVCObject@@XZ')
(2805, 3071, 2020551636L, '?CreateObject@CMFCRibbonColorMenuButton@@SGPAVCObject@@XZ')
(2806, 3072, 2020557261L, '?CreateObject@CMFCRibbonComboBox@@SGPAVCObject@@XZ')
(2807, 3073, 2020467269L, '?CreateObject@CMFCRibbonContextCaption@@SGPAVCObject@@XZ')
(2808, 3074, 2020569142L, '?CreateObject@CMFCRibbonCustomizePropertyPage@@SGPAVCObject@@XZ')
(2809, 3075, 2020646267L, '?CreateObject@CMFCRibbonDefaultPanelButton@@SGPAVCObject@@XZ')
(2810, 3076, 2020573119L, '?CreateObject@CMFCRibbonEdit@@SGPAVCObject@@XZ')
(2811, 3077, 2020560792L, '?CreateObject@CMFCRibbonFontComboBox@@SGPAVCObject@@XZ')
(2812, 3078, 2020636127L, '?CreateObject@CMFCRibbonGallery@@SGPAVCObject@@XZ')
(2813, 3079, 2020634447L, '?CreateObject@CMFCRibbonGalleryIcon@@SGPAVCObject@@XZ')
(2814, 3080, 2020644941L, '?CreateObject@CMFCRibbonGalleryMenuButton@@SGPAVCObject@@XZ')
(2815, 3081, 2020625025L, '?CreateObject@CMFCRibbonLabel@@SGPAVCObject@@XZ')
(2816, 3083, 2020626279L, '?CreateObject@CMFCRibbonLinkCtrl@@SGPAVCObject@@XZ')
(2817, 3084, 2020628698L, '?CreateObject@CMFCRibbonMainPanel@@SGPAVCObject@@XZ')
(2818, 3085, 2020632225L, '?CreateObject@CMFCRibbonMainPanelButton@@SGPAVCObject@@XZ')
(2819, 3086, 2020632615L, '?CreateObject@CMFCRibbonMiniToolBar@@SGPAVCObject@@XZ')
(2820, 3087, 2020647455L, '?CreateObject@CMFCRibbonPanel@@SGPAVCObject@@XZ')
(2821, 3088, 2020683685L, '?CreateObject@CMFCRibbonProgressBar@@SGPAVCObject@@XZ')
(2822, 3089, 2020686447L, '?CreateObject@CMFCRibbonQuickAccessCustomizeButton@@SGPAVCObject@@XZ')
(2823, 3090, 2020686513L, '?CreateObject@CMFCRibbonQuickAccessToolBar@@SGPAVCObject@@XZ')
(2824, 3091, 2020627264L, '?CreateObject@CMFCRibbonRecentFilesList@@SGPAVCObject@@XZ')
(2825, 3092, 2019863830L, '?CreateObject@CMFCRibbonSeparator@@SGPAVCObject@@XZ')
(2826, 3093, 2020688754L, '?CreateObject@CMFCRibbonSlider@@SGPAVCObject@@XZ')
(2827, 3094, 2020692386L, '?CreateObject@CMFCRibbonStatusBarCustomizeButton@@SGPAVCObject@@XZ')
(2828, 3095, 2020700984L, '?CreateObject@CMFCRibbonStatusBarPane@@SGPAVCObject@@XZ')
(2829, 3096, 2020704155L, '?CreateObject@CMFCRibbonUndoButton@@SGPAVCObject@@XZ')
(2830, 3097, 2019965627L, '?CreateObject@CMFCShadowRenderer@@SGPAVCObject@@XZ')
(2831, 3098, 2020722878L, '?CreateObject@CMFCShowAllButton@@SGPAVCObject@@XZ')
(2832, 3099, 2020737231L, '?CreateObject@CMFCStandardColorsPropertyPage@@SGPAVCObject@@XZ')
(2833, 3100, 2020751242L, '?CreateObject@CMFCTabCtrl@@SGPAVCObject@@XZ')
(2834, 3101, 2020794566L, '?CreateObject@CMFCTasksPane@@SGPAVCObject@@XZ')
(2835, 3102, 2020818893L, '?CreateObject@CMFCTasksPaneFrameWnd@@SGPAVCObject@@XZ')
(2836, 3103, 2020793670L, '?CreateObject@CMFCTasksPaneToolBar@@SGPAVCObject@@XZ')
(2837, 3104, 2020822309L, '?CreateObject@CMFCToolBar@@SGPAVCObject@@XZ')
(2838, 3105, 2020868181L, '?CreateObject@CMFCToolBarButton@@SGPAVCObject@@XZ')
(2839, 3106, 2019920433L, '?CreateObject@CMFCToolBarColorButton@@SGPAVCObject@@XZ')
(2840, 3107, 2020884591L, '?CreateObject@CMFCToolBarComboBoxButton@@SGPAVCObject@@XZ')
(2841, 3108, 2020896531L, '?CreateObject@CMFCToolBarDateTimeCtrl@@SGPAVCObject@@XZ')
(2842, 3109, 2020901113L, '?CreateObject@CMFCToolBarEditBoxButton@@SGPAVCObject@@XZ')
(2843, 3110, 2020905529L, '?CreateObject@CMFCToolBarFontComboBox@@SGPAVCObject@@XZ')
(2844, 3111, 2020907725L, '?CreateObject@CMFCToolBarFontSizeComboBox@@SGPAVCObject@@XZ')
(2845, 3112, 2020940760L, '?CreateObject@CMFCToolBarMenuButton@@SGPAVCObject@@XZ')
(2846, 3113, 2020952167L, '?CreateObject@CMFCToolBarMenuButtonsButton@@SGPAVCObject@@XZ')
(2847, 3114, 2020968332L, '?CreateObject@CMFCToolBarsCommandsPropertyPage@@SGPAVCObject@@XZ')
(2848, 3115, 2020963045L, '?CreateObject@CMFCToolBarsKeyboardPropertyPage@@SGPAVCObject@@XZ')
(2849, 3116, 2020968407L, '?CreateObject@CMFCToolBarsListPropertyPage@@SGPAVCObject@@XZ')
(2850, 3117, 2020973011L, '?CreateObject@CMFCToolBarsMenuPropertyPage@@SGPAVCObject@@XZ')
(2851, 3118, 2020978297L, '?CreateObject@CMFCToolBarsOptionsPropertyPage@@SGPAVCObject@@XZ')
(2852, 3119, 2020979589L, '?CreateObject@CMFCToolBarSpinEditBoxButton@@SGPAVCObject@@XZ')
(2853, 3120, 2020980874L, '?CreateObject@CMFCToolBarSystemMenuButton@@SGPAVCObject@@XZ')
(2854, 3121, 2020984845L, '?CreateObject@CMFCToolTipCtrl@@SGPAVCObject@@XZ')
(2855, 3122, 2020994325L, '?CreateObject@CMFCVisualManager@@SGPAVCObject@@XZ')
(2856, 3123, 2021028465L, '?CreateObject@CMFCVisualManagerOffice2003@@SGPAVCObject@@XZ')
(2857, 3124, 2021054830L, '?CreateObject@CMFCVisualManagerOffice2007@@SGPAVCObject@@XZ')
(2858, 3125, 2021132213L, '?CreateObject@CMFCVisualManagerOfficeXP@@SGPAVCObject@@XZ')
(2859, 3126, 2021154302L, '?CreateObject@CMFCVisualManagerVS2005@@SGPAVCObject@@XZ')
(2860, 3127, 2021166232L, '?CreateObject@CMFCVisualManagerWindows@@SGPAVCObject@@XZ')
(2861, 3128, 2021258371L, '?CreateObject@CMiniDockFrameWnd@@SGPAVCObject@@XZ')
(2862, 3129, 2021918654L, '?CreateObject@CMiniFrameWnd@@SGPAVCObject@@XZ')
(2863, 3130, 2020254620L, '?CreateObject@CMouseManager@@SGPAVCObject@@XZ')
(2864, 3131, 2020259764L, '?CreateObject@CMultiPaneFrameWnd@@SGPAVCObject@@XZ')
(2865, 3132, 2021241379L, '?CreateObject@CObArray@@SGPAVCObject@@XZ')
(2866, 3133, 2021561281L, '?CreateObject@CObList@@SGPAVCObject@@XZ')
(2867, 3134, 2021667537L, '?CreateObject@COleDocIPFrameWnd@@SGPAVCObject@@XZ')
(2868, 3135, 2020269628L, '?CreateObject@COleDocIPFrameWndEx@@SGPAVCObject@@XZ')
(2869, 3136, 2021689325L, '?CreateObject@COleIPFrameWnd@@SGPAVCObject@@XZ')
(2870, 3137, 2020272498L, '?CreateObject@COleIPFrameWndEx@@SGPAVCObject@@XZ')
(2871, 3138, 2020275297L, '?CreateObject@COleServerDocEx@@SGPAVCObject@@XZ')
(2872, 3139, 2020291169L, '?CreateObject@COutlookCustomizeButton@@SGPAVCObject@@XZ')
(2873, 3140, 2020304814L, '?CreateObject@CPane@@SGPAVCObject@@XZ')
(2874, 3141, 2020330969L, '?CreateObject@CPaneContainerManager@@SGPAVCObject@@XZ')
(2875, 3142, 2020340216L, '?CreateObject@CPaneDialog@@SGPAVCObject@@XZ')
(2876, 3143, 2020341215L, '?CreateObject@CPaneDivider@@SGPAVCObject@@XZ')
(2877, 3144, 2020347183L, '?CreateObject@CPaneFrameWnd@@SGPAVCObject@@XZ')
(2878, 3145, 2021799027L, '?CreateObject@CPreviewView@@SGPAVCObject@@XZ')
(2879, 3146, 2020409203L, '?CreateObject@CPreviewViewEx@@SGPAVCObject@@XZ')
(2880, 3147, 2020704090L, '?CreateObject@CRibbonUndoLabel@@SGPAVCObject@@XZ')
(2881, 3148, 2021815791L, '?CreateObject@CRichEditCntrItem@@SGPAVCObject@@XZ')
(2882, 3149, 2021815903L, '?CreateObject@CRichEditView@@SGPAVCObject@@XZ')
(2883, 3150, 2021955978L, '?CreateObject@CRuntimeClass@@QAEPAVCObject@@XZ')
(2884, 3151, 2021233147L, '?CreateObject@CRuntimeClass@@SGPAVCObject@@PB_W@Z')
(2885, 3152, 2021233103L, '?CreateObject@CRuntimeClass@@SGPAVCObject@@PBD@Z')
(2886, 3153, 2020707368L, '?CreateObject@CSettingsStore@@SGPAVCObject@@XZ')
(2887, 3154, 2020723670L, '?CreateObject@CSmartDockingGroupGuidesManager@@SGPAVCObject@@XZ')
(2888, 3155, 2020723606L, '?CreateObject@CSmartDockingStandaloneGuide@@SGPAVCObject@@XZ')
(2889, 3156, 2021243155L, '?CreateObject@CStringArray@@SGPAVCObject@@XZ')
(2890, 3157, 2021563280L, '?CreateObject@CStringList@@SGPAVCObject@@XZ')
(2891, 3158, 2020749780L, '?CreateObject@CTabbedPane@@SGPAVCObject@@XZ')
(2892, 3159, 2020773266L, '?CreateObject@CTabView@@SGPAVCObject@@XZ')
(2893, 3160, 2020793372L, '?CreateObject@CTasksPaneHistoryButton@@SGPAVCObject@@XZ')
(2894, 3161, 2020793544L, '?CreateObject@CTasksPaneMenuButton@@SGPAVCObject@@XZ')
(2895, 3162, 2020792796L, '?CreateObject@CTasksPaneNavigateButton@@SGPAVCObject@@XZ')
(2896, 3163, 2021766377L, '?CreateObject@CTreeView@@SGPAVCObject@@XZ')
(2897, 3164, 2020991258L, '?CreateObject@CUserTool@@SGPAVCObject@@XZ')
(2898, 3165, 2021848287L, '?CreateObject@CWnd@@SGPAVCObject@@XZ')
(2899, 3166, 2021244601L, '?CreateObject@CWordArray@@SGPAVCObject@@XZ')
(2900, 3167, 2021571976L, '?CreateOleFont@COleControlContainer@@QAEXPAVCFont@@@Z')
(2901, 3168, 2021528797L, '?CreateOleFrame@CDocTemplate@@QAEPAVCFrameWnd@@PAVCWnd@@PAVCDocument@@H@Z')
(2902, 3169, 2021743088L, '?CreateOneDim@COleSafeArray@@QAEXGKPBXJ@Z')
(2903, 3170, 2021586149L, '?CreateOrLoad@COleControlSite@@MAEJABU_GUID@@PAVCFile@@HPA_W@Z')
(2904, 3171, 2021586136L, '?CreateOrLoad@COleControlSite@@MAEJABVCControlCreationInfo@@@Z')
(2905, 3172, 2019931198L, '?CreatePalette@CMFCColorBar@@KGHABV?$CArray@KK@@AAVCPalette@@@Z')
(2906, 3173, 2020334732L, '?CreatePaneDivider@CPaneContainerManager@@IAEPAVCPaneDivider@@VCRect@@KH@Z')
(2907, 3174, 2021908280L, '?CreatePointFont@CFont@@QAEHHPB_WPAVCDC@@@Z')
(2908, 3175, 2021908390L, '?CreatePointFontIndirect@CFont@@QAEHPBUtagLOGFONTW@@PAVCDC@@@Z')
(2909, 3176, 2019943028L, '?CreatePopupMenu@CMFCColorMenuButton@@MAEPAVCMFCPopupMenu@@XZ')
(2910, 3177, 2019973705L, '?CreatePopupMenu@CMFCCustomizeButton@@UAEPAVCMFCPopupMenu@@XZ')
(2911, 3178, 2020645490L, '?CreatePopupMenu@CMFCRibbonGalleryMenuButton@@UAEPAVCMFCPopupMenu@@XZ')
(2912, 3179, 2020291247L, '?CreatePopupMenu@COutlookCustomizeButton@@UAEPAVCMFCPopupMenu@@XZ')
(2913, 3180, 2021490021L, '?CreatePrinterDC@CPageSetupDialog@@QAEPAUHDC__@@XZ')
(2914, 3181, 2021490740L, '?CreatePrinterDC@CPrintDialog@@QAEPAUHDC__@@XZ')
(2915, 3182, 2021491778L, '?CreatePrinterDC@CPrintDialogEx@@QAEPAUHDC__@@XZ')
(2916, 3183, 2021232576L, '?CreatePrinterDC@CWinApp@@QAEHAAVCDC@@@Z')
(2917, 3184, 2020936874L, '?CreateRegionFromImage@CMFCToolBarImages@@SGPAUHRGN__@@PAUHBITMAP__@@K@Z')
(2918, 3185, 2021354983L, '?CreateRelation@CDaoDatabase@@QAEXAAUCDaoRelationInfo@@@Z')
(2919, 3186, 2021354719L, '?CreateRelation@CDaoDatabase@@QAEXPB_W00J00@Z')
(2920, 3187, 2020070431L, '?CreateRow@CDockSite@@UAEPAVCDockingPanesRow@@PAV1@HH@Z')
(2921, 3188, 2021923225L, '?CreateScrollBarCtrl@CSplitterWnd@@UAEHKI@Z')
(2922, 3189, 2021579027L, '?CreateSite@CControlSiteFactoryMgr@@QAEPAVCOleControlSite@@PAVCOleControlContainer@@ABVCControlCreationInfo@@@Z')
(2923, 3190, 2020790482L, '?CreateSite@COccManager@@UAEPAVCOleControlSite@@PAVCOleControlContainer@@@Z')
(2924, 3191, 2021576189L, '?CreateSite@COccManager@@UAEPAVCOleControlSite@@PAVCOleControlContainer@@ABVCControlCreationInfo@@@Z')
(2925, 3192, 2020577021L, '?CreateSpinButton@CMFCRibbonEdit@@IAEHPAVCMFCRibbonRichEditCtrl@@PAVCWnd@@@Z')
(2926, 3193, 2020419547L, '?CreateSpinControl@CMFCPropertyGridProperty@@UAEPAVCSpinButtonCtrl@@VCRect@@@Z')
(2927, 3194, 2021922530L, '?CreateStatic@CSplitterWnd@@UAEHPAVCWnd@@HHKI@Z')
(2928, 3195, 2021618169L, '?CreateStaticFromClipboard@COleClientItem@@QAEHW4tagOLERENDER@@GPAUtagFORMATETC@@@Z')
(2929, 3196, 2021618490L, '?CreateStaticFromData@COleClientItem@@QAEHPAVCOleDataObject@@W4tagOLERENDER@@GPAUtagFORMATETC@@@Z')
(2930, 3197, 2021712384L, '?CreateStream@COleStreamFile@@QAEHPAUIStorage@@PB_WKPAVCFileException@@@Z')
(2931, 3198, 2020017965L, '?CreateTabbedPane@CDockablePane@@UAEPAVCTabbedPane@@XZ')
(2932, 3199, 2020200699L, '?CreateTabGroup@CMDIClientAreaWnd@@UAEPAVCMFCTabCtrl@@PAV2@@Z')
(2933, 3200, 2019952159L, '?CreateTearOffBar@CMFCColorPopupMenu@@UAEPAVCPane@@PAVCFrameWnd@@IPB_W@Z')
(2934, 3201, 2020390522L, '?CreateTearOffBar@CMFCPopupMenu@@MAEPAVCPane@@PAVCFrameWnd@@IPB_W@Z')
(2935, 3202, 2021756536L, '?CreateThread@CWinThread@@QAEHKIPAU_SECURITY_ATTRIBUTES@@@Z')
(2936, 3203, 2020989754L, '?CreateToolTip@CTooltipManager@@SGHAAPAVCToolTipCtrl@@PAVCWnd@@I@Z')
(2937, 3204, 2020990659L, '?CreateToolTipObject@CTooltipManager@@IAEHAAPAVCToolTipCtrl@@I@Z')
(2938, 3205, 2021342149L, '?CreateTracker@COleControl@@IAEXHH@Z')
(2939, 3206, 2021342176L, '?CreateTracker@COleControl@@IAEXHHPBUtagRECT@@@Z')
(2940, 3207, 2021883012L, '?CreateView@CFrameWnd@@QAEPAVCWnd@@PAUCCreateContext@@I@Z')
(2941, 3208, 2021922935L, '?CreateView@CSplitterWnd@@UAEHHHPAUCRuntimeClass@@UtagSIZE@@PAUCCreateContext@@@Z')
(2942, 3209, 2021671582L, '?CreateView@XOleDocument@CDocObjectServer@@UAGJPAUIOleInPlaceSite@@PAUIStream@@KPAPAUIOleDocumentView@@@Z')
(2943, 3210, 2021004386L, '?CreateVisualManager@CMFCVisualManager@@KGPAV1@PAUCRuntimeClass@@@Z')
(2944, 3211, 2021283583L, '?CreateWindowForSubclassedControl@COleControl@@IAEXXZ')
(2945, 3212, 2019889235L, '?CreateWrapper@CMFCBaseTabCtrl@@MAEPAVCWnd@@PAV2@PB_WH@Z')
(2946, 3213, 2020155003L, '?CyFromString@CGlobalUtils@@QAEHAATtagCY@@PB_W@Z')
(2947, 3214, 2021287148L, '?DAdvise@XDataObject@COleControl@@UAGJPAUtagFORMATETC@@KPAUIAdviseSink@@PAK@Z')
(2948, 3215, 2021660100L, '?DAdvise@XDataObject@COleDataSource@@UAGJPAUtagFORMATETC@@KPAUIAdviseSink@@PAK@Z')
(2949, 3216, 2021725179L, '?DAdvise@XDataObject@COleServerDoc@@UAGJPAUtagFORMATETC@@KPAUIAdviseSink@@PAK@Z')
(2950, 3217, 2021731808L, '?DAdvise@XDataObject@COleServerItem@@UAGJPAUtagFORMATETC@@KPAUIAdviseSink@@PAK@Z')
(2951, 3218, 2021317966L, '?DDP_Check@@YGXPAVCDataExchange@@HAAHPB_W@Z')
(2952, 3219, 2021317919L, '?DDP_EndCheck@@YGXPAVCDataExchange@@HPAHPB_W@Z')
(2953, 3220, 2021318097L, '?DDP_EndRadio@@YGXPAVCDataExchange@@HPAHPB_W@Z')
(2954, 3221, 2021316470L, '?DDP_EndText@@YGXPAVCDataExchange@@HPAEPB_W@Z')
(2955, 3222, 2021316646L, '?DDP_EndText@@YGXPAVCDataExchange@@HPAFPB_W@Z')
(2956, 3223, 2021317084L, '?DDP_EndText@@YGXPAVCDataExchange@@HPAHPB_W@Z')
(2957, 3224, 2021317084L, '?DDP_EndText@@YGXPAVCDataExchange@@HPAIPB_W@Z')
(2958, 3225, 2021317084L, '?DDP_EndText@@YGXPAVCDataExchange@@HPAJPB_W@Z')
(2959, 3226, 2021317084L, '?DDP_EndText@@YGXPAVCDataExchange@@HPAKPB_W@Z')
(2960, 3227, 2021317391L, '?DDP_EndText@@YGXPAVCDataExchange@@HPAMPB_W@Z')
(2961, 3228, 2021317567L, '?DDP_EndText@@YGXPAVCDataExchange@@HPANPB_W@Z')
(2962, 3229, 2021317743L, '?DDP_EndText@@YGXPAVCDataExchange@@HPAV?$CStringT@_WV?$StrTraitMFC_DLL@_WV?$ChTraitsCRT@_W@ATL@@@@@ATL@@PB_W@Z')
(2963, 3230, 2021318275L, '?DDP_PostProcessing@@YGXPAVCDataExchange@@@Z')
(2964, 3231, 2021318144L, '?DDP_Radio@@YGXPAVCDataExchange@@HAAHPB_W@Z')
(2965, 3232, 2021316515L, '?DDP_Text@@YGXPAVCDataExchange@@HAAEPB_W@Z')
(2966, 3233, 2021316691L, '?DDP_Text@@YGXPAVCDataExchange@@HAAFPB_W@Z')
(2967, 3234, 2021316822L, '?DDP_Text@@YGXPAVCDataExchange@@HAAHPB_W@Z')
(2968, 3235, 2021316953L, '?DDP_Text@@YGXPAVCDataExchange@@HAAIPB_W@Z')
(2969, 3236, 2021317129L, '?DDP_Text@@YGXPAVCDataExchange@@HAAJPB_W@Z')
(2970, 3237, 2021317260L, '?DDP_Text@@YGXPAVCDataExchange@@HAAKPB_W@Z')
(2971, 3238, 2021317436L, '?DDP_Text@@YGXPAVCDataExchange@@HAAMPB_W@Z')
(2972, 3239, 2021317612L, '?DDP_Text@@YGXPAVCDataExchange@@HAANPB_W@Z')
(2973, 3240, 2021317788L, '?DDP_Text@@YGXPAVCDataExchange@@HAAV?$CStringT@_WV?$StrTraitMFC_DLL@_WV?$ChTraitsCRT@_W@ATL@@@@@ATL@@PB_W@Z')
(2974, 3241, 2021448366L, '?DDV_MaxChars@@YGXPAVCDataExchange@@ABV?$CStringT@_WV?$StrTraitMFC_DLL@_WV?$ChTraitsCRT@_W@ATL@@@@@ATL@@H@Z')
(2975, 3242, 2021447927L, '?DDV_MinMaxByte@@YGXPAVCDataExchange@@EEE@Z')
(2976, 3243, 2021876761L, '?DDV_MinMaxDateTime@@YGXPAVCDataExchange@@AAVCOleDateTime@ATL@@PBV23@2@Z')
(2977, 3244, 2021876657L, '?DDV_MinMaxDateTime@@YGXPAVCDataExchange@@AAVCTime@ATL@@PBV23@2@Z')
(2978, 3245, 2021460655L, '?DDV_MinMaxDouble@@YGXPAVCDataExchange@@ABNNN@Z')
(2979, 3246, 2021448089L, '?DDV_MinMaxDWord@@YGXPAVCDataExchange@@KKK@Z')
(2980, 3247, 2021460584L, '?DDV_MinMaxFloat@@YGXPAVCDataExchange@@ABMMM@Z')
(2981, 3248, 2021448038L, '?DDV_MinMaxInt@@YGXPAVCDataExchange@@HHH@Z')
(2982, 3249, 2021448038L, '?DDV_MinMaxLong@@YGXPAVCDataExchange@@JJJ@Z')
(2983, 3250, 2021448139L, '?DDV_MinMaxLongLong@@YGXPAVCDataExchange@@_J11@Z')
(2984, 3251, 2021876970L, '?DDV_MinMaxMonth@@YGXPAVCDataExchange@@AAVCOleDateTime@ATL@@PBV23@2@Z')
(2985, 3252, 2021876866L, '?DDV_MinMaxMonth@@YGXPAVCDataExchange@@AAVCTime@ATL@@PBV23@2@Z')
(2986, 3253, 2021447981L, '?DDV_MinMaxShort@@YGXPAVCDataExchange@@FFF@Z')
(2987, 3254, 2021448277L, '?DDV_MinMaxSlider@@YGXPAVCDataExchange@@KKK@Z')
(2988, 3255, 2021448089L, '?DDV_MinMaxUInt@@YGXPAVCDataExchange@@III@Z')
(2989, 3256, 2021448208L, '?DDV_MinMaxULongLong@@YGXPAVCDataExchange@@_K11@Z')
(2990, 3257, 2021447306L, '?DDX_CBIndex@@YGXPAVCDataExchange@@HAAH@Z')
(2991, 3258, 2021446883L, '?DDX_CBString@@YGXPAVCDataExchange@@HAAV?$CStringT@_WV?$StrTraitMFC_DLL@_WV?$ChTraitsCRT@_W@ATL@@@@@ATL@@@Z')
(2992, 3259, 2021447068L, '?DDX_CBStringExact@@YGXPAVCDataExchange@@HAAV?$CStringT@_WV?$StrTraitMFC_DLL@_WV?$ChTraitsCRT@_W@ATL@@@@@ATL@@@Z')
(2993, 3260, 2021446343L, '?DDX_Check@@YGXPAVCDataExchange@@HAAH@Z')
(2994, 3261, 2021448558L, '?DDX_Control@@YGXPAVCDataExchange@@HAAVCWnd@@@Z')
(2995, 3262, 2021876115L, '?DDX_DateTimeCtrl@@YGXPAVCDataExchange@@HAAU_FILETIME@@@Z')
(2996, 3263, 2021790461L, '?DDX_DateTimeCtrl@@YGXPAVCDataExchange@@HAAUtagDBDATE@@@Z')
(2997, 3264, 2021790646L, '?DDX_DateTimeCtrl@@YGXPAVCDataExchange@@HAAUtagDBTIME@@@Z')
(2998, 3265, 2021876314L, '?DDX_DateTimeCtrl@@YGXPAVCDataExchange@@HAAV?$CStringT@_WV?$StrTraitMFC_DLL@_WV?$ChTraitsCRT@_W@ATL@@@@@ATL@@@Z')
(2999, 3266, 2021876049L, '?DDX_DateTimeCtrl@@YGXPAVCDataExchange@@HAAVCOleDateTime@ATL@@@Z')
(3000, 3267, 2021876248L, '?DDX_DateTimeCtrl@@YGXPAVCDataExchange@@HAAVCTime@ATL@@@Z')
(3001, 3268, 2021473207L, '?DDX_DHtml_AxControl@CDHtmlDialog@@IAEXPB_W0AAUtagVARIANT@@H@Z')
(3002, 3269, 2021473140L, '?DDX_DHtml_AxControl@CDHtmlDialog@@IAEXPB_WJAAUtagVARIANT@@H@Z')
(3003, 3270, 2021470686L, '?DDX_DHtml_AxControl@CDHtmlDialog@@QAEXPAVCDataExchange@@PB_W1AAUtagVARIANT@@@Z')
(3004, 3271, 2021470653L, '?DDX_DHtml_AxControl@CDHtmlDialog@@QAEXPAVCDataExchange@@PB_WJAAUtagVARIANT@@@Z')
(3005, 3272, 2021471399L, '?DDX_DHtml_CheckBox@CDHtmlDialog@@IAEXPB_WAAHH@Z')
(3006, 3273, 2021470503L, '?DDX_DHtml_CheckBox@CDHtmlDialog@@QAEXPAVCDataExchange@@PB_WAAH@Z')
(3007, 3274, 2021471055L, '?DDX_DHtml_ElementText@CDHtmlDialog@@IAEXPB_WJAAFH@Z')
(3008, 3275, 2021471127L, '?DDX_DHtml_ElementText@CDHtmlDialog@@IAEXPB_WJAAHH@Z')
(3009, 3276, 2021471187L, '?DDX_DHtml_ElementText@CDHtmlDialog@@IAEXPB_WJAAJH@Z')
(3010, 3277, 2021471247L, '?DDX_DHtml_ElementText@CDHtmlDialog@@IAEXPB_WJAAKH@Z')
(3011, 3278, 2021471307L, '?DDX_DHtml_ElementText@CDHtmlDialog@@IAEXPB_WJAAMH@Z')
(3012, 3279, 2021471353L, '?DDX_DHtml_ElementText@CDHtmlDialog@@IAEXPB_WJAANH@Z')
(3013, 3280, 2021470719L, '?DDX_DHtml_ElementText@CDHtmlDialog@@IAEXPB_WJAAV?$CStringT@_WV?$StrTraitMFC_DLL@_WV?$ChTraitsCRT@_W@ATL@@@@@ATL@@H@Z')
(3014, 3281, 2021470305L, '?DDX_DHtml_ElementText@CDHtmlDialog@@QAEXPAVCDataExchange@@PB_WJAAF@Z')
(3015, 3282, 2021470338L, '?DDX_DHtml_ElementText@CDHtmlDialog@@QAEXPAVCDataExchange@@PB_WJAAH@Z')
(3016, 3283, 2021470371L, '?DDX_DHtml_ElementText@CDHtmlDialog@@QAEXPAVCDataExchange@@PB_WJAAJ@Z')
(3017, 3284, 2021470404L, '?DDX_DHtml_ElementText@CDHtmlDialog@@QAEXPAVCDataExchange@@PB_WJAAK@Z')
(3018, 3285, 2021470437L, '?DDX_DHtml_ElementText@CDHtmlDialog@@QAEXPAVCDataExchange@@PB_WJAAM@Z')
(3019, 3286, 2021470470L, '?DDX_DHtml_ElementText@CDHtmlDialog@@QAEXPAVCDataExchange@@PB_WJAAN@Z')
(3020, 3287, 2021470272L, '?DDX_DHtml_ElementText@CDHtmlDialog@@QAEXPAVCDataExchange@@PB_WJAAV?$CStringT@_WV?$StrTraitMFC_DLL@_WV?$ChTraitsCRT@_W@ATL@@@@@ATL@@@Z')
(3021, 3288, 2021473594L, '?DDX_DHtml_ElementTextFloatFormat@CDHtmlDialog@@IAEXPB_WJPAXNHH@Z')
(3022, 3289, 2021473355L, '?DDX_DHtml_ElementTextWithFormat@CDHtmlDialog@@IAAXPB_WJ0IHZZ')
(3023, 3290, 2021471658L, '?DDX_DHtml_Radio@CDHtmlDialog@@IAEXPB_WAAJH@Z')
(3024, 3291, 2021470533L, '?DDX_DHtml_Radio@CDHtmlDialog@@QAEXPAVCDataExchange@@PB_WAAJ@Z')
(3025, 3292, 2021472994L, '?DDX_DHtml_SelectIndex@CDHtmlDialog@@IAEXPB_WAAJH@Z')
(3026, 3293, 2021470623L, '?DDX_DHtml_SelectIndex@CDHtmlDialog@@QAEXPAVCDataExchange@@PB_WAAJ@Z')
(3027, 3294, 2021472483L, '?DDX_DHtml_SelectString@CDHtmlDialog@@IAEXPB_WAAV?$CStringT@_WV?$StrTraitMFC_DLL@_WV?$ChTraitsCRT@_W@ATL@@@@@ATL@@H@Z')
(3028, 3295, 2021470593L, '?DDX_DHtml_SelectString@CDHtmlDialog@@QAEXPAVCDataExchange@@PB_WAAV?$CStringT@_WV?$StrTraitMFC_DLL@_WV?$ChTraitsCRT@_W@ATL@@@@@ATL@@@Z')
(3029, 3296, 2021472275L, '?DDX_DHtml_SelectValue@CDHtmlDialog@@IAEXPB_WAAV?$CStringT@_WV?$StrTraitMFC_DLL@_WV?$ChTraitsCRT@_W@ATL@@@@@ATL@@H@Z')
(3030, 3297, 2021470563L, '?DDX_DHtml_SelectValue@CDHtmlDialog@@QAEXPAVCDataExchange@@PB_WAAV?$CStringT@_WV?$StrTraitMFC_DLL@_WV?$ChTraitsCRT@_W@ATL@@@@@ATL@@@Z')
(3031, 3298, 2021393204L, '?DDX_FieldCBIndex@@YGXPAVCDataExchange@@HAAHPAVCDaoRecordset@@@Z')
(3032, 3299, 2021433911L, '?DDX_FieldCBIndex@@YGXPAVCDataExchange@@HAAHPAVCRecordset@@@Z')
(3033, 3300, 2021392801L, '?DDX_FieldCBString@@YGXPAVCDataExchange@@HAAV?$CStringT@_WV?$StrTraitMFC_DLL@_WV?$ChTraitsCRT@_W@ATL@@@@@ATL@@PAVCDaoRecordset@@@Z')
(3034, 3301, 2021433401L, '?DDX_FieldCBString@@YGXPAVCDataExchange@@HAAV?$CStringT@_WV?$StrTraitMFC_DLL@_WV?$ChTraitsCRT@_W@ATL@@@@@ATL@@PAVCRecordset@@@Z')
(3035, 3302, 2021393009L, '?DDX_FieldCBStringExact@@YGXPAVCDataExchange@@HAAV?$CStringT@_WV?$StrTraitMFC_DLL@_WV?$ChTraitsCRT@_W@ATL@@@@@ATL@@PAVCDaoRecordset@@@Z')
(3036, 3303, 2021433777L, '?DDX_FieldCBStringExact@@YGXPAVCDataExchange@@HAAV?$CStringT@_WV?$StrTraitMFC_DLL@_WV?$ChTraitsCRT@_W@ATL@@@@@ATL@@PAVCRecordset@@@Z')
(3037, 3304, 2021393405L, '?DDX_FieldCheck@@YGXPAVCDataExchange@@HAAHPAVCDaoRecordset@@@Z')
(3038, 3305, 2021434057L, '?DDX_FieldCheck@@YGXPAVCDataExchange@@HAAHPAVCRecordset@@@Z')
(3039, 3306, 2021393137L, '?DDX_FieldLBIndex@@YGXPAVCDataExchange@@HAAHPAVCDaoRecordset@@@Z')
(3040, 3307, 2021433328L, '?DDX_FieldLBIndex@@YGXPAVCDataExchange@@HAAHPAVCRecordset@@@Z')
(3041, 3308, 2021392408L, '?DDX_FieldLBString@@YGXPAVCDataExchange@@HAAV?$CStringT@_WV?$StrTraitMFC_DLL@_WV?$ChTraitsCRT@_W@ATL@@@@@ATL@@PAVCDaoRecordset@@@Z')
(3042, 3309, 2021432890L, '?DDX_FieldLBString@@YGXPAVCDataExchange@@HAAV?$CStringT@_WV?$StrTraitMFC_DLL@_WV?$ChTraitsCRT@_W@ATL@@@@@ATL@@PAVCRecordset@@@Z')
(3043, 3310, 2021392673L, '?DDX_FieldLBStringExact@@YGXPAVCDataExchange@@HAAV?$CStringT@_WV?$StrTraitMFC_DLL@_WV?$ChTraitsCRT@_W@ATL@@@@@ATL@@PAVCDaoRecordset@@@Z')
(3044, 3311, 2021433194L, '?DDX_FieldLBStringExact@@YGXPAVCDataExchange@@HAAV?$CStringT@_WV?$StrTraitMFC_DLL@_WV?$ChTraitsCRT@_W@ATL@@@@@ATL@@PAVCRecordset@@@Z')
(3045, 3312, 2021393580L, '?DDX_FieldRadio@@YGXPAVCDataExchange@@HAAHPAVCDaoRecordset@@@Z')
(3046, 3313, 2021434239L, '?DDX_FieldRadio@@YGXPAVCDataExchange@@HAAHPAVCRecordset@@@Z')
(3047, 3314, 2021393271L, '?DDX_FieldScroll@@YGXPAVCDataExchange@@HAAHPAVCDaoRecordset@@@Z')
(3048, 3315, 2021433984L, '?DDX_FieldScroll@@YGXPAVCDataExchange@@HAAHPAVCRecordset@@@Z')
(3049, 3316, 2021393338L, '?DDX_FieldSlider@@YGXPAVCDataExchange@@HAAHPAVCDaoRecordset@@@Z')
(3050, 3317, 2021391914L, '?DDX_FieldText@@YGXPAVCDataExchange@@HAAEPAVCDaoRecordset@@@Z')
(3051, 3318, 2021432224L, '?DDX_FieldText@@YGXPAVCDataExchange@@HAAEPAVCRecordset@@@Z')
(3052, 3319, 2021391963L, '?DDX_FieldText@@YGXPAVCDataExchange@@HAAFPAVCDaoRecordset@@@Z')
(3053, 3320, 2021391865L, '?DDX_FieldText@@YGXPAVCDataExchange@@HAAHPAVCDaoRecordset@@@Z')
(3054, 3321, 2021432175L, '?DDX_FieldText@@YGXPAVCDataExchange@@HAAHPAVCRecordset@@@Z')
(3055, 3322, 2021432273L, '?DDX_FieldText@@YGXPAVCDataExchange@@HAAIPAVCRecordset@@@Z')
(3056, 3323, 2021392012L, '?DDX_FieldText@@YGXPAVCDataExchange@@HAAJPAVCDaoRecordset@@@Z')
(3057, 3324, 2021432322L, '?DDX_FieldText@@YGXPAVCDataExchange@@HAAJPAVCRecordset@@@Z')
(3058, 3325, 2021392061L, '?DDX_FieldText@@YGXPAVCDataExchange@@HAAKPAVCDaoRecordset@@@Z')
(3059, 3326, 2021432371L, '?DDX_FieldText@@YGXPAVCDataExchange@@HAAKPAVCRecordset@@@Z')
(3060, 3327, 2021392159L, '?DDX_FieldText@@YGXPAVCDataExchange@@HAAMPAVCDaoRecordset@@@Z')
(3061, 3328, 2021415070L, '?DDX_FieldText@@YGXPAVCDataExchange@@HAAMPAVCRecordset@@@Z')
(3062, 3329, 2021392208L, '?DDX_FieldText@@YGXPAVCDataExchange@@HAANPAVCDaoRecordset@@@Z')
(3063, 3330, 2021415135L, '?DDX_FieldText@@YGXPAVCDataExchange@@HAANPAVCRecordset@@@Z')
(3064, 3331, 2021392306L, '?DDX_FieldText@@YGXPAVCDataExchange@@HAAV?$CStringT@_WV?$StrTraitMFC_DLL@_WV?$ChTraitsCRT@_W@ATL@@@@@ATL@@PAVCDaoRecordset@@@Z')
(3065, 3332, 2021432420L, '?DDX_FieldText@@YGXPAVCDataExchange@@HAAV?$CStringT@_WV?$StrTraitMFC_DLL@_WV?$ChTraitsCRT@_W@ATL@@@@@ATL@@PAVCRecordset@@@Z')
(3066, 3333, 2021392110L, '?DDX_FieldText@@YGXPAVCDataExchange@@HAAVCOleCurrency@@PAVCDaoRecordset@@@Z')
(3067, 3334, 2021392257L, '?DDX_FieldText@@YGXPAVCDataExchange@@HAAVCOleDateTime@ATL@@PAVCDaoRecordset@@@Z')
(3068, 3335, 2021392355L, '?DDX_FieldText@@YGXPAVCDataExchange@@HPA_WHPAVCDaoRecordset@@@Z')
(3069, 3336, 2021432681L, '?DDX_FieldText@@YGXPAVCDataExchange@@HPA_WHPAVCRecordset@@@Z')
(3070, 3337, 2021447577L, '?DDX_IPAddress@@YGXPAVCDataExchange@@HAAK@Z')
(3071, 3338, 2021447214L, '?DDX_LBIndex@@YGXPAVCDataExchange@@HAAH@Z')
(3072, 3339, 2021446625L, '?DDX_LBString@@YGXPAVCDataExchange@@HAAV?$CStringT@_WV?$StrTraitMFC_DLL@_WV?$ChTraitsCRT@_W@ATL@@@@@ATL@@@Z')
(3073, 3340, 2021446780L, '?DDX_LBStringExact@@YGXPAVCDataExchange@@HAAV?$CStringT@_WV?$StrTraitMFC_DLL@_WV?$ChTraitsCRT@_W@ATL@@@@@ATL@@@Z')
(3074, 3341, 2021876458L, '?DDX_MonthCalCtrl@@YGXPAVCDataExchange@@HAAU_FILETIME@@@Z')
(3075, 3342, 2021790823L, '?DDX_MonthCalCtrl@@YGXPAVCDataExchange@@HAAUtagDBDATE@@@Z')
(3076, 3343, 2021876392L, '?DDX_MonthCalCtrl@@YGXPAVCDataExchange@@HAAVCOleDateTime@ATL@@@Z')
(3077, 3344, 2021876591L, '?DDX_MonthCalCtrl@@YGXPAVCDataExchange@@HAAVCTime@ATL@@@Z')
(3078, 3345, 2021606312L, '?DDX_OCBool@@YGXPAVCDataExchange@@HJAAH@Z')
(3079, 3346, 2021606395L, '?DDX_OCBoolRO@@YGXPAVCDataExchange@@HJAAH@Z')
(3080, 3347, 2021606570L, '?DDX_OCColor@@YGXPAVCDataExchange@@HJAAK@Z')
(3081, 3348, 2021606653L, '?DDX_OCColorRO@@YGXPAVCDataExchange@@HJAAK@Z')
(3082, 3349, 2021606698L, '?DDX_OCFloat@@YGXPAVCDataExchange@@HJAAM@Z')
(3083, 3350, 2021606844L, '?DDX_OCFloat@@YGXPAVCDataExchange@@HJAAN@Z')
(3084, 3351, 2021606786L, '?DDX_OCFloatRO@@YGXPAVCDataExchange@@HJAAM@Z')
(3085, 3352, 2021606932L, '?DDX_OCFloatRO@@YGXPAVCDataExchange@@HJAAN@Z')
(3086, 3353, 2021606570L, '?DDX_OCInt@@YGXPAVCDataExchange@@HJAAH@Z')
(3087, 3354, 2021606570L, '?DDX_OCInt@@YGXPAVCDataExchange@@HJAAJ@Z')
(3088, 3355, 2021606653L, '?DDX_OCIntRO@@YGXPAVCDataExchange@@HJAAH@Z')
(3089, 3356, 2021606653L, '?DDX_OCIntRO@@YGXPAVCDataExchange@@HJAAJ@Z')
(3090, 3357, 2021606440L, '?DDX_OCShort@@YGXPAVCDataExchange@@HJAAF@Z')
(3091, 3358, 2021606525L, '?DDX_OCShortRO@@YGXPAVCDataExchange@@HJAAF@Z')
(3092, 3359, 2021606184L, '?DDX_OCText@@YGXPAVCDataExchange@@HJAAV?$CStringT@_WV?$StrTraitMFC_DLL@_WV?$ChTraitsCRT@_W@ATL@@@@@ATL@@@Z')
(3093, 3360, 2021606267L, '?DDX_OCTextRO@@YGXPAVCDataExchange@@HJAAV?$CStringT@_WV?$StrTraitMFC_DLL@_WV?$ChTraitsCRT@_W@ATL@@@@@ATL@@@Z')
(3094, 3361, 2021446449L, '?DDX_Radio@@YGXPAVCDataExchange@@HAAH@Z')
(3095, 3362, 2021447398L, '?DDX_Scroll@@YGXPAVCDataExchange@@HAAH@Z')
(3096, 3363, 2021447483L, '?DDX_Slider@@YGXPAVCDataExchange@@HAAH@Z')
(3097, 3364, 2021446023L, '?DDX_Text@@YGXPAVCDataExchange@@HAA_J@Z')
(3098, 3365, 2021446097L, '?DDX_Text@@YGXPAVCDataExchange@@HAA_K@Z')
(3099, 3366, 2021445629L, '?DDX_Text@@YGXPAVCDataExchange@@HAAE@Z')
(3100, 3367, 2021445746L, '?DDX_Text@@YGXPAVCDataExchange@@HAAF@Z')
(3101, 3368, 2021445803L, '?DDX_Text@@YGXPAVCDataExchange@@HAAH@Z')
(3102, 3369, 2021445858L, '?DDX_Text@@YGXPAVCDataExchange@@HAAI@Z')
(3103, 3370, 2021445913L, '?DDX_Text@@YGXPAVCDataExchange@@HAAJ@Z')
(3104, 3371, 2021445968L, '?DDX_Text@@YGXPAVCDataExchange@@HAAK@Z')
(3105, 3372, 2021460220L, '?DDX_Text@@YGXPAVCDataExchange@@HAAM@Z')
(3106, 3373, 2021460258L, '?DDX_Text@@YGXPAVCDataExchange@@HAAN@Z')
(3107, 3374, 2021744336L, '?DDX_Text@@YGXPAVCDataExchange@@HAAU_FILETIME@@@Z')
(3108, 3375, 2021745181L, '?DDX_Text@@YGXPAVCDataExchange@@HAAU_GUID@@@Z')
(3109, 3376, 2021788734L, '?DDX_Text@@YGXPAVCDataExchange@@HAAUtagDB_NUMERIC@@@Z')
(3110, 3377, 2021789827L, '?DDX_Text@@YGXPAVCDataExchange@@HAAUtagDBDATE@@@Z')
(3111, 3378, 2021790139L, '?DDX_Text@@YGXPAVCDataExchange@@HAAUtagDBTIME@@@Z')
(3112, 3379, 2021744888L, '?DDX_Text@@YGXPAVCDataExchange@@HAAUtagDEC@@@Z')
(3113, 3380, 2021446171L, '?DDX_Text@@YGXPAVCDataExchange@@HAAV?$CStringT@_WV?$StrTraitMFC_DLL@_WV?$ChTraitsCRT@_W@ATL@@@@@ATL@@@Z')
(3114, 3381, 2021744661L, '?DDX_Text@@YGXPAVCDataExchange@@HAAVCOleCurrency@@@Z')
(3115, 3382, 2021744104L, '?DDX_Text@@YGXPAVCDataExchange@@HAAVCOleDateTime@ATL@@@Z')
(3116, 3383, 2021446267L, '?DDX_Text@@YGXPAVCDataExchange@@HPA_WH@Z')
(3117, 3384, 2020449499L, '?Deactivate@CMFCPropertyGridToolTipCtrl@@QAEXXZ')
(3118, 3385, 2020857125L, '?Deactivate@CMFCToolBar@@UAEXXZ')
(3119, 3386, 2021628148L, '?Deactivate@COleClientItem@@QAEXXZ')
(3120, 3387, 2021307998L, '?Deactivate@XPropertyPage@COlePropertyPage@@UAGJXZ')
(3121, 3388, 2021720940L, '?DeactivateAndUndo@COleServerDoc@@QAEHXZ')
(3122, 3389, 2021631458L, '?DeactivateAndUndo@XOleIPSite@COleClientItem@@UAGJXZ')
(3123, 3390, 2021591703L, '?DeactivateAndUndo@XOleIPSite@COleControlSite@@UAGJXZ')
(3124, 3391, 2020497952L, '?DeactivateKeyboardFocus@CMFCRibbonBar@@QAEXH@Z')
(3125, 3392, 2020125152L, '?DeactivateMenu@CFrameImpl@@IAEXXZ')
(3126, 3393, 2021628220L, '?DeactivateUI@COleClientItem@@QAEXXZ')
(3127, 3394, 2020155253L, '?DecimalFromString@CGlobalUtils@@QAEHAAUtagDEC@@PB_W@Z')
(3128, 3395, 2021387022L, '?Default@CDaoFieldExchange@@QAEXPB_WPAXKK@Z')
(3129, 3396, 2021415457L, '?Default@CFieldExchange@@QAEXPB_WPAXPAJHKK@Z')
(3130, 3397, 2021826744L, '?Default@CWnd@@IAEJXZ')
(3131, 3398, 2021911151L, '?DefWindowProcW@CMDIChildWnd@@MAEJIIJ@Z')
(3132, 3399, 2021910187L, '?DefWindowProcW@CMDIFrameWnd@@MAEJIIJ@Z')
(3133, 3400, 2021284423L, '?DefWindowProcW@COleControl@@MAEJIIJ@Z')
(3134, 3401, 2020272488L, '?DefWindowProcW@CPrintDialogEx@@UAEJIIJ@Z')
(3135, 3402, 2021829401L, '?DefWindowProcW@CWnd@@MAEJIIJ@Z')
(3136, 3403, 2021657995L, '?DelayRenderData@COleDataSource@@QAEXGPAUtagFORMATETC@@@Z')
(3137, 3404, 2021657932L, '?DelayRenderFileData@COleDataSource@@QAEXGPAUtagFORMATETC@@@Z')
(3138, 3405, 2021658082L, '?DelaySetData@COleDataSource@@QAEXGPAUtagFORMATETC@@@Z')
(3139, 3406, 2021249476L, '?DelayShow@CControlBar@@UAEXH@Z')
(3140, 3407, 2021890012L, '?DelayUpdateFrameMenu@CFrameWnd@@UAEXPAUHMENU__@@@Z')
(3141, 3408, 2020134688L, '?DelayUpdateFrameMenu@CFrameWndEx@@UAEXPAUHMENU__@@@Z')
(3142, 3409, 2021910440L, '?DelayUpdateFrameMenu@CMDIFrameWnd@@UAEXPAUHMENU__@@@Z')
(3143, 3410, 2020151166L, '?Delete@?$CStringT@_WV?$StrTraitMFC_DLL@_WV?$ChTraitsCRT@_W@ATL@@@@@ATL@@QAEHHH@Z')
(3144, 3411, 2021948377L, '?Delete@?$CStringT@DV?$StrTraitMFC_DLL@DV?$ChTraitsCRT@D@ATL@@@@@ATL@@QAEHHH@Z')
(3145, 3412, 2021377420L, '?Delete@CDaoRecordset@@UAEXXZ')
(3146, 3413, 2021531325L, '?Delete@CException@@QAEXXZ')
(3147, 3414, 2021616227L, '?Delete@COleClientItem@@QAEXH@Z')
(3148, 3415, 2021401226L, '?Delete@CRecordset@@UAEXXZ')
(3149, 3416, 2021756810L, '?Delete@CWinThread@@UAEXXZ')
(3150, 3417, 2019983291L, '?DeleteAllAutosavedFiles@CDataRecoveryHandler@@UAEHXZ')
(3151, 3418, 2019983234L, '?DeleteAutosavedFile@CDataRecoveryHandler@@UAEHABV?$CStringT@_WV?$StrTraitMFC_DLL@_WV?$ChTraitsCRT@_W@ATL@@@@@ATL@@@Z')
(3152, 3419, 2021385976L, '?DeleteCacheValue@CDaoFieldExchange@@SGXPAUCDaoFieldCache@@K@Z')
(3153, 3420, 2021925354L, '?DeleteColumn@CSplitterWnd@@UAEXH@Z')
(3154, 3421, 2020276196L, '?DeleteContents@CDocument@@UAEXXZ')
(3155, 3422, 2021769490L, '?DeleteContents@CEditView@@UAEXXZ')
(3156, 3423, 2021785097L, '?DeleteContents@CHtmlEditDoc@@UAEXXZ')
(3157, 3424, 2021660689L, '?DeleteContents@COleDocument@@UAEXXZ')
(3158, 3425, 2021713681L, '?DeleteContents@COleServerDoc@@UAEXXZ')
(3159, 3426, 2021814622L, '?DeleteContents@CRichEditDoc@@UAEXXZ')
(3160, 3427, 2021803150L, '?DeleteContents@CRichEditView@@UAEXXZ')
(3161, 3428, 2021897171L, '?DeleteDC@CDC@@QAEHXZ')
(3162, 3429, 2021362428L, '?DeleteField@CDaoTableDef@@QAEXH@Z')
(3163, 3430, 2021362280L, '?DeleteField@CDaoTableDef@@QAEXPB_W@Z')
(3164, 3431, 2020992725L, '?DeleteIcon@CUserTool@@MAEXXZ')
(3165, 3432, 2020925345L, '?DeleteImage@CMFCToolBarImages@@QAEHH@Z')
(3166, 3433, 2021861404L, '?DeleteImageList@CImageList@@QAEHXZ')
(3167, 3434, 2021362882L, '?DeleteIndex@CDaoTableDef@@QAEXH@Z')
(3168, 3435, 2021362734L, '?DeleteIndex@CDaoTableDef@@QAEXPB_W@Z')
(3169, 3436, 2019845999L, '?DeleteItem@CComboBox@@UAEXPAUtagDELETEITEMSTRUCT@@@Z')
(3170, 3437, 2021877589L, '?DeleteItem@CComboBoxEx@@QAEHH@Z')
(3171, 3438, 2019845999L, '?DeleteItem@CListBox@@UAEXPAUtagDELETEITEMSTRUCT@@@Z')
(3172, 3439, 2020558269L, '?DeleteItem@CMFCRibbonComboBox@@QAEHH@Z')
(3173, 3440, 2020558394L, '?DeleteItem@CMFCRibbonComboBox@@QAEHK@Z')
(3174, 3441, 2020558443L, '?DeleteItem@CMFCRibbonComboBox@@QAEHPB_W@Z')
(3175, 3442, 2020891662L, '?DeleteItem@CMFCToolBarComboBoxButton@@QAEHH@Z')
(3176, 3443, 2020891818L, '?DeleteItem@CMFCToolBarComboBoxButton@@QAEHK@Z')
(3177, 3444, 2020891867L, '?DeleteItem@CMFCToolBarComboBoxButton@@QAEHPB_W@Z')
(3178, 3445, 2020709586L, '?DeleteKey@CSettingsStore@@UAEHPB_WH@Z')
(3179, 3446, 2021902314L, '?DeleteObject@CGdiObject@@QAEHXZ')
(3180, 3447, 2021805204L, '?DeleteObject@XRichEditOleCallback@CRichEditView@@UAGJPAUIOleObject@@@Z')
(3181, 3448, 2020321334L, '?DeletePane@CPaneContainer@@UAEXPAVCDockablePane@@W4BC_FIND_CRITERIA@1@@Z')
(3182, 3449, 2020412932L, '?DeleteProperty@CMFCPropertyGridCtrl@@QAEHAAPAVCMFCPropertyGridProperty@@HH@Z')
(3183, 3450, 2021354571L, '?DeleteQueryDef@CDaoDatabase@@QAEXPB_W@Z')
(3184, 3451, 2021355627L, '?DeleteRelation@CDaoDatabase@@QAEXPB_W@Z')
(3185, 3452, 2021925046L, '?DeleteRow@CSplitterWnd@@UAEXH@Z')
(3186, 3453, 2021354423L, '?DeleteTableDef@CDaoDatabase@@QAEXPB_W@Z')
(3187, 3454, 2021909177L, '?DeleteTemp@CHandleMap@@QAEXXZ')
(3188, 3455, 2021909316L, '?DeleteTempMap@CDC@@SGXXZ')
(3189, 3456, 2021909334L, '?DeleteTempMap@CGdiObject@@SGXXZ')
(3190, 3457, 2021909298L, '?DeleteTempMap@CImageList@@SGXXZ')
(3191, 3458, 2021909352L, '?DeleteTempMap@CMenu@@SGXXZ')
(3192, 3459, 2021909280L, '?DeleteTempMap@CWnd@@SGXXZ')
(3193, 3460, 2020120949L, '?DeleteToolBar@CFrameImpl@@IAEHPAVCMFCToolBar@@@Z')
(3194, 3461, 2020990032L, '?DeleteToolTip@CTooltipManager@@SGXAAPAVCToolTipCtrl@@@Z')
(3195, 3462, 2021814195L, '?DeleteUnmarkedItems@CRichEditDoc@@IBEXXZ')
(3196, 3463, 2020709555L, '?DeleteValue@CSettingsStore@@UAEHPB_W@Z')
(3197, 3464, 2020821513L, '?DeleteValues@CThreadSlotData@@QAEXPAUCThreadData@@PAUHINSTANCE__@@@Z')
(3198, 3465, 2020821669L, '?DeleteValues@CThreadSlotData@@QAEXPAUHINSTANCE__@@H@Z')
(3199, 3466, 2021924057L, '?DeleteView@CSplitterWnd@@UAEXHH@Z')
(3200, 3468, 2021759157L, '?DelTool@CToolTipCtrl@@QAEXPAVCWnd@@I@Z')
(3201, 3469, 2021743994L, '?Destroy@COleSafeArray@@QAEXXZ')
(3202, 3470, 2020276196L, '?Destroy@CSmartDockingGroupGuide@@UAEXXZ')
(3203, 3471, 2020729185L, '?Destroy@CSmartDockingGroupGuidesManager@@UAEXXZ')
(3204, 3472, 2020733309L, '?Destroy@CSmartDockingManager@@QAEXXZ')
(3205, 3473, 2020724596L, '?Destroy@CSmartDockingStandaloneGuide@@UAEXXZ')
(3206, 3474, 2021585280L, '?DestroyControl@COleControlSite@@UAEHXZ')
(3207, 3475, 2020578235L, '?DestroyCtrl@CMFCRibbonEdit@@UAEXXZ')
(3208, 3476, 2021744026L, '?DestroyData@COleSafeArray@@QAEXXZ')
(3209, 3477, 2021744047L, '?DestroyDescriptor@COleSafeArray@@QAEXXZ')
(3210, 3478, 2021888116L, '?DestroyDockBars@CFrameWnd@@QAEXXZ')
(3211, 3479, 2020727462L, '?DestroyImages@CSmartDockingGroupGuide@@MAEXXZ')
(3212, 3480, 2021718851L, '?DestroyInPlaceFrame@COleServerDoc@@MAEXPAVCOleIPFrameWnd@@@Z')
(3213, 3481, 2021004466L, '?DestroyInstance@CMFCVisualManager@@SGXH@Z')
(3214, 3482, 2021914927L, '?DestroyMenu@CMenu@@QAEHXZ')
(3215, 3483, 2021469097L, '?DestroyModeless@CDHtmlDialog@@QAEXXZ')
(3216, 3484, 2021294154L, '?DestroySharedMenu@COleControl@@MAEXXZ')
(3217, 3485, 2021689204L, '?DestroySharedMenu@COleDocIPFrameWnd@@MAEXXZ')
(3218, 3486, 2021689204L, '?DestroySharedMenu@COleIPFrameWnd@@MAEXXZ')
(3219, 3487, 2021758506L, '?DestroyToolTipCtrl@CToolTipCtrl@@QAEHXZ')
(3220, 3488, 2021342415L, '?DestroyTracker@COleControl@@IAEXXZ')
(3221, 3489, 2021248029L, '?DestroyWindow@CControlBar@@UAEHXZ')
(3222, 3490, 2021911183L, '?DestroyWindow@CMDIChildWnd@@UAEHXZ')
(3223, 3491, 2021829301L, '?DestroyWindow@CWnd@@UAEHXZ')
(3224, 3492, 2021747400L, '?Detach@CAsyncSocket@@QAEIXZ')
(3225, 3493, 2021897114L, '?Detach@CDC@@QAEPAUHDC__@@XZ')
(3226, 3494, 2021653895L, '?Detach@CDialogTemplate@@QAEPAXXZ')
(3227, 3495, 2021902264L, '?Detach@CGdiObject@@QAEPAXXZ')
(3228, 3496, 2021861354L, '?Detach@CImageList@@QAEPAU_IMAGELIST@@XZ')
(3229, 3497, 2021541635L, '?Detach@CMemFile@@QAEPAEXZ')
(3230, 3498, 2021914877L, '?Detach@CMenu@@QAEPAUHMENU__@@XZ')
(3231, 3499, 2021699870L, '?Detach@CMonikerFile@@QAEHPAVCFileException@@@Z')
(3232, 3500, 2021656205L, '?Detach@COleDataObject@@QAEPAUIDataObject@@XZ')
(3233, 3501, 2021742764L, '?Detach@COleSafeArray@@QAE?AUtagVARIANT@@XZ')
(3234, 3502, 2021711469L, '?Detach@COleStreamFile@@QAEPAUIStream@@XZ')
(3235, 3503, 2021742764L, '?Detach@COleVariant@@QAE?AUtagVARIANT@@XZ')
(3236, 3504, 2021542923L, '?Detach@CSharedFile@@QAEPAXXZ')
(3237, 3505, 2021296497L, '?Detach@CWindowlessDC@@QAEPAUHDC__@@XZ')
(3238, 3506, 2021827074L, '?Detach@CWnd@@QAEPAUHWND__@@XZ')
(3239, 3507, 2021653895L, '?DetachDispatch@COleDispatchDriver@@QAEPAUIDispatch@@XZ')
(3240, 3508, 2021749619L, '?DetachHandle@CAsyncSocket@@SGXIH@Z')
(3241, 3509, 2019872895L, '?DetachPane@CBaseTabbedPane@@UAEHPAVCWnd@@H@Z')
(3242, 3510, 2020750380L, '?DetachPane@CTabbedPane@@UAEHPAVCWnd@@H@Z')
(3243, 3511, 2019883389L, '?DetachTab@CMFCBaseTabCtrl@@UAEHW4AFX_DOCK_METHOD@@HH@Z')
(3244, 3512, 2021588450L, '?DetachWindow@COleControlSite@@QAEXXZ')
(3245, 3513, 2020029994L, '?DeterminePaneAndStatus@CDockingManager@@UAE?AW4AFX_CS_STATUS@@VCPoint@@HKPAPAVCBasePane@@PBV4@2@Z')
(3246, 3514, 2021223263L, '?DevModeChange@CWinApp@@QAEXPA_W@Z')
(3247, 3515, 2021388399L, '?DFX_Binary@@YGXPAVCDaoFieldExchange@@PB_WAAVCByteArray@@HK@Z')
(3248, 3516, 2021388675L, '?DFX_Bool@@YGXPAVCDaoFieldExchange@@PB_WAAHK@Z')
(3249, 3517, 2021388817L, '?DFX_Byte@@YGXPAVCDaoFieldExchange@@PB_WAAEK@Z')
(3250, 3518, 2021389174L, '?DFX_Currency@@YGXPAVCDaoFieldExchange@@PB_WAAVCOleCurrency@@K@Z')
(3251, 3519, 2021389567L, '?DFX_DateTime@@YGXPAVCDaoFieldExchange@@PB_WAAVCOleDateTime@ATL@@K@Z')
(3252, 3520, 2021389453L, '?DFX_Double@@YGXPAVCDaoFieldExchange@@PB_WAANK@Z')
(3253, 3521, 2021389055L, '?DFX_Long@@YGXPAVCDaoFieldExchange@@PB_WAAJK@Z')
(3254, 3522, 2021388529L, '?DFX_LongBinary@@YGXPAVCDaoFieldExchange@@PB_WAAVCLongBinary@@KK@Z')
(3255, 3523, 2021388935L, '?DFX_Short@@YGXPAVCDaoFieldExchange@@PB_WAAFK@Z')
(3256, 3524, 2021389331L, '?DFX_Single@@YGXPAVCDaoFieldExchange@@PB_WAAMK@Z')
(3257, 3525, 2021388175L, '?DFX_Text@@YGXPAVCDaoFieldExchange@@PB_WAAV?$CStringT@_WV?$StrTraitMFC_DLL@_WV?$ChTraitsCRT@_W@ATL@@@@@ATL@@HK@Z')
(3258, 3526, 2021463592L, '?DHtmlEventHook@CDHtmlEventSink@@UAEHPAJJPAUtagDISPPARAMS@@PAUtagVARIANT@@PAUtagEXCEPINFO@@PAI@Z')
(3259, 3527, 2020004410L, '?DialogMouseHookProc@CDialogImpl@@KGJHIJ@Z')
(3260, 3528, 2021603686L, '?DidEvent@XNotifyDBEvents@COleControlSite@@UAGJKKQAUtagDBNOTIFYREASON@@@Z')
(3261, 3529, 2020184926L, '?DisableMask@CMFCMaskedEdit@@QAEXXZ')
(3262, 3530, 2021720993L, '?DiscardUndoState@COleServerDoc@@QAEHXZ')
(3263, 3531, 2021631363L, '?DiscardUndoState@XOleIPSite@COleClientItem@@UAGJXZ')
(3264, 3532, 2020790482L, '?DiscardUndoState@XOleIPSite@COleControlSite@@UAGJXZ')
(3265, 3533, 2021648242L, '?Disconnect@COleDispatchImpl@@UAEXXZ')
(3266, 3534, 2021475914L, '?DisconnectDHtmlElementEvents@CDHtmlDialog@@IAEXXZ')
(3267, 3535, 2021474876L, '?DisconnectDHtmlEvents@CDHtmlDialog@@IAEXXZ')
(3268, 3536, 2021463270L, '?DisconnectFromConnectionPoint@CDHtmlEventSink@@QAEXPAUIUnknown@@ABU_GUID@@AAK@Z')
(3269, 3537, 2021587430L, '?DisconnectSink@COleControlSite@@IAEXABU_GUID@@K@Z')
(3270, 3538, 2021495650L, '?DisconnectViews@CDocument@@QAEXXZ')
(3271, 3539, 2021757325L, '?DispatchThreadMessage@CWinThread@@IAEXPAUtagMSG@@@Z')
(3272, 3540, 2021757341L, '?DispatchThreadMessageEx@CWinThread@@IAEHPAUtagMSG@@@Z')
(3273, 3541, 2021291347L, '?DisplayError@COleControl@@UAEXJPB_W00I@Z')
(3274, 3542, 2020710631L, '?DisplayFolder@CMFCShellListCtrl@@UAEJPAU_AFX_SHELLITEMINFO@@@Z')
(3275, 3543, 2020711098L, '?DisplayFolder@CMFCShellListCtrl@@UAEJPB_W@Z')
(3276, 3544, 2020710939L, '?DisplayParentFolder@CMFCShellListCtrl@@UAEJXZ')
(3277, 3545, 2021668873L, '?DoBeginPrinting@CDocObjectServer@@IAEXPAVCView@@PAVCDC@@PAUCPrintInfo@@@Z')
(3278, 3546, 2019845999L, '?DoBulkFieldExchange@CRecordset@@UAEXPAVCFieldExchange@@@Z')
(3279, 3547, 2021749853L, '?DoCallBack@CAsyncSocket@@SGXIJ@Z')
(3280, 3548, 2021642239L, '?DoChangeIcon@COleChangeIconDialog@@QAEHPAVCOleClientItem@@@Z')
(3281, 3549, 2019876081L, '?Dock@CBaseTabbedPane@@MAEHPAVCBasePane@@PBUtagRECT@@W4AFX_DOCK_METHOD@@@Z')
(3282, 3550, 2020018201L, '?Dock@CDockablePane@@MAEHPAVCBasePane@@PBUtagRECT@@W4AFX_DOCK_METHOD@@@Z')
(3283, 3551, 2020287714L, '?Dock@CMFCOutlookBarPane@@UAEHPAVCBasePane@@PBUtagRECT@@W4AFX_DOCK_METHOD@@@Z')
(3284, 3552, 2020307487L, '?Dock@CPane@@MAEHPAVCBasePane@@PBUtagRECT@@W4AFX_DOCK_METHOD@@@Z')
(3285, 3553, 2020307311L, '?DockByMouse@CPane@@UAEHPAVCBasePane@@@Z')
(3286, 3554, 2021252655L, '?DockControlBar@CDockBar@@QAEXPAVCControlBar@@PBUtagRECT@@@Z')
(3287, 3555, 2021894138L, '?DockControlBar@CFrameWnd@@QAEXPAVCControlBar@@IPBUtagRECT@@@Z')
(3288, 3556, 2021894185L, '?DockControlBar@CFrameWnd@@QAEXPAVCControlBar@@PAVCDockBar@@PBUtagRECT@@@Z')
(3289, 3557, 2020260076L, '?DockFrame@CMultiPaneFrameWnd@@UAEHPAVCPaneFrameWnd@@W4AFX_DOCK_METHOD@@@Z')
(3290, 3558, 2019853541L, '?DockPane@CAutoHideDockSite@@UAEXPAVCPane@@W4AFX_DOCK_METHOD@@PBUtagRECT@@@Z')
(3291, 3559, 2020031408L, '?DockPane@CDockingManager@@QAEXPAVCBasePane@@IPBUtagRECT@@@Z')
(3292, 3560, 2020068554L, '?DockPane@CDockSite@@UAEXPAVCPane@@W4AFX_DOCK_METHOD@@PBUtagRECT@@@Z')
(3293, 3561, 2020135349L, '?DockPane@CFrameWndEx@@QAEXPAVCBasePane@@IPBUtagRECT@@@Z')
(3294, 3562, 2020219748L, '?DockPane@CMDIChildWndEx@@QAEXPAVCBasePane@@IPBUtagRECT@@@Z')
(3295, 3563, 2020231876L, '?DockPane@CMDIFrameWndEx@@QAEXPAVCBasePane@@IPBUtagRECT@@@Z')
(3296, 3564, 2020260705L, '?DockPane@CMultiPaneFrameWnd@@UAEHPAVCDockablePane@@@Z')
(3297, 3565, 2020268812L, '?DockPane@COleCntrFrameWndEx@@QAEXPAVCBasePane@@IPBUtagRECT@@@Z')
(3298, 3566, 2020271509L, '?DockPane@COleDocIPFrameWndEx@@QAEXPAVCBasePane@@IPBUtagRECT@@@Z')
(3299, 3567, 2020274216L, '?DockPane@COleIPFrameWndEx@@QAEXPAVCBasePane@@IPBUtagRECT@@@Z')
(3300, 3568, 2020307396L, '?DockPane@CPane@@UAEHPAVCBasePane@@PBUtagRECT@@W4AFX_DOCK_METHOD@@@Z')
(3301, 3569, 2020349520L, '?DockPane@CPaneFrameWnd@@UAEPAVCDockablePane@@AAH@Z')
(3302, 3570, 2020019682L, '?DockPaneContainer@CDockablePane@@UAEHAAVCPaneContainerManager@@KW4AFX_DOCK_METHOD@@@Z')
(3303, 3571, 2020031183L, '?DockPaneLeftOf@CDockingManager@@QAEHPAVCPane@@0@Z')
(3304, 3572, 2020069561L, '?DockPaneLeftOf@CDockSite@@UAEHPAVCPane@@0@Z')
(3305, 3573, 2020134545L, '?DockPaneLeftOf@CFrameWndEx@@QAEHPAVCPane@@0@Z')
(3306, 3574, 2020217728L, '?DockPaneLeftOf@CMDIChildWndEx@@QAEHPAVCPane@@0@Z')
(3307, 3575, 2020230539L, '?DockPaneLeftOf@CMDIFrameWndEx@@QAEHPAVCPane@@0@Z')
(3308, 3576, 2020268593L, '?DockPaneLeftOf@COleCntrFrameWndEx@@QAEHPAVCPane@@0@Z')
(3309, 3577, 2020271984L, '?DockPaneLeftOf@COleDocIPFrameWndEx@@QAEHPAVCPane@@0@Z')
(3310, 3578, 2020274691L, '?DockPaneLeftOf@COleIPFrameWndEx@@QAEHPAVCPane@@0@Z')
(3311, 3579, 2020023970L, '?DockPaneStandard@CDockablePane@@UAEPAVCPane@@AAH@Z')
(3312, 3580, 2020261059L, '?DockPaneStandard@CMultiPaneFrameWnd@@MAEPAVCDockablePane@@AAH@Z')
(3313, 3581, 2020350158L, '?DockPaneStandard@CPaneFrameWnd@@MAEPAVCDockablePane@@AAH@Z')
(3314, 3582, 2019858244L, '?DockPaneUsingRTTI@CBasePane@@QAEXH@Z')
(3315, 3583, 2020267140L, '?DockRecentPaneToMainFrame@CMultiPaneFrameWnd@@UAEXPAVCDockablePane@@@Z')
(3316, 3584, 2020018855L, '?DockToFrameWindow@CDockablePane@@UAEHKPBUtagRECT@@KPAVCBasePane@@HH@Z')
(3317, 3585, 2020019467L, '?DockToWindow@CDockablePane@@UAEHPAV1@KPBUtagRECT@@@Z')
(3318, 3586, 2021283288L, '?DoClick@COleControl@@QAEXXZ')
(3319, 3587, 2021626313L, '?DoContextSensitiveHelp@COleFrameHook@@QAEHH@Z')
(3320, 3588, 2021641667L, '?DoConvert@COleConvertDialog@@QAEHPAVCOleClientItem@@@Z')
(3321, 3589, 2021783241L, '?DocumentComplete@CHtmlView@@MAEXPAUIDispatch@@PAUtagVARIANT@@@Z')
(3322, 3590, 2019936589L, '?DoDataExchange@CMFCColorDialog@@MAEXPAVCDataExchange@@@Z')
(3323, 3591, 2019970262L, '?DoDataExchange@CMFCCustomColorsPropertyPage@@MAEXPAVCDataExchange@@@Z')
(3324, 3592, 2020159927L, '?DoDataExchange@CMFCImageEditorDialog@@MAEXPAVCDataExchange@@@Z')
(3325, 3593, 2020175194L, '?DoDataExchange@CMFCKeyMapDialog@@MAEXPAVCDataExchange@@@Z')
(3326, 3594, 2020257802L, '?DoDataExchange@CMFCMousePropertyPage@@MAEXPAVCDataExchange@@@Z')
(3327, 3595, 2020569804L, '?DoDataExchange@CMFCRibbonCustomizePropertyPage@@MAEXPAVCDataExchange@@@Z')
(3328, 3596, 2020620466L, '?DoDataExchange@CMFCRibbonKeyboardCustomizeDialog@@MAEXPAVCDataExchange@@@Z')
(3329, 3597, 2020737475L, '?DoDataExchange@CMFCStandardColorsPropertyPage@@MAEXPAVCDataExchange@@@Z')
(3330, 3598, 2020876886L, '?DoDataExchange@CMFCToolBarButtonCustomizeDialog@@MAEXPAVCDataExchange@@@Z')
(3331, 3599, 2020952691L, '?DoDataExchange@CMFCToolBarNameDialog@@MAEXPAVCDataExchange@@@Z')
(3332, 3600, 2020968800L, '?DoDataExchange@CMFCToolBarsCommandsPropertyPage@@MAEXPAVCDataExchange@@@Z')
(3333, 3601, 2020963793L, '?DoDataExchange@CMFCToolBarsKeyboardPropertyPage@@MAEXPAVCDataExchange@@@Z')
(3334, 3602, 2020970254L, '?DoDataExchange@CMFCToolBarsListPropertyPage@@MAEXPAVCDataExchange@@@Z')
(3335, 3603, 2020973807L, '?DoDataExchange@CMFCToolBarsMenuPropertyPage@@MAEXPAVCDataExchange@@@Z')
(3336, 3604, 2020978827L, '?DoDataExchange@CMFCToolBarsOptionsPropertyPage@@MAEXPAVCDataExchange@@@Z')
(3337, 3605, 2020982741L, '?DoDataExchange@CMFCToolBarsToolsPropertyPage@@MAEXPAVCDataExchange@@@Z')
(3338, 3606, 2021214878L, '?DoDataExchange@CMFCWindowsManagerDialog@@MAEXPAVCDataExchange@@@Z')
(3339, 3607, 2020303227L, '?DoDataExchange@COutlookOptionsDlg@@MAEXPAVCDataExchange@@@Z')
(3340, 3608, 2020711714L, '?DoDefault@CMFCShellListCtrl@@MAEXH@Z')
(3341, 3609, 2021667198L, '?DoDefaultPrinting@COleDocObjectItem@@SAJPAVCView@@PAUCPrintInfo@@@Z')
(3342, 3610, 2021632200L, '?DoDragDrop@COleClientItem@@QAEKPBUtagRECT@@VCPoint@@HK0@Z')
(3343, 3611, 2021678832L, '?DoDragDrop@COleDataSource@@QAEKKPBUtagRECT@@PAVCOleDropSource@@@Z')
(3344, 3612, 2021728787L, '?DoDragDrop@COleServerItem@@QAEKPBUtagRECT@@VCPoint@@HK0@Z')
(3345, 3613, 2021013043L, '?DoDrawHeaderSortArrow@CMFCVisualManager@@QAEXPAVCDC@@VCRect@@HH@Z')
(3346, 3614, 2021626348L, '?DoEnableModeless@COleFrameHook@@QAEHH@Z')
(3347, 3615, 2021226955L, '?DoEnableModeless@CWinApp@@SAXH@Z')
(3348, 3616, 2021668904L, '?DoEndPrinting@CDocObjectServer@@IAEXPAVCView@@PAVCDC@@PAUCPrintInfo@@@Z')
(3349, 3617, 2020339538L, '?DoesAllowDynInsertBefore@CPaneContainerManager@@UBEHXZ')
(3350, 3618, 2020346623L, '?DoesAllowDynInsertBefore@CPaneDivider@@UBEHXZ')
(3351, 3619, 2020339016L, '?DoesContainFloatingPane@CPaneContainerManager@@UAEHXZ')
(3352, 3620, 2020346593L, '?DoesContainFloatingPane@CPaneDivider@@UAEHXZ')
(3353, 3621, 2019845999L, '?DoFieldExchange@CDaoRecordset@@UAEXPAVCDaoFieldExchange@@@Z')
(3354, 3622, 2019845999L, '?DoFieldExchange@CRecordset@@UAEXPAVCFieldExchange@@@Z')
(3355, 3623, 2021496361L, '?DoFileSave@CDocument@@UAEHXZ')
(3356, 3624, 2021928199L, '?DoKeyboardSplit@CSplitterWnd@@UAEHXZ')
(3357, 3625, 2021227019L, '?DoMessageBox@CWinApp@@UAEHPB_WII@Z')
(3358, 3626, 2021441323L, '?DoModal@CColorDialog@@UAEHXZ')
(3359, 3627, 2021444022L, '?DoModal@CDialog@@UAEHXZ')
(3360, 3628, 2021453978L, '?DoModal@CFileDialog@@UAEHXZ')
(3361, 3629, 2021461183L, '?DoModal@CFontDialog@@UAEHXZ')
(3362, 3630, 2021644592L, '?DoModal@COleBusyDialog@@UAEHXZ')
(3363, 3631, 2021642182L, '?DoModal@COleChangeIconDialog@@UAEHXZ')
(3364, 3632, 2021646900L, '?DoModal@COleChangeSourceDialog@@UAEHXZ')
(3365, 3633, 2021641610L, '?DoModal@COleConvertDialog@@UAEHXZ')
(3366, 3634, 2021640035L, '?DoModal@COleInsertDialog@@QAEHK@Z')
(3367, 3635, 2021640946L, '?DoModal@COleInsertDialog@@UAEHXZ')
(3368, 3636, 2021642454L, '?DoModal@COleLinksDialog@@UAEHXZ')
(3369, 3637, 2021643225L, '?DoModal@COlePasteSpecialDialog@@UAEHXZ')
(3370, 3638, 2021645231L, '?DoModal@COlePropertiesDialog@@UAEHXZ')
(3371, 3639, 2021642726L, '?DoModal@COleUpdateDialog@@UAEHXZ')
(3372, 3640, 2021489753L, '?DoModal@CPageSetupDialog@@UAEHXZ')
(3373, 3641, 2021490667L, '?DoModal@CPrintDialog@@UAEHXZ')
(3374, 3642, 2021491704L, '?DoModal@CPrintDialogEx@@UAEHXZ')
(3375, 3643, 2021486086L, '?DoModal@CPropertySheet@@UAEHXZ')
(3376, 3644, 2020790307L, '?DoModal@CTaskDialog@@QAEHPAUHWND__@@@Z')
(3377, 3645, 2021822448L, '?DoMouseWheel@CScrollView@@QAEHIFVCPoint@@@Z')
(3378, 3646, 2021746661L, '?DoOleVerb@CCmdTarget@@QAEHJPAUtagMSG@@PAUHWND__@@PBUtagRECT@@@Z')
(3379, 3647, 2019855842L, '?DoPaint@CBasePane@@MAEXPAVCDC@@@Z')
(3380, 3648, 2021249580L, '?DoPaint@CControlBar@@UAEXPAVCDC@@@Z')
(3381, 3649, 2019845999L, '?DoPaint@CDockBar@@UAEXPAVCDC@@@Z')
(3382, 3650, 2019847619L, '?DoPaint@CMFCAutoHideBar@@MAEXPAVCDC@@@Z')
(3383, 3651, 2019927073L, '?DoPaint@CMFCColorBar@@MAEXPAVCDC@@@Z')
(3384, 3652, 2020285358L, '?DoPaint@CMFCOutlookBarPane@@MAEXPAVCDC@@@Z')
(3385, 3653, 2020385435L, '?DoPaint@CMFCPopupMenu@@MAEXPAVCDC@@@Z')
(3386, 3654, 2020631085L, '?DoPaint@CMFCRibbonMainPanel@@MAEXPAVCDC@@@Z')
(3387, 3655, 2020650153L, '?DoPaint@CMFCRibbonPanel@@MAEXPAVCDC@@@Z')
(3388, 3656, 2020683377L, '?DoPaint@CMFCRibbonPanelMenu@@MAEXPAVCDC@@@Z')
(3389, 3657, 2020675198L, '?DoPaint@CMFCRibbonPanelMenuBar@@UAEXPAVCDC@@@Z')
(3390, 3658, 2020746014L, '?DoPaint@CMFCStatusBar@@MAEXPAVCDC@@@Z')
(3391, 3659, 2020828984L, '?DoPaint@CMFCToolBar@@MAEXPAVCDC@@@Z')
(3392, 3660, 2021810024L, '?DoPaste@CRichEditView@@QAEXAAVCOleDataObject@@GPAX@Z')
(3393, 3661, 2021668811L, '?DoPrepareDC@CDocObjectServer@@IAEXPAVCView@@PAVCDC@@PAUCPrintInfo@@@Z')
(3394, 3662, 2021668783L, '?DoPreparePrinting@CDocObjectServer@@IAEHPAVCView@@PAUCPrintInfo@@@Z')
(3395, 3663, 2021799328L, '?DoPreparePrinting@CView@@QAEHPAUCPrintInfo@@@Z')
(3396, 3664, 2021668842L, '?DoPrint@CDocObjectServer@@IAEXPAVCView@@PAVCDC@@PAUCPrintInfo@@@Z')
(3397, 3665, 2021232192L, '?DoPrintDialog@CWinApp@@QAEHPAVCPrintDialog@@@Z')
(3398, 3666, 2021791647L, '?DoPrintPreview@CView@@QAEHIPAV1@PAUCRuntimeClass@@PAUCPrintPreviewState@@@Z')
(3399, 3667, 2021522649L, '?DoPromptFileName@CDocManager@@UAEHAAV?$CStringT@_WV?$StrTraitMFC_DLL@_WV?$ChTraitsCRT@_W@ATL@@@@@ATL@@IKHPAVCDocTemplate@@@Z')
(3400, 3668, 2021224637L, '?DoPromptFileName@CWinApp@@QAEHAAV?$CStringT@_WV?$StrTraitMFC_DLL@_WV?$ChTraitsCRT@_W@ATL@@@@@ATL@@IKHPAVCDocTemplate@@@Z')
(3401, 3669, 2021282391L, '?DoPropExchange@COleControl@@UAEXPAVCPropExchange@@@Z')
(3402, 3670, 2021496423L, '?DoSave@CDocument@@UAEHPB_WH@Z')
(3403, 3671, 2021661483L, '?DoSave@COleDocument@@UAEHPB_WH@Z')
(3404, 3672, 2021933714L, '?DoScroll@CSplitterWnd@@UAEHPAVCView@@IH@Z')
(3405, 3673, 2021934090L, '?DoScrollBy@CSplitterWnd@@UAEHPAVCView@@VCSize@@H@Z')
(3406, 3674, 2021277286L, '?DoSuperclassPaint@COleControl@@QAEXPAVCDC@@ABVCRect@@@Z')
(3407, 3675, 2021273958L, '?DoUpdate@CCmdUI@@QAEHPAVCCmdTarget@@H@Z')
(3408, 3676, 2020191724L, '?DoUpdate@CMFCMaskedEdit@@AAEHHHH@Z')
(3409, 3677, 2021673845L, '?DoUpdate@COleCmdUI@@UAEHPAVCCmdTarget@@H@Z')
(3410, 3678, 2021734171L, '?DoVerb@COleClientItem@@UAEHJPAVCView@@PAUtagMSG@@@Z')
(3411, 3679, 2021587074L, '?DoVerb@COleControlSite@@UAEJJPAUtagMSG@@@Z')
(3412, 3680, 2021672563L, '?DoVerb@XOleObject@CDocObjectServer@@UAGJJPAUtagMSG@@PAUIOleClientSite@@JPAUHWND__@@PBUtagRECT@@@Z')
(3413, 3681, 2021299963L, '?DoVerb@XOleObject@COleControl@@UAGJJPAUtagMSG@@PAUIOleClientSite@@JPAUHWND__@@PBUtagRECT@@@Z')
(3414, 3682, 2021723013L, '?DoVerb@XOleObject@COleServerDoc@@UAGJJPAUtagMSG@@PAUIOleClientSite@@JPAUHWND__@@PBUtagRECT@@@Z')
(3415, 3683, 2021730663L, '?DoVerb@XOleObject@COleServerItem@@UAGJJPAUtagMSG@@PAUIOleClientSite@@JPAUHWND__@@PBUtagRECT@@@Z')
(3416, 3684, 2021226411L, '?DoWaitCursor@CWinApp@@UAEXH@Z')
(3417, 3685, 2021797669L, '?DoZoom@CPreviewView@@IAEXIVCPoint@@@Z')
(3418, 3686, 2021906531L, '?DPtoHIMETRIC@CDC@@QBEXPAUtagSIZE@@@Z')
(3419, 3687, 2021901371L, '?DPtoLP@CDC@@QBEXPAUtagSIZE@@@Z')
(3420, 3688, 2021680846L, '?DragEnter@XDropTarget@COleDropTarget@@UAGJPAUIDataObject@@KU_POINTL@@PAK@Z')
(3421, 3689, 2021853995L, '?Dragging@CDragListBox@@UAEIVCPoint@@@Z')
(3422, 3690, 2021681388L, '?DragLeave@XDropTarget@COleDropTarget@@UAGJXZ')
(3423, 3691, 2021681132L, '?DragOver@XDropTarget@COleDropTarget@@UAGJKU_POINTL@@PAK@Z')
(3424, 3692, 2020252306L, '?Draw@CMenuImages@@SGXPAVCDC@@W4IMAGES_IDS@1@ABVCPoint@@W4IMAGE_STATE@1@ABVCSize@@@Z')
(3425, 3693, 2020252476L, '?Draw@CMenuImages@@SGXPAVCDC@@W4IMAGES_IDS@1@ABVCRect@@W4IMAGE_STATE@1@ABVCSize@@@Z')
(3426, 3694, 2019963313L, '?Draw@CMFCControlRenderer@@UAEXPAVCDC@@VCRect@@IE@Z')
(3427, 3695, 2019966123L, '?Draw@CMFCShadowRenderer@@UAEXPAVCDC@@VCRect@@IE@Z')
(3428, 3696, 2020917965L, '?Draw@CMFCToolBarImages@@QAEHPAVCDC@@HHHHHHHHE@Z')
(3429, 3697, 2021053606L, '?Draw@CMFCVisualManagerBitmapCacheItem@CMFCVisualManagerBitmapCache@@QAEXPAVCDC@@VCRect@@HE@Z')
(3430, 3698, 2021622465L, '?Draw@COleClientItem@@QAEHPAVCDC@@PBUtagRECT@@W4tagDVASPECT@@@Z')
(3431, 3699, 2021762308L, '?Draw@CRectTracker@@QBEXPAVCDC@@@Z')
(3432, 3701, 2021344336L, '?Draw@XViewObject@COleControl@@UAGJKJPAXPAUtagDVTARGETDEVICE@@PAUHDC__@@2PBU_RECTL@@3P6GHK@ZK@Z')
(3433, 3702, 2021908167L, '?Draw3dRect@CDC@@QAEXHHHHKK@Z')
(3434, 3703, 2021908114L, '?Draw3dRect@CDC@@QAEXPBUtagRECT@@KK@Z')
(3435, 3704, 2020759943L, '?Draw3DTab@CMFCTabCtrl@@MAEXPAVCDC@@PAVCMFCTabInfo@@H@Z')
(3436, 3705, 2021930256L, '?DrawAllSplitBars@CSplitterWnd@@MAEXPAVCDC@@HH@Z')
(3437, 3706, 2020098036L, '?DrawAlpha@CDrawingManager@@QAEXPAVCDC@@ABVCRect@@01@Z')
(3438, 3707, 2019999217L, '?DrawAnimation@CMFCDesktopAlertWnd@@IAEXPAVCDC@@@Z')
(3439, 3708, 2020631831L, '?DrawApplicationButton@CMFCRibbonMainPanel@@IAEXPAVCDC@@PAVCWnd@@@Z')
(3440, 3709, 2019905353L, '?DrawBorder@CMFCButton@@IAEXPAVCDC@@AAVCRect@@I@Z')
(3441, 3710, 2021249683L, '?DrawBorders@CControlBar@@UAEXPAVCDC@@AAVCRect@@@Z')
(3442, 3711, 2020518969L, '?DrawBottomText@CMFCRibbonButton@@QAE?AVCSize@@PAVCDC@@H@Z')
(3443, 3712, 2020831201L, '?DrawButton@CMFCToolBar@@MAEHPAVCDC@@PAVCMFCToolBarButton@@PAVCMFCToolBarImages@@HH@Z')
(3444, 3713, 2020019939L, '?DrawCaption@CDockablePane@@MAEXPAVCDC@@VCRect@@@Z')
(3445, 3714, 2020810863L, '?DrawCaption@CMFCTasksPane@@MAEXPAVCDC@@VCRect@@@Z')
(3446, 3716, 2021026856L, '?DrawCheckBox@CMFCBaseVisualManager@@UAEHPAVCDC@@VCRect@@HHHH@Z')
(3447, 3717, 2019979914L, '?DrawCheckBox@CMFCCustomizeMenuButton@@MAEXPAVCDC@@ABVCRect@@H@Z')
(3448, 3718, 2021026419L, '?DrawComboBorder@CMFCBaseVisualManager@@UAEHPAVCDC@@VCRect@@HHH@Z')
(3449, 3719, 2021026322L, '?DrawComboDropButton@CMFCBaseVisualManager@@UAEHPAVCDC@@VCRect@@HHH@Z')
(3450, 3720, 2021278660L, '?DrawContent@COleControl@@IAEXPAVCDC@@AAVCRect@@@Z')
(3451, 3721, 2019947459L, '?DrawCursor@CMFCColorPickerCtrl@@MAEXPAVCDC@@ABVCRect@@@Z')
(3452, 3722, 2021028940L, '?DrawCustomizeButton@CMFCVisualManagerOffice2003@@UAEXPAVCDC@@VCRect@@HW4AFX_BUTTON_STATE@CMFCVisualManager@@HH@Z')
(3453, 3723, 2020952021L, '?DrawDocumentIcon@CMFCToolBarMenuButton@@IAEXPAVCDC@@ABVCRect@@PAUHICON__@@@Z')
(3454, 3724, 2020399155L, '?DrawDragCursor@CMFCPopupMenuBar@@MAEXPAVCDC@@@Z')
(3455, 3725, 2020840608L, '?DrawDragCursor@CMFCToolBar@@MAEXPAVCDC@@@Z')
(3456, 3726, 2020076406L, '?DrawDragFrame@CMFCDragFrameImpl@@IAEXPBUtagRECT@@0HHH@Z')
(3457, 3727, 2021907075L, '?DrawDragRect@CDC@@QAEXPBUtagRECT@@UtagSIZE@@01PAVCBrush@@2@Z')
(3458, 3728, 2020091197L, '?DrawEllipse@CDrawingManager@@QAEXABVCRect@@KK@Z')
(3459, 3729, 2020920270L, '?DrawEx@CMFCToolBarImages@@QAEHPAVCDC@@VCRect@@HW4ImageAlignHorz@1@W4ImageAlignVert@1@1E@Z')
(3460, 3730, 2020386856L, '?DrawFade@CMFCPopupMenu@@MAEXPAVCDC@@@Z')
(3461, 3731, 2020760141L, '?DrawFlatTab@CMFCTabCtrl@@MAEXPAVCDC@@PAVCMFCTabInfo@@H@Z')
(3462, 3732, 2021509364L, '?DrawFocusRect@CDockContext@@QAEXH@Z')
(3463, 3733, 2019963441L, '?DrawFrame@CMFCControlRenderer@@UAEXPAVCDC@@VCRect@@IE@Z')
(3464, 3734, 2019966282L, '?DrawFrame@CMFCShadowRenderer@@UAEXPAVCDC@@VCRect@@IE@Z')
(3465, 3735, 2020075668L, '?DrawFrameTab@CMFCDragFrameImpl@@IAEXPAVCDockablePane@@H@Z')
(3466, 3736, 2020084065L, '?DrawGradientRing@CDrawingManager@@QAEHVCRect@@KKKHHK@Z')
(3467, 3737, 2021251020L, '?DrawGripper@CControlBar@@UAEXPAVCDC@@ABVCRect@@@Z')
(3468, 3738, 2019946465L, '?DrawHex@CMFCColorPickerCtrl@@IAEXPAVCDC@@@Z')
(3469, 3739, 2020514237L, '?DrawImage@CMFCRibbonButton@@UAEXPAVCDC@@W4RibbonImageType@CMFCRibbonBaseElement@@VCRect@@@Z')
(3470, 3740, 2020552910L, '?DrawImage@CMFCRibbonColorButton@@MAEXPAVCDC@@W4RibbonImageType@CMFCRibbonBaseElement@@VCRect@@@Z')
(3471, 3741, 2020646866L, '?DrawImage@CMFCRibbonDefaultPanelButton@@UAEXPAVCDC@@W4RibbonImageType@CMFCRibbonBaseElement@@VCRect@@@Z')
(3472, 3742, 2021879245L, '?DrawIndirect@CImageList@@QAEHPAU_IMAGELISTDRAWPARAMS@@@Z')
(3473, 3743, 2021879326L, '?DrawIndirect@CImageList@@QAEHPAVCDC@@HUtagPOINT@@UtagSIZE@@1IKKKKKK@Z')
(3474, 3744, 2021854299L, '?DrawInsert@CDragListBox@@UAEXH@Z')
(3475, 3745, 2021823697L, '?DrawItem@CBitmapButton@@MAEXPAUtagDRAWITEMSTRUCT@@@Z')
(3476, 3746, 2019845999L, '?DrawItem@CButton@@UAEXPAUtagDRAWITEMSTRUCT@@@Z')
(3477, 3747, 2021864361L, '?DrawItem@CCheckListBox@@UAEXPAUtagDRAWITEMSTRUCT@@@Z')
(3478, 3748, 2021915221L, '?DrawItem@CChevronOwnerDrawMenu@@UAEXPAUtagDRAWITEMSTRUCT@@@Z')
(3479, 3749, 2019845999L, '?DrawItem@CComboBox@@UAEXPAUtagDRAWITEMSTRUCT@@@Z')
(3480, 3750, 2019845999L, '?DrawItem@CHeaderCtrl@@UAEXPAUtagDRAWITEMSTRUCT@@@Z')
(3481, 3751, 2019845999L, '?DrawItem@CListBox@@UAEXPAUtagDRAWITEMSTRUCT@@@Z')
(3482, 3752, 2019845999L, '?DrawItem@CListCtrl@@UAEXPAUtagDRAWITEMSTRUCT@@@Z')
(3483, 3753, 2019845999L, '?DrawItem@CListView@@UAEXPAUtagDRAWITEMSTRUCT@@@Z')
(3484, 3754, 2019845999L, '?DrawItem@CMenu@@UAEXPAUtagDRAWITEMSTRUCT@@@Z')
(3485, 3755, 2019897894L, '?DrawItem@CMFCButton@@UAEXPAUtagDRAWITEMSTRUCT@@@Z')
(3486, 3756, 2019949782L, '?DrawItem@CMFCColorPickerCtrl@@MAEXPAUtagDRAWITEMSTRUCT@@@Z')
(3487, 3757, 2020113985L, '?DrawItem@CMFCFontComboBox@@UAEXPAUtagDRAWITEMSTRUCT@@@Z')
(3488, 3758, 2020163891L, '?DrawItem@CMFCImagePaintArea@@MAEXPAUtagDRAWITEMSTRUCT@@@Z')
(3489, 3759, 2020451587L, '?DrawItem@CMFCProperySheetListBox@@EAEXPAUtagDRAWITEMSTRUCT@@@Z')
(3490, 3760, 2020563019L, '?DrawItem@CMFCRibbonCommandsListBox@@MAEXPAUtagDRAWITEMSTRUCT@@@Z')
(3491, 3761, 2020881225L, '?DrawItem@CMFCToolBarButtonsListButton@@UAEXPAUtagDRAWITEMSTRUCT@@@Z')
(3492, 3762, 2020953370L, '?DrawItem@CMFCToolBarsCommandsListBox@@UAEXPAUtagDRAWITEMSTRUCT@@@Z')
(3493, 3763, 2019845999L, '?DrawItem@CStatic@@UAEXPAUtagDRAWITEMSTRUCT@@@Z')
(3494, 3764, 2019845999L, '?DrawItem@CStatusBar@@UAEXPAUtagDRAWITEMSTRUCT@@@Z')
(3495, 3765, 2019845999L, '?DrawItem@CStatusBarCtrl@@UAEXPAUtagDRAWITEMSTRUCT@@@Z')
(3496, 3766, 2019845999L, '?DrawItem@CTabCtrl@@UAEXPAUtagDRAWITEMSTRUCT@@@Z')
(3497, 3767, 2020087737L, '?DrawLine@CDrawingManager@@QAEXHHHHK@Z')
(3498, 3768, 2020088613L, '?DrawLineA@CDrawingManager@@QAEXNNNNK@Z')
(3499, 3769, 2019947237L, '?DrawLuminanceBar@CMFCColorPickerCtrl@@IAEXPAVCDC@@@Z')
(3500, 3770, 2020487588L, '?DrawMenuImage@CMFCRibbonBar@@QAEHPAVCDC@@PBVCMFCToolBarMenuButton@@ABVCRect@@@Z')
(3501, 3771, 2020945719L, '?DrawMenuItem@CMFCToolBarMenuButton@@IAEXPAVCDC@@ABVCRect@@PAVCMFCToolBarImages@@HHHH@Z')
(3502, 3772, 2021278877L, '?DrawMetafile@COleControl@@IAEXPAVCDC@@AAVCRect@@@Z')
(3503, 3773, 2019959213L, '?DrawNcArea@CMFCControlBarImpl@@IAEXXZ')
(3504, 3774, 2021095570L, '?DrawNcBtn@CMFCVisualManagerOffice2007@@IAEXPAVCDC@@ABVCRect@@IW4AFX_BUTTON_STATE@CMFCVisualManager@@HHH@Z')
(3505, 3775, 2021096807L, '?DrawNcCaption@CMFCVisualManagerOffice2007@@IAEXPAVCDC@@VCRect@@KKABV?$CStringT@_WV?$StrTraitMFC_DLL@_WV?$ChTraitsCRT@_W@ATL@@@@@ATL@@2PAUHICON__@@HHHABVCObList@@@Z')
(3506, 3776, 2021251103L, '?DrawNCGripper@CControlBar@@UAEXPAVCDC@@ABVCRect@@@Z')
(3507, 3777, 2021096033L, '?DrawNcText@CMFCVisualManagerOffice2007@@IAEXPAVCDC@@AAVCRect@@ABV?$CStringT@_WV?$StrTraitMFC_DLL@_WV?$ChTraitsCRT@_W@ATL@@@@@ATL@@2HHHHHHK@Z')
(3508, 3778, 2020207491L, '?DrawNewGroupRect@CMDIClientAreaWnd@@AAEXPBUtagRECT@@0@Z')
(3509, 3779, 2021250368L, '?DrawNonThemedGripper@CControlBar@@UAEHPAVCDC@@ABVCRect@@@Z')
(3510, 3781, 2020148450L, '?DrawParentBackground@AFX_GLOBAL_DATA@@QAEHPAVCWnd@@PAVCDC@@PAUtagRECT@@@Z')
(3511, 3782, 2019946607L, '?DrawPicker@CMFCColorPickerCtrl@@IAEXPAVCDC@@@Z')
(3512, 3783, 2020166964L, '?DrawPixel@CMFCImagePaintArea@@IAEXUtagPOINT@@@Z')
(3513, 3784, 2021025825L, '?DrawPushButton@CMFCBaseVisualManager@@UAEHPAVCDC@@VCRect@@PAVCMFCButton@@I@Z')
(3514, 3785, 2021027061L, '?DrawRadioButton@CMFCBaseVisualManager@@UAEHPAVCDC@@VCRect@@HHHH@Z')
(3515, 3786, 2020094220L, '?DrawRect@CDrawingManager@@QAEXABVCRect@@KK@Z')
(3516, 3787, 2020772553L, '?DrawResizeDragRect@CMFCTabCtrl@@MAEXAAVCRect@@0@Z')
(3517, 3788, 2020516395L, '?DrawRibbonText@CMFCRibbonButton@@UAEHPAVCDC@@ABV?$CStringT@_WV?$StrTraitMFC_DLL@_WV?$ChTraitsCRT@_W@ATL@@@@@ATL@@VCRect@@IK@Z')
(3518, 3789, 2020398357L, '?DrawSeparator@CMFCPopupMenuBar@@MAEXPAVCDC@@ABVCRect@@H@Z')
(3519, 3790, 2020851288L, '?DrawSeparator@CMFCToolBar@@MAEXPAVCDC@@ABVCRect@@H@Z')
(3520, 3791, 2021179673L, '?DrawSeparator@CMFCVisualManagerOffice2007@@IAEXPAVCDC@@ABVCRect@@AAVCPen@@2H@Z')
(3521, 3792, 2021101193L, '?DrawSeparator@CMFCVisualManagerOffice2007@@IAEXPAVCDC@@ABVCRect@@H@Z')
(3522, 3793, 2020086210L, '?DrawShadow@CDrawingManager@@QAEHVCRect@@HHHPAVCBitmap@@1KH@Z')
(3523, 3794, 2021854351L, '?DrawSingle@CDragListBox@@QAEXH@Z')
(3524, 3795, 2021026050L, '?DrawStatusBarProgress@CMFCBaseVisualManager@@UAEHPAVCDC@@PAVCMFCStatusBar@@VCRect@@HHKKKH@Z')
(3525, 3796, 2020298925L, '?DrawTabButton@CMFCOutlookBarTabCtrl@@IAEXAAVCDC@@HH@Z')
(3526, 3797, 2021435525L, '?DrawTextExW@CMetaFileDC@@UAEHPA_WHPAUtagRECT@@IPAUtagDRAWTEXTPARAMS@@@Z')
(3527, 3798, 2021439978L, '?DrawTextExW@CPreviewDC@@UAEHPA_WHPAUtagRECT@@IPAUtagDRAWTEXTPARAMS@@@Z')
(3528, 3799, 2020150184L, '?DrawTextOnGlass@AFX_GLOBAL_DATA@@QAEHPAXPAVCDC@@HHV?$CStringT@_WV?$StrTraitMFC_DLL@_WV?$ChTraitsCRT@_W@ATL@@@@@ATL@@VCRect@@KHK@Z')
(3529, 3800, 2021024595L, '?DrawTextOnGlass@CMFCVisualManager@@UAEHPAVCDC@@V?$CStringT@_WV?$StrTraitMFC_DLL@_WV?$ChTraitsCRT@_W@ATL@@@@@ATL@@VCRect@@KHK@Z')
(3530, 3801, 2021435344L, '?DrawTextW@CMetaFileDC@@UAEHPB_WHPAUtagRECT@@I@Z')
(3531, 3802, 2021439893L, '?DrawTextW@CPreviewDC@@UAEHPB_WHPAUtagRECT@@I@Z')
(3532, 3803, 2021754381L, '?DrawThemeBackground@CThemeHelper@@SAJPAXPAUHDC__@@HHPBUtagRECT@@2@Z')
(3533, 3804, 2021754136L, '?DrawThemeBackgroundFail@CThemeHelper@@CAJPAXPAUHDC__@@HHPBUtagRECT@@2@Z')
(3534, 3805, 2021250499L, '?DrawThemedGripper@CControlBar@@UAEHPAVCDC@@ABVCRect@@H@Z')
(3535, 3806, 2021754654L, '?DrawThemeParentBackground@CThemeHelper@@SAJPAUHWND__@@PAUHDC__@@PAUtagRECT@@@Z')
(3536, 3807, 2021754136L, '?DrawThemeParentBackgroundFail@CThemeHelper@@CAJPAUHWND__@@PAUHDC__@@PAUtagRECT@@@Z')
(3537, 3808, 2020991741L, '?DrawToolIcon@CUserTool@@QAEXPAVCDC@@ABVCRect@@@Z')
(3538, 3809, 2021763582L, '?DrawTrackerRect@CRectTracker@@UAEXPBUtagRECT@@PAVCWnd@@PAVCDC@@1@Z')
(3539, 3810, 2021053725L, '?DrawY@CMFCVisualManagerBitmapCacheItem@CMFCVisualManagerBitmapCache@@QAEXPAVCDC@@VCRect@@VCSize@@HE@Z')
(3540, 3811, 2021681516L, '?Drop@XDropTarget@COleDropTarget@@UAGJPAUIDataObject@@KU_POINTL@@PAK@Z')
(3541, 3812, 2020559419L, '?DropDownList@CMFCRibbonComboBox@@MAEXXZ')
(3542, 3813, 2020561185L, '?DropDownList@CMFCRibbonFontComboBox@@MAEXXZ')
(3543, 3814, 2020856801L, '?DropDownMenu@CMFCToolBar@@IAEHPAVCMFCToolBarButton@@@Z')
(3544, 3815, 2020106928L, '?DropDownToolbar@CMFCDropDownToolbarButton@@QAEHPAVCWnd@@@Z')
(3545, 3816, 2021854075L, '?Dropped@CDragListBox@@UAEXHVCPoint@@@Z')
(3546, 3817, 2021530578L, '?DumpAsHex@CDumpContext@@QAEAAV1@_J@Z')
(3547, 3818, 2021530578L, '?DumpAsHex@CDumpContext@@QAEAAV1@_K@Z')
(3548, 3819, 2021529950L, '?DumpAsHex@CDumpContext@@QAEAAV1@E@Z')
(3549, 3820, 2021530108L, '?DumpAsHex@CDumpContext@@QAEAAV1@G@Z')
(3550, 3821, 2021530341L, '?DumpAsHex@CDumpContext@@QAEAAV1@H@Z')
(3551, 3822, 2021530341L, '?DumpAsHex@CDumpContext@@QAEAAV1@I@Z')
(3552, 3823, 2021530341L, '?DumpAsHex@CDumpContext@@QAEAAV1@J@Z')
(3553, 3824, 2021530341L, '?DumpAsHex@CDumpContext@@QAEAAV1@K@Z')
(3554, 3825, 2021287222L, '?DUnadvise@XDataObject@COleControl@@UAGJK@Z')
(3555, 3826, 2021660125L, '?DUnadvise@XDataObject@COleDataSource@@UAGJK@Z')
(3556, 3827, 2021725307L, '?DUnadvise@XDataObject@COleServerDoc@@UAGJK@Z')
(3557, 3828, 2021731986L, '?DUnadvise@XDataObject@COleServerItem@@UAGJK@Z')
(3558, 3829, 2021532681L, '?Duplicate@CFile@@UBEPAV1@XZ')
(3559, 3830, 2021752326L, '?Duplicate@CInternetFile@@UBEPAVCFile@@XZ')
(3560, 3831, 2021752326L, '?Duplicate@CMemFile@@UBEPAVCFile@@XZ')
(3561, 3832, 2021712774L, '?Duplicate@COleStreamFile@@UBEPAVCFile@@XZ')
(3562, 3833, 2021752326L, '?Duplicate@CSocketFile@@UBEPAVCFile@@XZ')
(3563, 3834, 2021752326L, '?Duplicate@CStdioFile@@UBEPAVCFile@@XZ')
(3564, 3835, 2020496347L, '?DWMCompositionChanged@CMFCRibbonBar@@UAEXXZ')
(3565, 3836, 2020150080L, '?DwmDefWindowProc@AFX_GLOBAL_DATA@@QAEJPAUHWND__@@IIJ@Z')
(3566, 3837, 2020150043L, '?DwmExtendFrameIntoClientArea@AFX_GLOBAL_DATA@@QAEHPAUHWND__@@PAU_AFX_MARGINS@@@Z')
(3567, 3838, 2020150135L, '?DwmIsCompositionEnabled@AFX_GLOBAL_DATA@@QAEHXZ')
(3568, 3839, 2019525456L, '?dwStyleDefault@CEditView@@2KB')
(3569, 3840, 2021377181L, '?Edit@CDaoRecordset@@UAEXXZ')
(3570, 3841, 2021400960L, '?Edit@CRecordset@@UAEXXZ')
(3571, 3842, 2020436339L, '?EditItem@CMFCPropertyGridCtrl@@UAEHPAVCMFCPropertyGridProperty@@PAUtagPOINT@@@Z')
(3572, 3843, 2021206059L, '?EditItem@CVSListBox@@UAEHH@Z')
(3573, 3844, 2021309460L, '?EditProperty@XPropertyPage@COlePropertyPage@@UAGJJ@Z')
(3574, 3845, 2021803557L, '?EditStreamCallBack@CRichEditView@@SGKKPAEJPAJ@Z')
(3575, 3846, 2019844572L, '?Empty@?$CSimpleStringT@_W$00@ATL@@QAEXXZ')
(3576, 3847, 2021224248L, '?Empty@?$CSimpleStringT@D$00@ATL@@QAEXXZ')
(3577, 3848, 2021394879L, '?Empty@CDBException@@QAEXXZ')
(3578, 3849, 2021657372L, '?Empty@COleDataSource@@QAEXXZ')
(3579, 3850, 2021864172L, '?Enable@CCheckListBox@@QAEXHH@Z')
(3580, 3851, 2021273453L, '?Enable@CCmdUI@@UAEXH@Z')
(3581, 3852, 2019926779L, '?Enable@CMFCColorBarCmdUI@@UAEXH@Z')
(3582, 3853, 2020414171L, '?Enable@CMFCPropertyGridProperty@@QAEXH@Z')
(3583, 3854, 2020466580L, '?Enable@CMFCRibbonCmdUI@@UAEXH@Z')
(3584, 3855, 2020748762L, '?Enable@CMFCStatusBarCmdUI@@UAEXH@Z')
(3585, 3856, 2020814437L, '?Enable@CMFCTasksPaneToolBarCmdUI@@UAEXH@Z')
(3586, 3857, 2020836962L, '?Enable@CMFCToolBarCmdUI@@UAEXH@Z')
(3587, 3858, 2021673704L, '?Enable@COleCmdUI@@UAEXH@Z')
(3588, 3859, 2021261363L, '?Enable@CStatusCmdUI@@UAEXH@Z')
(3589, 3860, 2019926779L, '?Enable@CTestCmdUI@@UAEXH@Z')
(3590, 3861, 2021269530L, '?Enable@CToolCmdUI@@UAEXH@Z')
(3591, 3862, 2020149079L, '?EnableAccessibilitySupport@AFX_GLOBAL_DATA@@QAEXH@Z')
(3592, 3863, 2020771587L, '?EnableActiveTabCloseButton@CMFCTabCtrl@@QAEXH@Z')
(3593, 3864, 2021735756L, '?EnableAggregation@CCmdTarget@@QAEXXZ')
(3594, 3865, 2020300237L, '?EnableAnimation@CMFCOutlookBarTabCtrl@@SGXH@Z')
(3595, 3866, 2019892284L, '?EnableAutoColor@CMFCBaseTabCtrl@@QAEXH@Z')
(3596, 3867, 2020028338L, '?EnableAutoHidePanes@CDockingManager@@QAEHK@Z')
(3597, 3868, 2020135846L, '?EnableAutoHidePanes@CFrameWndEx@@QAEHK@Z')
(3598, 3869, 2020220495L, '?EnableAutoHidePanes@CMDIChildWndEx@@QAEHK@Z')
(3599, 3870, 2020232301L, '?EnableAutoHidePanes@CMDIFrameWndEx@@QAEHK@Z')
(3600, 3871, 2020269077L, '?EnableAutoHidePanes@COleCntrFrameWndEx@@QAEHK@Z')
(3601, 3872, 2020271774L, '?EnableAutoHidePanes@COleDocIPFrameWndEx@@QAEHK@Z')
(3602, 3873, 2020274481L, '?EnableAutoHidePanes@COleIPFrameWndEx@@QAEHK@Z')
(3603, 3874, 2019929637L, '?EnableAutomaticButton@CMFCColorBar@@QAEXPB_WKH@Z')
(3604, 3875, 2019934959L, '?EnableAutomaticButton@CMFCColorButton@@QAEXPB_WKH@Z')
(3605, 3876, 2019940327L, '?EnableAutomaticButton@CMFCColorMenuButton@@QAEXPB_WKH@Z')
(3606, 3877, 2020424438L, '?EnableAutomaticButton@CMFCPropertyGridColorProperty@@QAEXPB_WKH@Z')
(3607, 3878, 2020553834L, '?EnableAutomaticButton@CMFCRibbonColorButton@@QAEXPB_WKH0HH@Z')
(3608, 3879, 2021648140L, '?EnableAutomation@CCmdTarget@@QAEXXZ')
(3609, 3880, 2021405080L, '?EnableBookmarks@CRecordset@@IAEXXZ')
(3610, 3881, 2020109637L, '?EnableBrowseButton@CMFCEditBrowseCtrl@@QAEXHPB_W@Z')
(3611, 3882, 2021204344L, '?EnableBrowseButton@CVSListBoxBase@@QAEXH@Z')
(3612, 3883, 2020022595L, '?EnableButton@CDockablePane@@IAEXIH@Z')
(3613, 3884, 2019911690L, '?EnableButton@CMFCCaptionBar@@QAEXH@Z')
(3614, 3885, 2021204153L, '?EnableButton@CVSListBoxBase@@QAEHHH@Z')
(3615, 3886, 2020967942L, '?EnableCheck@CMFCToolBarsListCheckBox@@QAEXHH@Z')
(3616, 3887, 2021637055L, '?EnableConnections@CCmdTarget@@QAEXXZ')
(3617, 3888, 2020286546L, '?EnableContextMenuItems@CMFCOutlookBarPane@@MAEHPAVCMFCToolBarButton@@PAVCMenu@@@Z')
(3618, 3889, 2020405227L, '?EnableContextMenuItems@CMFCPopupMenuBar@@MAEHPAVCMFCToolBarButton@@PAVCMenu@@@Z')
(3619, 3890, 2020855286L, '?EnableContextMenuItems@CMFCToolBar@@MAEHPAVCMFCToolBarButton@@PAVCMenu@@@Z')
(3620, 3891, 2020879976L, '?EnableControls@CMFCToolBarButtonCustomizeDialog@@IAEXXZ')
(3621, 3892, 2020984427L, '?EnableControls@CMFCToolBarsToolsPropertyPage@@IAEXXZ')
(3622, 3893, 2020859625L, '?EnableCustomizeButton@CMFCToolBar@@QAEXHHABV?$CStringT@_WV?$StrTraitMFC_DLL@_WV?$ChTraitsCRT@_W@ATL@@@@@ATL@@H@Z')
(3623, 3894, 2020859852L, '?EnableCustomizeButton@CMFCToolBar@@QAEXHHIH@Z')
(3624, 3895, 2019893509L, '?EnableCustomToolTips@CMFCBaseTabCtrl@@QAEHH@Z')
(3625, 3896, 2020259363L, '?EnableDblClkControls@CMFCMousePropertyPage@@IAEXH@Z')
(3626, 3897, 2020432268L, '?EnableDescriptionArea@CMFCPropertyGridCtrl@@QAEXH@Z')
(3627, 3898, 2021257301L, '?EnableDocking@CControlBar@@QAEXK@Z')
(3628, 3899, 2020028100L, '?EnableDocking@CDockingManager@@QAEHK@Z')
(3629, 3900, 2021893987L, '?EnableDocking@CFrameWnd@@QAEXK@Z')
(3630, 3901, 2020135824L, '?EnableDocking@CFrameWndEx@@QAEHK@Z')
(3631, 3902, 2020220473L, '?EnableDocking@CMDIChildWndEx@@QAEHK@Z')
(3632, 3903, 2020232279L, '?EnableDocking@CMDIFrameWndEx@@QAEHK@Z')
(3633, 3904, 2020863685L, '?EnableDocking@CMFCToolBar@@UAEXK@Z')
(3634, 3905, 2020269055L, '?EnableDocking@COleCntrFrameWndEx@@QAEHK@Z')
(3635, 3906, 2020271752L, '?EnableDocking@COleDocIPFrameWndEx@@QAEHK@Z')
(3636, 3907, 2020274459L, '?EnableDocking@COleIPFrameWndEx@@QAEHK@Z')
(3637, 3908, 2019940462L, '?EnableDocumentColors@CMFCColorMenuButton@@QAEXPB_WH@Z')
(3638, 3909, 2021590582L, '?EnableDSC@COleControlSite@@UAEXXZ')
(3639, 3910, 2020111652L, '?EnableFileBrowseButton@CMFCEditBrowseCtrl@@QAEXPB_W0@Z')
(3640, 3911, 2020111761L, '?EnableFolderBrowseButton@CMFCEditBrowseCtrl@@QAEXXZ')
(3641, 3912, 2019904311L, '?EnableFullTextTooltip@CMFCButton@@QAEXH@Z')
(3642, 3913, 2020006141L, '?EnableGripper@CDockablePane@@UAEXH@Z')
(3643, 3914, 2020338837L, '?EnableGrippers@CPaneContainerManager@@UAEXH@Z')
(3644, 3915, 2020432075L, '?EnableHeaderCtrl@CMFCPropertyGridCtrl@@QAEXHPB_W0@Z')
(3645, 3916, 2020247704L, '?EnableHelpCombobox@CMFCMenuBar@@QAEXIPB_WH@Z')
(3646, 3917, 2020818210L, '?EnableHistoryMenuButtons@CMFCTasksPane@@QAEXH@Z')
(3647, 3918, 2020769930L, '?EnableInPlaceEdit@CMFCTabCtrl@@UAEXH@Z')
(3648, 3919, 2020497420L, '?EnableKeyTips@CMFCRibbonBar@@QAEXH@Z')
(3649, 3920, 2020859602L, '?EnableLargeIcons@CMFCToolBar@@QAEXH@Z')
(3650, 3922, 2020181969L, '?EnableMarkSortedColumn@CMFCListCtrl@@QAEXHH@Z')
(3651, 3923, 2020184820L, '?EnableMask@CMFCMaskedEdit@@QAEXPB_W0_W0@Z')
(3652, 3924, 2020195701L, '?EnableMDITabbedGroups@CMDIClientAreaWnd@@QAEXHABVCMDITabInfo@@@Z')
(3653, 3925, 2020231403L, '?EnableMDITabbedGroups@CMDIFrameWndEx@@QAEXHABVCMDITabInfo@@@Z')
(3654, 3926, 2020195452L, '?EnableMDITabs@CMDIClientAreaWnd@@QAEXHABVCMDITabInfo@@@Z')
(3655, 3927, 2020231425L, '?EnableMDITabs@CMDIFrameWndEx@@QAEXHHW4Location@CMFCBaseTabCtrl@@HW4Style@CMFCTabCtrl@@HH@Z')
(3656, 3928, 2019904241L, '?EnableMenuFont@CMFCButton@@QAEXHH@Z')
(3657, 3929, 2019953614L, '?EnableMenuItemImage@CCommandManager@@QAEXIHH@Z')
(3658, 3930, 2020388257L, '?EnableMenuLogo@CMFCPopupMenu@@QAEXHW4LOGO_LOCATION@1@@Z')
(3659, 3931, 2021466725L, '?EnableModeless@CBrowserControlSite@@MAGJH@Z')
(3660, 3932, 2021478652L, '?EnableModeless@CDHtmlDialog@@UAGJH@Z')
(3661, 3933, 2021226932L, '?EnableModeless@CWinApp@@QAEXH@Z')
(3662, 3934, 2021777691L, '?EnableModeless@XDocHostUIHandler@CHtmlControlSite@@UAGJH@Z')
(3663, 3935, 2021287521L, '?EnableModeless@XOleInPlaceActiveObject@COleControl@@UAGJH@Z')
(3664, 3936, 2021726947L, '?EnableModeless@XOleInPlaceActiveObject@COleServerDoc@@UAGJH@Z')
(3665, 3937, 2021630006L, '?EnableModeless@XOleInPlaceFrame@COleFrameHook@@UAGJH@Z')
(3666, 3938, 2021287521L, '?EnableModeless@XOleIPFrame@COleControlContainer@@UAGJH@Z')
(3667, 3939, 2020158494L, '?EnableMultipleSort@CMFCHeaderCtrl@@QAEXH@Z')
(3668, 3940, 2020181606L, '?EnableMultipleSort@CMFCListCtrl@@QAEXH@Z')
(3669, 3941, 2020817162L, '?EnableNavigationToolbar@CMFCTasksPane@@QAEXHIVCSize@@0@Z')
(3670, 3942, 2019929714L, '?EnableOtherButton@CMFCColorBar@@QAEXPB_WHH@Z')
(3671, 3943, 2019935016L, '?EnableOtherButton@CMFCColorButton@@QAEXPB_WHH@Z')
(3672, 3944, 2019940392L, '?EnableOtherButton@CMFCColorMenuButton@@QAEXPB_WHH@Z')
(3673, 3945, 2020424491L, '?EnableOtherButton@CMFCPropertyGridColorProperty@@QAEXPB_WHH@Z')
(3674, 3946, 2020554065L, '?EnableOtherButton@CMFCRibbonColorButton@@QAEXPB_W0@Z')
(3675, 3947, 2020460023L, '?EnablePageHeader@CMFCPropertySheet@@QAEXH@Z')
(3676, 3948, 2020050480L, '?EnablePaneContextMenu@CDockingManager@@QAEXHIABV?$CStringT@_WV?$StrTraitMFC_DLL@_WV?$ChTraitsCRT@_W@ATL@@@@@ATL@@H@Z')
(3677, 3949, 2020745767L, '?EnablePaneDoubleClick@CMFCStatusBar@@QAEXH@Z')
(3678, 3950, 2020745108L, '?EnablePaneProgressBar@CMFCStatusBar@@QAEXHJHKKK@Z')
(3679, 3951, 2020493448L, '?EnablePrintPreview@CMFCRibbonBar@@QAEXH@Z')
(3680, 3952, 2020394792L, '?EnableResize@CMFCPopupMenu@@QAEXVCSize@@@Z')
(3681, 3953, 2020935444L, '?EnableRTL@CMFCToolBarImages@@SGXH@Z')
(3682, 3954, 2021837113L, '?EnableScrollBarCtrl@CWnd@@QAEXHH@Z')
(3683, 3955, 2020300259L, '?EnableScrollButtons@CMFCOutlookBarTabCtrl@@QAEXHHH@Z')
(3684, 3956, 2020715554L, '?EnableShellContextMenu@CMFCShellListCtrl@@QAEXH@Z')
(3685, 3957, 2020225154L, '?EnableShellContextMenu@CMFCShellTreeCtrl@@QAEXH@Z')
(3686, 3958, 2021229159L, '?EnableShellOpen@CWinApp@@IAEXXZ')
(3687, 3959, 2021283996L, '?EnableSimpleFrame@COleControl@@QAEXXZ')
(3688, 3960, 2020574237L, '?EnableSpinButtons@CMFCRibbonEdit@@QAEXHH@Z')
(3689, 3961, 2020413781L, '?EnableSpinControl@CMFCPropertyGridProperty@@QAEXHHH@Z')
(3690, 3962, 2021485457L, '?EnableStackedTabs@CPropertySheet@@QAEXH@Z')
(3691, 3963, 2021551255L, '?EnableStatusCallback@CInternetSession@@QAEHH@Z')
(3692, 3964, 2020750761L, '?EnableTabAutoColor@CTabbedPane@@SGXH@Z')
(3693, 3965, 2019882883L, '?EnableTabDetach@CMFCBaseTabCtrl@@UAEHHH@Z')
(3694, 3966, 2020771381L, '?EnableTabDocumentsMenu@CMFCTabCtrl@@QAEXH@Z')
(3695, 3967, 2019940514L, '?EnableTearOff@CMFCColorMenuButton@@QAEXIHH@Z')
(3696, 3968, 2021209102L, '?EnableTearOffMenus@CWinAppEx@@QAEHPB_WII@Z')
(3697, 3969, 2020860021L, '?EnableTextLabels@CMFCToolBar@@QAEXH@Z')
(3698, 3970, 2020497356L, '?EnableToolTips@CMFCRibbonBar@@QAEXHH@Z')
(3699, 3971, 2021760261L, '?EnableToolTips@CWnd@@QAEHH@Z')
(3700, 3972, 2021760290L, '?EnableTrackingToolTips@CWnd@@QAEHH@Z')
(3701, 3973, 2021733140L, '?EnableTypeLib@CCmdTarget@@QAEXXZ')
(3702, 3974, 2020959781L, '?EnableUserDefinedToolbars@CMFCToolBarsCustomizeDialog@@QAEXH@Z')
(3703, 3975, 2021209000L, '?EnableUserTools@CWinAppEx@@QAEHIIIPAUCRuntimeClass@@II@Z')
(3704, 3976, 2020394867L, '?EnableVertResize@CMFCPopupMenu@@QAEXH@Z')
(3705, 3977, 2021590233L, '?EnableWindow@COleControlSite@@UAEHH@Z')
(3706, 3978, 2021920179L, '?EnableWindow@CWnd@@QAEHH@Z')
(3707, 3979, 2020230756L, '?EnableWindowsDialog@CMDIFrameWndEx@@QAEXIIHH@Z')
(3708, 3980, 2020230682L, '?EnableWindowsDialog@CMDIFrameWndEx@@QAEXIPB_WHH@Z')
(3709, 3981, 2019904542L, '?EnableWindowsTheming@CMFCButton@@SGXH@Z')
(3710, 3982, 2021700335L, '?EndBusyState@COleMessageFilter@@UAEXXZ')
(3711, 3983, 2021612426L, '?EndCallbacks@CAsyncMonikerFile@@IAEXXZ')
(3712, 3984, 2021691287L, '?EndDeferErrors@COleLinkingDoc@@QAEJJ@Z')
(3713, 3985, 2021444473L, '?EndDialog@CDialog@@QAEXH@Z')
(3714, 3986, 2021483997L, '?EndDialog@CPropertyPage@@QAEXH@Z')
(3715, 3987, 2021487944L, '?EndDialog@CPropertySheet@@QAEXH@Z')
(3716, 3988, 2021507526L, '?EndDrag@CDockContext@@QAEXXZ')
(3717, 3989, 2020076137L, '?EndDrawDragFrame@CMFCDragFrameImpl@@QAEXH@Z')
(3718, 3990, 2020917144L, '?EndDrawImage@CMFCToolBarImages@@QAEXAAUtagAFXDrawState@@@Z')
(3719, 3991, 2020436629L, '?EndEditItem@CMFCPropertyGridCtrl@@UAEHH@Z')
(3720, 3992, 2021846669L, '?EndModalLoop@CWnd@@UAEXH@Z')
(3721, 3993, 2021882036L, '?EndModalState@CFrameWnd@@UAEXXZ')
(3722, 3994, 2021557525L, '?EndRequest@CHttpFile@@QAEHKPAU_INTERNET_BUFFERSW@@K@Z')
(3723, 3995, 2021508733L, '?EndResize@CDockContext@@QAEXXZ')
(3724, 3996, 2021273215L, '?EndWaitCursor@CCmdTarget@@QAEXXZ')
(3725, 3997, 2021657189L, '?EnsureClipboardObject@COleDataObject@@QAEXXZ')
(3726, 3998, 2021235792L, '?EnsureSchemaMapExists@CArchive@@QAEXPAPAV?$CArray@W4LoadArrayObjType@CArchive@@ABW412@@@@Z')
(3727, 3999, 2021842319L, '?EnsureStdObj@CWnd@@UAEJXZ')
(3728, 4000, 2020451249L, '?EnsureVisible@CMFCOutlookBarPaneList@@AAEXH@Z')
(3729, 4001, 2020442027L, '?EnsureVisible@CMFCPropertyGridCtrl@@QAEXPAVCMFCPropertyGridProperty@@H@Z')
(3730, 4002, 2020535239L, '?EnsureVisible@CMFCRibbonCategory@@IAEXPAVCMFCRibbonButton@@@Z')
(3731, 4003, 2020767842L, '?EnsureVisible@CMFCTabCtrl@@UAEHH@Z')
(3732, 4004, 2020012345L, '?EnterDragMode@CDockablePane@@MAEXH@Z')
(3733, 4005, 2019885132L, '?EnterDragMode@CMFCBaseTabCtrl@@QAEXXZ')
(3734, 4006, 2020306204L, '?EnterDragMode@CPane@@MAEXH@Z')
(3735, 4007, 2020348499L, '?EnterDragMode@CPaneFrameWnd@@MAEXPAUHWND__@@@Z')
(3736, 4008, 2021673220L, '?EnumAdvise@XOleObject@CDocObjectServer@@UAGJPAPAUIEnumSTATDATA@@@Z')
(3737, 4009, 2021301255L, '?EnumAdvise@XOleObject@COleControl@@UAGJPAPAUIEnumSTATDATA@@@Z')
(3738, 4010, 2021724161L, '?EnumAdvise@XOleObject@COleServerDoc@@UAGJPAPAUIEnumSTATDATA@@@Z')
(3739, 4011, 2021732028L, '?EnumAdvise@XOleObject@COleServerItem@@UAGJPAPAUIEnumSTATDATA@@@Z')
(3740, 4012, 2021274595L, '?EnumCache@XOleCache@COleControl@@UAGJPAPAUIEnumSTATDATA@@@Z')
(3741, 4013, 2021307900L, '?EnumChildProc@COlePropertyPage@@KGHPAUHWND__@@J@Z')
(3742, 4014, 2021636653L, '?EnumConnectionPoints@COleConnPtContainer@@UAGJPAPAUIEnumConnectionPoints@@@Z')
(3743, 4015, 2021636017L, '?EnumConnections@XConnPt@CConnectionPoint@@UAGJPAPAUIEnumConnections@@@Z')
(3744, 4016, 2021307935L, '?EnumControls@COlePropertyPage@@KGHPAUHWND__@@J@Z')
(3745, 4017, 2021287264L, '?EnumDAdvise@XDataObject@COleControl@@UAGJPAPAUIEnumSTATDATA@@@Z')
(3746, 4018, 2021660138L, '?EnumDAdvise@XDataObject@COleDataSource@@UAGJPAPAUIEnumSTATDATA@@@Z')
(3747, 4019, 2021725426L, '?EnumDAdvise@XDataObject@COleServerDoc@@UAGJPAPAUIEnumSTATDATA@@@Z')
(3748, 4020, 2021732028L, '?EnumDAdvise@XDataObject@COleServerItem@@UAGJPAPAUIEnumSTATDATA@@@Z')
(3749, 4021, 2020906555L, '?EnumFamPrinterCallBackEx@CMFCToolBarFontComboBox@@KGHPAUtagENUMLOGFONTEXW@@PAUtagNEWTEXTMETRICEXW@@HPAX@Z')
(3750, 4022, 2020906477L, '?EnumFamScreenCallBackEx@CMFCToolBarFontComboBox@@KGHPAUtagENUMLOGFONTEXW@@PAUtagNEWTEXTMETRICEXW@@HPAX@Z')
(3751, 4023, 2021287094L, '?EnumFormatEtc@XDataObject@COleControl@@UAGJKPAPAUIEnumFORMATETC@@@Z')
(3752, 4024, 2021659899L, '?EnumFormatEtc@XDataObject@COleDataSource@@UAGJKPAPAUIEnumFORMATETC@@@Z')
(3753, 4025, 2021725057L, '?EnumFormatEtc@XDataObject@COleServerDoc@@UAGJKPAPAUIEnumFORMATETC@@@Z')
(3754, 4026, 2021731776L, '?EnumFormatEtc@XDataObject@COleServerItem@@UAGJKPAPAUIEnumFORMATETC@@@Z')
(3755, 4027, 2020711262L, '?EnumObjects@CMFCShellListCtrl@@MAEJPAUIShellFolder@@PAU_ITEMIDLIST@@@Z')
(3756, 4028, 2020718803L, '?EnumObjects@CMFCShellTreeCtrl@@MAEJPAU_TREEITEM@@PAUIShellFolder@@PAU_ITEMIDLIST@@@Z')
(3757, 4029, 2021574601L, '?EnumObjects@XOleContainer@COleControlContainer@@UAGJKPAPAUIEnumUnknown@@@Z')
(3758, 4030, 2021692249L, '?EnumObjects@XOleItemContainer@COleLinkingDoc@@UAGJKPAPAUIEnumUnknown@@@Z')
(3759, 4031, 2021746242L, '?EnumOleVerbs@CCmdTarget@@QAEHPAPAUIEnumOLEVERB@@@Z')
(3760, 4032, 2020908448L, '?EnumSizeCallBack@CMFCToolBarFontSizeComboBox@@KGHPAUtagLOGFONTW@@PAUtagNEWTEXTMETRICW@@HPAX@Z')
(3761, 4033, 2021672640L, '?EnumVerbs@XOleObject@CDocObjectServer@@UAGJPAPAUIEnumOLEVERB@@@Z')
(3762, 4034, 2021300391L, '?EnumVerbs@XOleObject@COleControl@@UAGJPAPAUIEnumOLEVERB@@@Z')
(3763, 4035, 2021723164L, '?EnumVerbs@XOleObject@COleServerDoc@@UAGJPAPAUIEnumOLEVERB@@@Z')
(3764, 4036, 2021730801L, '?EnumVerbs@XOleObject@COleServerItem@@UAGJPAPAUIEnumOLEVERB@@@Z')
(3765, 4037, 2021671762L, '?EnumViews@XOleDocument@CDocObjectServer@@UAGJPAPAUIEnumOleDocumentViews@@PAPAUIOleDocumentView@@@Z')
(3766, 4038, 2021248195L, '?EraseNonClient@CControlBar@@QAEXXZ')
(3767, 4039, 2021547600L, '?ErrnoToException@CFileException@@SGHH@Z')
(3768, 4040, 2021557088L, '?ErrorDlg@CHttpFile@@QAEKPAVCWnd@@KKPAPAX@Z')
(3769, 4041, 2021435716L, '?Escape@CMetaFileDC@@UAEHHHPBDPAX@Z')
(3770, 4042, 2021440097L, '?Escape@CPreviewDC@@UAEHHHPBDPAX@Z')
(3771, 4043, 2021327140L, '?ExchangeBlobProp@CArchivePropExchange@@UAEHPB_WPAPAXPAX@Z')
(3772, 4044, 2020272488L, '?ExchangeBlobProp@CAsyncPropExchange@@UAEHPB_WPAPAXPAX@Z')
(3773, 4045, 2021302730L, '?ExchangeBlobProp@CPropbagPropExchange@@UAEHPB_WPAPAXPAX@Z')
(3774, 4046, 2021332399L, '?ExchangeBlobProp@CPropsetPropExchange@@UAEHPB_WPAPAXPAX@Z')
(3775, 4047, 2021328430L, '?ExchangeBlobProp@CResetPropExchange@@UAEHPB_WPAPAXPAX@Z')
(3776, 4048, 2021326327L, '?ExchangeExtent@COleControl@@QAEHPAVCPropExchange@@@Z')
(3777, 4049, 2021328135L, '?ExchangeFontProp@CArchivePropExchange@@UAEHPB_WAAVCFontHolder@@PBUtagFONTDESC@@PAUIFontDisp@@@Z')
(3778, 4050, 2019919403L, '?ExchangeFontProp@CAsyncPropExchange@@UAEHPB_WAAVCFontHolder@@PBUtagFONTDESC@@PAUIFontDisp@@@Z')
(3779, 4051, 2021303023L, '?ExchangeFontProp@CPropbagPropExchange@@UAEHPB_WAAVCFontHolder@@PBUtagFONTDESC@@PAUIFontDisp@@@Z')
(3780, 4052, 2021334502L, '?ExchangeFontProp@CPropsetPropExchange@@UAEHPB_WAAVCFontHolder@@PBUtagFONTDESC@@PAUIFontDisp@@@Z')
(3781, 4053, 2021328535L, '?ExchangeFontProp@CResetPropExchange@@UAEHPB_WAAVCFontHolder@@PBUtagFONTDESC@@PAUIFontDisp@@@Z')
(3782, 4054, 2021327401L, '?ExchangePersistentProp@CArchivePropExchange@@UAEHPB_WPAPAUIUnknown@@ABU_GUID@@PAU2@@Z')
(3783, 4055, 2019919403L, '?ExchangePersistentProp@CAsyncPropExchange@@UAEHPB_WPAPAUIUnknown@@ABU_GUID@@PAU2@@Z')
(3784, 4056, 2021303276L, '?ExchangePersistentProp@CPropbagPropExchange@@UAEHPB_WPAPAUIUnknown@@ABU_GUID@@PAU2@@Z')
(3785, 4057, 2021334045L, '?ExchangePersistentProp@CPropsetPropExchange@@UAEHPB_WPAPAUIUnknown@@ABU_GUID@@PAU2@@Z')
(3786, 4058, 2021328483L, '?ExchangePersistentProp@CResetPropExchange@@UAEHPB_WPAPAUIUnknown@@ABU_GUID@@PAU2@@Z')
(3787, 4059, 2021326773L, '?ExchangeProp@CArchivePropExchange@@UAEHPB_WGPAXPBX@Z')
(3788, 4060, 2019919403L, '?ExchangeProp@CAsyncPropExchange@@UAEHPB_WGPAXPBX@Z')
(3789, 4061, 2021302183L, '?ExchangeProp@CPropbagPropExchange@@UAEHPB_WGPAXPBX@Z')
(3790, 4062, 2021331896L, '?ExchangeProp@CPropsetPropExchange@@UAEHPB_WGPAXPBX@Z')
(3791, 4063, 2021328400L, '?ExchangeProp@CResetPropExchange@@UAEHPB_WGPAXPBX@Z')
(3792, 4064, 2021318811L, '?ExchangeStockProps@COleControl@@QAEXPAVCPropExchange@@@Z')
(3793, 4065, 2021328603L, '?ExchangeVersion@CAsyncPropExchange@@UAEHAAKKH@Z')
(3794, 4066, 2021326640L, '?ExchangeVersion@CPropExchange@@UAEHAAKKH@Z')
(3795, 4067, 2021899045L, '?ExcludeClipRect@CDC@@QAEHHHHH@Z')
(3796, 4068, 2021899118L, '?ExcludeClipRect@CDC@@QAEHPBUtagRECT@@@Z')
(3797, 4069, 2020149311L, '?ExcludeTag@AFX_GLOBAL_DATA@@QAEHAAV?$CStringT@_WV?$StrTraitMFC_DLL@_WV?$ChTraitsCRT@_W@ATL@@@@@ATL@@PB_W0H@Z')
(3798, 4070, 2020775616L, '?ExcludeTag@CTagManager@@QAEHPB_WAAV?$CStringT@_WV?$StrTraitMFC_DLL@_WV?$ChTraitsCRT@_W@ATL@@@@@ATL@@H@Z')
(3799, 4071, 2021674941L, '?Exec@XOleCommandTarget@CDocObjectServer@@UAGJPBU_GUID@@KKPAUtagVARIANT@@1@Z')
(3800, 4072, 2021628689L, '?Exec@XOleCommandTarget@COleFrameHook@@UAGJPBU_GUID@@KKPAUtagVARIANT@@1@Z')
(3801, 4073, 2021665460L, '?ExecCommand@COleDocObjectItem@@QAEJKKPBU_GUID@@@Z')
(3802, 4074, 2021779950L, '?ExecFormsCommand@CHtmlView@@QAEJKPAUtagVARIANT@@0@Z')
(3803, 4075, 2020790482L, '?ExecHandler@CHtmlEditView@@UAEHI@Z')
(3804, 4076, 2021355775L, '?Execute@CDaoDatabase@@QAEXPB_WH@Z')
(3805, 4077, 2021366225L, '?Execute@CDaoQueryDef@@UAEXH@Z')
(3806, 4078, 2021845545L, '?ExecuteDlgInit@CWnd@@QAEHPAX@Z')
(3807, 4079, 2021845448L, '?ExecuteDlgInit@CWnd@@QAEHPB_W@Z')
(3808, 4080, 2021407962L, '?ExecuteSetPosUpdate@CRecordset@@IAEXXZ')
(3809, 4081, 2021395627L, '?ExecuteSQL@CDatabase@@QAEXPB_W@Z')
(3810, 4082, 2021408842L, '?ExecuteUpdateSQL@CRecordset@@IAEXXZ')
(3811, 4083, 2021779909L, '?ExecWB@CHtmlView@@QAEXW4OLECMDID@@W4OLECMDEXECOPT@@PAUtagVARIANT@@2@Z')
(3812, 4084, 2021881218L, '?ExitHelpMode@CFrameWnd@@UAEXXZ')
(3813, 4085, 2021296298L, '?ExitInstance@COleControlModule@@UAEHXZ')
(3814, 4086, 2021221604L, '?ExitInstance@CWinApp@@UAEHXZ')
(3815, 4087, 2021208242L, '?ExitInstance@CWinAppEx@@UAEHXZ')
(3816, 4088, 2021757005L, '?ExitInstance@CWinThread@@UAEHXZ')
(3817, 4089, 2020413417L, '?Expand@CMFCPropertyGridProperty@@QAEXH@Z')
(3818, 4090, 2020442354L, '?ExpandAll@CMFCPropertyGridCtrl@@QAEXH@Z')
(3819, 4091, 2020413551L, '?ExpandDeep@CMFCPropertyGridProperty@@IAEXH@Z')
(3820, 4092, 2020055390L, '?ExpandStretchedPanes@CDockingPanesRow@@QAEXXZ')
(3821, 4093, 2020055513L, '?ExpandStretchedPanesRect@CDockingPanesRow@@QAEXXZ')
(3822, 4094, 2020401309L, '?ExportToMenu@CMFCPopupMenuBar@@UBEPAUHMENU__@@XZ')
(3823, 4095, 2020107408L, '?ExportToMenuButton@CMFCDropDownToolbarButton@@UBEHAAVCMFCToolBarMenuButton@@@Z')
(3824, 4096, 2020874437L, '?ExportToMenuButton@CMFCToolBarButton@@UBEHAAVCMFCToolBarMenuButton@@@Z')
(3825, 4097, 2020892592L, '?ExportToMenuButton@CMFCToolBarComboBoxButton@@UBEHAAVCMFCToolBarMenuButton@@@Z')
(3826, 4098, 2020892592L, '?ExportToMenuButton@CMFCToolBarDateTimeCtrl@@UBEHAAVCMFCToolBarMenuButton@@@Z')
(3827, 4099, 2021143328L, '?ExtendMenuButton@CMFCVisualManagerOfficeXP@@MAEXPAVCMFCToolBarMenuButton@@AAVCRect@@@Z')
(3828, 4100, 2021735769L, '?ExternalAddRef@CCmdTarget@@QAEKXZ')
(3829, 4101, 2021736490L, '?ExternalDisconnect@CCmdTarget@@QAEXXZ')
(3830, 4102, 2021736291L, '?ExternalQueryInterface@CCmdTarget@@QAEKPBXPAPAX@Z')
(3831, 4103, 2021735882L, '?ExternalRelease@CCmdTarget@@QAEKXZ')
(3832, 4104, 2020925929L, '?ExtractIconW@CMFCToolBarImages@@QAEPAUHICON__@@H@Z')
(3833, 4105, 2021434713L, '?ExtTextOutW@CMetaFileDC@@UAEHHHIPBUtagRECT@@PB_WIPAH@Z')
(3834, 4106, 2021439330L, '?ExtTextOutW@CPreviewDC@@UAEHHHIPBUtagRECT@@PB_WIPAH@Z')
(3835, 4107, 2021445321L, '?Fail@CDataExchange@@QAEXXZ')
(3836, 4108, 2021603457L, '?FailedToDo@XNotifyDBEvents@COleControlSite@@UAGJKKQAUtagDBNOTIFYREASON@@@Z')
(3837, 4109, 2021406537L, '?FetchData@CRecordset@@QAEFGJPAK@Z')
(3838, 4110, 2020083587L, '?Fill4ColorsGradient@CDrawingManager@@QAEXVCRect@@KKKKHH@Z')
(3839, 4111, 2020961588L, '?FillAllCommandsList@CMFCToolBarsCustomizeDialog@@UBEXAAVCListBox@@@Z')
(3840, 4112, 2020083763L, '?FillAlpha@CDrawingManager@@QAEXABVCRect@@E@Z')
(3841, 4113, 2021234758L, '?FillBuffer@CArchive@@QAEXI@Z')
(3842, 4114, 2021376827L, '?FillCache@CDaoRecordset@@QAEXPAJPAVCOleVariant@@@Z')
(3843, 4115, 2020961064L, '?FillCategoriesComboBox@CMFCToolBarsCustomizeDialog@@QBEXAAVCComboBox@@H@Z')
(3844, 4116, 2020961326L, '?FillCategoriesListBox@CMFCToolBarsCustomizeDialog@@QBEXAAVCListBox@@H@Z')
(3845, 4117, 2021352071L, '?FillDatabaseInfo@CDaoWorkspace@@IAEXPAUDAODatabase@@AAUCDaoDatabaseInfo@@K@Z')
(3846, 4118, 2019876656L, '?FillDefaultTabsOrderArray@CBaseTabbedPane@@QAEXXZ')
(3847, 4119, 2020921191L, '?FillDitheredRect@CMFCToolBarImages@@SGXPAVCDC@@ABVCRect@@@Z')
(3848, 4120, 2021346726L, '?FillErrorInfo@CDaoException@@IAEXXZ')
(3849, 4121, 2020563654L, '?FillFromArray@CMFCRibbonCommandsListBox@@QAEXABV?$CArray@PAVCMFCRibbonBaseElement@@PAV1@@@HH@Z')
(3850, 4122, 2020563525L, '?FillFromCategory@CMFCRibbonCommandsListBox@@QAEXPAVCMFCRibbonCategory@@@Z')
(3851, 4123, 2020563879L, '?FillFromIDs@CMFCRibbonCommandsListBox@@QAEXABV?$CList@II@@H@Z')
(3852, 4124, 2020081833L, '?FillGradient@CDrawingManager@@QAEXVCRect@@KKHHH@Z')
(3853, 4125, 2020082456L, '?FillGradient2@CDrawingManager@@QAEXVCRect@@KKH@Z')
(3854, 4126, 2021461354L, '?FillInLogFont@CFontDialog@@QAEKABU_charformatw@@@Z')
(3855, 4127, 2019965326L, '?FillInterior@CMFCControlRenderer@@UAEXPAVCDC@@VCRect@@IE@Z')
(3856, 4128, 2019965081L, '?FillInterior@CMFCControlRenderer@@UAEXPAVCDC@@VCRect@@W4ImageAlignHorz@CMFCToolBarImages@@W4ImageAlignVert@5@IE@Z')
(3857, 4130, 2021759991L, '?FillInToolInfo@CToolTipCtrl@@QBEXAAUtagTOOLINFOW@@PAVCWnd@@I@Z')
(3858, 4131, 2020627825L, '?FillList@CMFCRibbonRecentFilesList@@QAEXXZ')
(3859, 4132, 2021573807L, '?FillListSitesOrWnds@COleControlContainer@@UAEHPAU_AFX_OCC_DIALOG_INFO@@@Z')
(3860, 4133, 2021819149L, '?FillOutsideRect@CScrollView@@QAEXPAVCDC@@PAVCBrush@@@Z')
(3861, 4134, 2021368278L, '?FillParameterInfo@CDaoQueryDef@@IAEXPAUDAOParameter@@AAUCDaoParameterInfo@@K@Z')
(3862, 4135, 2021358897L, '?FillQueryDefInfo@CDaoDatabase@@IAEXPAU_DAOQueryDef@@AAUCDaoQueryDefInfo@@K@Z')
(3863, 4136, 2021026490L, '?FillReBarPane@CMFCBaseVisualManager@@UAEXPAVCDC@@PAVCBasePane@@VCRect@@@Z')
(3864, 4137, 2021358041L, '?FillRelationInfo@CDaoDatabase@@IAEXPAU_DAORelation@@AAUCDaoRelationInfo@@K@Z')
(3865, 4138, 2021908015L, '?FillSolidRect@CDC@@QAEXHHHHK@Z')
(3866, 4139, 2021907943L, '?FillSolidRect@CDC@@QAEXPBUtagRECT@@K@Z')
(3867, 4140, 2020789643L, '?FillStruct@CTaskDialog@@AAEXAAU_TASKDIALOGCONFIG@@@Z')
(3868, 4141, 2021357497L, '?FillTableDefInfo@CDaoDatabase@@IAEXPAU_DAOTableDef@@AAUCDaoTableDefInfo@@K@Z')
(3869, 4142, 2021386738L, '?FillVariant@CDaoFieldExchange@@SGXPAXKPAPAVCOleVariant@@@Z')
(3870, 4143, 2020518242L, '?FillWindowList@CMFCRibbonButton@@IAEXXZ')
(3871, 4144, 2021216793L, '?FillWindowList@CMFCWindowsManagerDialog@@IAEXXZ')
(3872, 4145, 2021351758L, '?FillWorkspaceInfo@CDaoWorkspace@@IAEXPAUDAOWorkspace@@AAUCDaoWorkspaceInfo@@K@Z')
(3873, 4146, 2021467037L, '?FilterDataObject@CBrowserControlSite@@MAGJPAUIDataObject@@PAPAU2@@Z')
(3874, 4147, 2021478800L, '?FilterDataObject@CDHtmlDialog@@UAGJPAUIDataObject@@PAPAU2@@Z')
(3875, 4148, 2021778099L, '?FilterDataObject@XDocHostUIHandler@CHtmlControlSite@@UAGJPAUIDataObject@@PAPAU3@@Z')
(3876, 4149, 2021760474L, '?FilterToolTipMessage@CWnd@@QAEXPAUtagMSG@@@Z')
(3877, 4150, 2019871065L, '?Find@?$CStringT@_WV?$StrTraitMFC_DLL@_WV?$ChTraitsCRT@_W@ATL@@@@@ATL@@QBEH_WH@Z')
(3878, 4151, 2020132114L, '?Find@?$CStringT@_WV?$StrTraitMFC_DLL@_WV?$ChTraitsCRT@_W@ATL@@@@@ATL@@QBEHPB_WH@Z')
(3879, 4152, 2021949560L, '?Find@?$CStringT@DV?$StrTraitMFC_DLL@DV?$ChTraitsCRT@D@ATL@@@@@ATL@@QBEHDH@Z')
(3880, 4153, 2021949619L, '?Find@?$CStringT@DV?$StrTraitMFC_DLL@DV?$ChTraitsCRT@D@ATL@@@@@ATL@@QBEHPBDH@Z')
(3881, 4154, 2021375247L, '?Find@CDaoRecordset@@UAEHJPB_W@Z')
(3882, 4155, 2019865686L, '?Find@CMFCRibbonBaseElement@@UAEPAV1@PBV1@@Z')
(3883, 4156, 2020522599L, '?Find@CMFCRibbonButtonsGroup@@MAEPAVCMFCRibbonBaseElement@@PBV2@@Z')
(3884, 4157, 2021561718L, '?Find@CObList@@QBEPAU__POSITION@@PAVCObject@@PAU2@@Z')
(3885, 4158, 2021561718L, '?Find@CPtrList@@QBEPAU__POSITION@@PAXPAU2@@Z')
(3886, 4159, 2021563088L, '?Find@CStringList@@QBEPAU__POSITION@@PB_WPAU2@@Z')
(3887, 4160, 2020207131L, '?FindActiveTabWnd@CMDIClientAreaWnd@@QAEPAVCMFCTabCtrl@@XZ')
(3888, 4161, 2020207080L, '?FindActiveTabWndByActiveChild@CMDIClientAreaWnd@@QAEPAVCMFCTabCtrl@@XZ')
(3889, 4162, 2021813430L, '?FindAndSelect@CRichEditView@@QAEJKAAU_findtextexw@@@Z')
(3890, 4163, 2020280099L, '?FindAvailablePageID@CMFCOutlookBar@@IAEIXZ')
(3891, 4164, 2021256647L, '?FindBar@CDockBar@@QAEHPAVCControlBar@@H@Z')
(3892, 4165, 2019872785L, '?FindBarByTabNumber@CBaseTabbedPane@@UAEPAVCWnd@@HH@Z')
(3893, 4166, 2020022311L, '?FindButton@CDockablePane@@IBEPAVCMFCCaptionButton@@VCPoint@@@Z')
(3894, 4167, 2020360793L, '?FindButton@CPaneFrameWnd@@IBEPAVCMFCCaptionButton@@I@Z')
(3895, 4168, 2020360846L, '?FindButton@CPaneFrameWnd@@IBEPAVCMFCCaptionButton@@VCPoint@@@Z')
(3896, 4169, 2020022527L, '?FindButtonByHit@CDockablePane@@IBEPAVCMFCCaptionButton@@I@Z')
(3897, 4170, 2020485430L, '?FindByData@CMFCRibbonBar@@QBEPAVCMFCRibbonBaseElement@@KH@Z')
(3898, 4171, 2019865741L, '?FindByData@CMFCRibbonBaseElement@@UAEPAV1@K@Z')
(3899, 4172, 2020516229L, '?FindByData@CMFCRibbonButton@@MAEPAVCMFCRibbonBaseElement@@K@Z')
(3900, 4173, 2020522765L, '?FindByData@CMFCRibbonButtonsGroup@@MAEPAVCMFCRibbonBaseElement@@K@Z')
(3901, 4174, 2020532699L, '?FindByData@CMFCRibbonCategory@@QBEPAVCMFCRibbonBaseElement@@KH@Z')
(3902, 4175, 2020665241L, '?FindByData@CMFCRibbonPanel@@QBEPAVCMFCRibbonBaseElement@@K@Z')
(3903, 4176, 2020485268L, '?FindByID@CMFCRibbonBar@@QBEPAVCMFCRibbonBaseElement@@IHH@Z')
(3904, 4177, 2019865713L, '?FindByID@CMFCRibbonBaseElement@@UAEPAV1@I@Z')
(3905, 4178, 2020516130L, '?FindByID@CMFCRibbonButton@@MAEPAVCMFCRibbonBaseElement@@I@Z')
(3906, 4179, 2020522682L, '?FindByID@CMFCRibbonButtonsGroup@@MAEPAVCMFCRibbonBaseElement@@I@Z')
(3907, 4180, 2020532572L, '?FindByID@CMFCRibbonCategory@@QBEPAVCMFCRibbonBaseElement@@IH@Z')
(3908, 4181, 2020665140L, '?FindByID@CMFCRibbonPanel@@QBEPAVCMFCRibbonBaseElement@@I@Z')
(3909, 4182, 2020679727L, '?FindByOrigin@CMFCRibbonPanelMenuBar@@QBEPAVCMFCRibbonBaseElement@@PAV2@@Z')
(3910, 4183, 2019865769L, '?FindByOriginal@CMFCRibbonBaseElement@@UAEPAV1@PAV1@@Z')
(3911, 4184, 2020522848L, '?FindByOriginal@CMFCRibbonButtonsGroup@@MAEPAVCMFCRibbonBaseElement@@PAV2@@Z')
(3912, 4185, 2020474453L, '?FindCategoryIndexByData@CMFCRibbonBar@@QBEHK@Z')
(3913, 4186, 2021636924L, '?FindConnectionPoint@COleConnPtContainer@@UAGJABU_GUID@@PAPAUIConnectionPoint@@@Z')
(3914, 4187, 2020495445L, '?FindContextCaption@CMFCRibbonBar@@IBEPAVCMFCRibbonContextCaption@@I@Z')
(3915, 4188, 2020173446L, '?FindDefaultAccelerator@CKeyboardManager@@SGHIAAV?$CStringT@_WV?$StrTraitMFC_DLL@_WV?$ChTraitsCRT@_W@ATL@@@@@ATL@@PAVCFrameWnd@@H@Z')
(3916, 4189, 2020405703L, '?FindDestintationToolBar@CMFCPopupMenuBar@@QAEPAVCMFCToolBar@@VCPoint@@@Z')
(3917, 4190, 2021463602L, '?FindDHtmlEventEntry@CDHtmlEventSink@@QAEHPBUDHtmlEventMapEntry@@JPAPAUIHTMLElement@@@Z')
(3918, 4191, 2020030748L, '?FindDockSite@CDockingManager@@UAEPAVCDockSite@@KH@Z')
(3919, 4192, 2020031314L, '?FindDockSiteByPane@CDockingManager@@UAEPAVCDockSite@@PAVCPane@@@Z')
(3920, 4193, 2020245418L, '?FindDropIndex@CMFCMenuBar@@MBEHVCPoint@@AAVCRect@@@Z')
(3921, 4194, 2020399430L, '?FindDropIndex@CMFCPopupMenuBar@@MBEHVCPoint@@AAVCRect@@@Z')
(3922, 4195, 2020839722L, '?FindDropIndex@CMFCToolBar@@MBEHVCPoint@@AAVCRect@@@Z')
(3923, 4196, 2020694790L, '?FindElement@CMFCRibbonStatusBar@@QAEPAVCMFCRibbonBaseElement@@I@Z')
(3924, 4197, 2021536820L, '?FindFile@CFileFind@@UAEHPB_WK@Z')
(3925, 4198, 2021558524L, '?FindFile@CFtpFileFind@@UAEHPB_WK@Z')
(3926, 4199, 2021559399L, '?FindFile@CGopherFileFind@@UAEHAAVCGopherLocator@@PB_WK@Z')
(3927, 4200, 2021559311L, '?FindFile@CGopherFileFind@@UAEHPB_WK@Z')
(3928, 4201, 2021375193L, '?FindFirst@CDaoRecordset@@QAEHPB_W@Z')
(3929, 4202, 2020061965L, '?FindFirstVisiblePane@CDockingPanesRow@@IAEPAVCPane@@H@Z')
(3930, 4203, 2020364605L, '?FindFloatingPaneByID@CPaneFrameWnd@@SGPAVCBasePane@@I@Z')
(3931, 4204, 2021054632L, '?FindIndex@CMFCVisualManagerBitmapCache@@QBEHABVCSize@@@Z')
(3932, 4205, 2021563048L, '?FindIndex@CObList@@QBEPAU__POSITION@@H@Z')
(3933, 4206, 2021563048L, '?FindIndex@CPtrList@@QBEPAU__POSITION@@H@Z')
(3934, 4207, 2021563048L, '?FindIndex@CStringList@@QBEPAU__POSITION@@H@Z')
(3935, 4208, 2020558496L, '?FindItem@CMFCRibbonComboBox@@QBEHPB_W@Z')
(3936, 4209, 2020891920L, '?FindItem@CMFCToolBarComboBoxButton@@QBEHPB_W@Z')
(3937, 4210, 2021571375L, '?FindItem@COleControlContainer@@UBEPAVCOleControlSite@@I@Z')
(3938, 4211, 2020434355L, '?FindItemByData@CMFCPropertyGridCtrl@@QBEPAVCMFCPropertyGridProperty@@KH@Z')
(3939, 4212, 2021375220L, '?FindLast@CDaoRecordset@@QAEHPB_W@Z')
(3940, 4213, 2020245258L, '?FindMenuItemText@CMFCMenuBar@@KGHPAUHMENU__@@IAAV?$CStringT@_WV?$StrTraitMFC_DLL@_WV?$ChTraitsCRT@_W@ATL@@@@@ATL@@@Z')
(3941, 4214, 2020395779L, '?FindMenuWithConnectedFloaty@CMFCPopupMenu@@KGPAV1@XZ')
(3942, 4215, 2021375145L, '?FindNext@CDaoRecordset@@QAEHPB_W@Z')
(3943, 4216, 2021537823L, '?FindNextFileW@CFileFind@@UAEHXZ')
(3944, 4217, 2021558900L, '?FindNextFileW@CFtpFileFind@@UAEHXZ')
(3945, 4218, 2021559531L, '?FindNextFileW@CGopherFileFind@@UAEHXZ')
(3946, 4219, 2020068392L, '?FindNextVisibleRow@CDockSite@@IAEPAVCDockingPanesRow@@AAPAU__POSITION@@H@Z')
(3947, 4220, 2019989567L, '?FindOneOf@?$CStringT@_WV?$StrTraitMFC_DLL@_WV?$ChTraitsCRT@_W@ATL@@@@@ATL@@QBEHPB_W@Z')
(3948, 4221, 2021949682L, '?FindOneOf@?$CStringT@DV?$StrTraitMFC_DLL@DV?$ChTraitsCRT@D@ATL@@@@@ATL@@QBEHPBD@Z')
(3949, 4222, 2020459832L, '?FindPageIndexInList@CMFCPropertySheet@@IAEHPAVCPropertyPage@@@Z')
(3950, 4223, 2021797056L, '?FindPageRect@CPreviewView@@IAEHAAVCPoint@@AAI@Z')
(3951, 4224, 2020335020L, '?FindPane@CPaneContainerManager@@IAEIVCPoint@@PAPAVCPane@@AAPAU__POSITION@@@Z')
(3952, 4225, 2020335031L, '?FindPane@CPaneContainerManager@@IAEIVCRect@@PAPAVCPane@@AAPAU__POSITION@@@Z')
(3953, 4226, 2019872689L, '?FindPaneByID@CBaseTabbedPane@@UAEPAVCWnd@@I@Z')
(3954, 4227, 2020030359L, '?FindPaneByID@CDockingManager@@UAEPAVCBasePane@@IH@Z')
(3955, 4228, 2020073891L, '?FindPaneByID@CDockSite@@QAEPAVCPane@@I@Z')
(3956, 4229, 2020337984L, '?FindPaneContainer@CPaneContainerManager@@UAEPAVCPaneContainer@@PAVCDockablePane@@AAH@Z')
(3957, 4230, 2020346231L, '?FindPaneContainer@CPaneDivider@@QAEPAVCPaneContainer@@PAVCDockablePane@@AAH@Z')
(3958, 4231, 2020533091L, '?FindPanelWithElem@CMFCRibbonCategory@@QAEPAVCMFCRibbonPanel@@PBVCMFCRibbonBaseElement@@@Z')
(3959, 4232, 2021375169L, '?FindPrev@CDaoRecordset@@QAEHPB_W@Z')
(3960, 4233, 2020069487L, '?FindRowByRect@CDockSite@@IAEPAVCDockingPanesRow@@VCRect@@@Z')
(3961, 4234, 2020073672L, '?FindRowIndex@CDockSite@@QAEHPAVCDockingPanesRow@@@Z')
(3962, 4235, 2021475634L, '?FindSinkForObject@CDHtmlDialog@@IAEHPB_W@Z')
(3963, 4236, 2021921406L, '?FindSiteOrWnd@CWnd@@QBEPAU__POSITION@@PBUCOleControlSiteOrWnd@@@Z')
(3964, 4237, 2021921448L, '?FindSiteOrWndWithFocus@CWnd@@QBEPAU__POSITION@@XZ')
(3965, 4238, 2021405970L, '?FindSQLToken@CRecordset@@SGPB_WPB_W0@Z')
(3966, 4239, 2020381514L, '?FindSubItemByCommand@CMFCPopupMenu@@QBEPAVCMFCToolBarMenuButton@@I@Z')
(3967, 4240, 2020415047L, '?FindSubItemByData@CMFCPropertyGridProperty@@IBEPAV1@K@Z')
(3968, 4241, 2020515586L, '?FindSubItemIndexByID@CMFCRibbonButton@@QBEHI@Z')
(3969, 4242, 2020322020L, '?FindSubPaneContainer@CPaneContainer@@QAEPAV1@PBVCObject@@W4BC_FIND_CRITERIA@1@@Z')
(3970, 4243, 2020774088L, '?FindTab@CTabView@@QBEHPAUHWND__@@@Z')
(3971, 4244, 2020330075L, '?FindTabbedPane@CPaneContainer@@QAEPAVCDockablePane@@I@Z')
(3972, 4245, 2020337955L, '?FindTabbedPane@CPaneContainerManager@@QAEPAVCDockablePane@@I@Z')
(3973, 4246, 2020342427L, '?FindTabbedPane@CPaneDivider@@QAEPAVCDockablePane@@I@Z')
(3974, 4247, 2019887113L, '?FindTabInfo@CMFCBaseTabCtrl@@IAEHHPAPAVCMFCTabInfo@@@Z')
(3975, 4248, 2020297548L, '?FindTargetWnd@CMFCOutlookBarTabCtrl@@UAEPAVCWnd@@ABVCPoint@@@Z')
(3976, 4249, 2020763142L, '?FindTargetWnd@CMFCTabCtrl@@MAEPAVCWnd@@ABVCPoint@@@Z')
(3977, 4250, 2021812873L, '?FindTextSimple@CRichEditView@@QAEHPB_WHHH@Z')
(3978, 4251, 2021774261L, '?FindTextW@CEditView@@QAEHPB_WHH@Z')
(3979, 4252, 2021812797L, '?FindTextW@CRichEditView@@QAEHPB_WHHH@Z')
(3980, 4253, 2020994060L, '?FindTool@CUserToolsManager@@QBEPAVCUserTool@@I@Z')
(3981, 4254, 2021617676L, '?FinishCreate@COleClientItem@@MAEHJ@Z')
(3982, 4255, 2019893111L, '?FireChangeActiveTab@CMFCBaseTabCtrl@@UAEXH@Z')
(3983, 4256, 2019893225L, '?FireChangingActiveTab@CMFCBaseTabCtrl@@UAEHH@Z')
(3984, 4257, 2021291097L, '?FireError@COleControl@@QAEXJPB_WI@Z')
(3985, 4258, 2021288529L, '?FireEvent@COleControl@@QAAXJPAEZZ')
(3986, 4259, 2021603804L, '?FireEvent@XNotifyDBEvents@COleControlSite@@QAEJKKQAUtagDBNOTIFYREASON@@W4DSCSTATE@@@Z')
(3987, 4260, 2021288311L, '?FireEventV@COleControl@@IAEXJPAEPAD@Z')
(3988, 4261, 2021379709L, '?Fixup@CDaoRecordset@@IAEXXZ')
(3989, 4262, 2021410612L, '?Fixups@CRecordset@@QAEXXZ')
(3990, 4263, 2020030874L, '?FixupVirtualRects@CDockingManager@@UAEXXZ')
(3991, 4264, 2020059785L, '?FixupVirtualRects@CDockingPanesRow@@QAEX_NPAVCPane@@@Z')
(3992, 4265, 2020069974L, '?FixupVirtualRects@CDockSite@@UAEXXZ')
(3993, 4266, 2020152646L, '?FlipRect@CGlobalUtils@@QAEXAAVCRect@@H@Z')
(3994, 4267, 2021894440L, '?FloatControlBar@CFrameWnd@@QAEXPAVCControlBar@@VCPoint@@K@Z')
(3995, 4268, 2019873812L, '?FloatPane@CBaseTabbedPane@@MAEHVCRect@@W4AFX_DOCK_METHOD@@_N@Z')
(3996, 4269, 2020308274L, '?FloatPane@CPane@@UAEHVCRect@@W4AFX_DOCK_METHOD@@_N@Z')
(3997, 4270, 2019873320L, '?FloatTab@CBaseTabbedPane@@UAEHPAVCWnd@@HW4AFX_DOCK_METHOD@@H@Z')
(3998, 4271, 2020280217L, '?FloatTab@CMFCOutlookBar@@UAEHPAVCWnd@@HW4AFX_DOCK_METHOD@@H@Z')
(3999, 4272, 2020750306L, '?FloatTab@CTabbedPane@@UAEHPAVCWnd@@HW4AFX_DOCK_METHOD@@H@Z')
(4000, 4273, 2020168263L, '?FloodFill@CMFCImagePaintArea@@IAEXABVCPoint@@@Z')
(4001, 4274, 2021234633L, '?Flush@CArchive@@QAEXXZ')
(4002, 4275, 2021529666L, '?Flush@CDumpContext@@QAEXXZ')
(4003, 4276, 2021533626L, '?Flush@CFile@@UAEXXZ')
(4004, 4277, 2021552529L, '?Flush@CInternetFile@@UAEXXZ')
(4005, 4278, 2020276196L, '?Flush@CMemFile@@UAEXXZ')
(4006, 4279, 2021698978L, '?Flush@CMonikerFile@@UAEXXZ')
(4007, 4280, 2021713281L, '?Flush@COleStreamFile@@UAEXXZ')
(4008, 4281, 2020276196L, '?Flush@CSocketFile@@UAEXXZ')
(4009, 4282, 2021547061L, '?Flush@CStdioFile@@UAEXXZ')
(4010, 4283, 2021657531L, '?FlushClipboard@COleDataSource@@SGXXZ')
(4011, 4284, 2021401313L, '?FlushResultSet@CRecordset@@QAEHXZ')
(4012, 4285, 2020154619L, '?ForceAdjustLayout@CGlobalUtils@@QAEXPAVCDockingManager@@HH@Z')
(4013, 4286, 2020492021L, '?ForceRecalcLayout@CMFCRibbonBar@@QAEXXZ')
(4014, 4287, 2019844649L, '?Fork@?$CSimpleStringT@_W$00@ATL@@AAEXH@Z')
(4015, 4288, 2021223795L, '?Fork@?$CSimpleStringT@D$00@ATL@@AAEXH@Z')
(4016, 4289, 2020132180L, '?Format@?$CStringT@_WV?$StrTraitMFC_DLL@_WV?$ChTraitsCRT@_W@ATL@@@@@ATL@@QAAXIZZ')
(4017, 4290, 2019862779L, '?Format@?$CStringT@_WV?$StrTraitMFC_DLL@_WV?$ChTraitsCRT@_W@ATL@@@@@ATL@@QAAXPB_WZZ')
(4018, 4291, 2021954759L, '?Format@?$CStringT@DV?$StrTraitMFC_DLL@DV?$ChTraitsCRT@D@ATL@@@@@ATL@@QAAXIZZ')
(4019, 4292, 2021954864L, '?Format@?$CStringT@DV?$StrTraitMFC_DLL@DV?$ChTraitsCRT@D@ATL@@@@@ATL@@QAAXPBDZZ')
(4020, 4293, 2019843511L, '?Format@CMFCAcceleratorKey@@QBEXAAV?$CStringT@_WV?$StrTraitMFC_DLL@_WV?$ChTraitsCRT@_W@ATL@@@@@ATL@@@Z')
(4021, 4294, 2021742175L, '?Format@COleCurrency@@QBE?AV?$CStringT@_WV?$StrTraitMFC_DLL@_WV?$ChTraitsCRT@_W@ATL@@@@@ATL@@KK@Z')
(4022, 4295, 2020179721L, '?FormatItem@CMFCKeyMapDialog@@MBE?AV?$CStringT@_WV?$StrTraitMFC_DLL@_WV?$ChTraitsCRT@_W@ATL@@@@@ATL@@H@Z')
(4023, 4296, 2021955775L, '?FormatMessage@?$CStringT@_WV?$StrTraitMFC_DLL@_WV?$ChTraitsCRT@_W@ATL@@@@@ATL@@QAAXIZZ')
(4024, 4297, 2021955725L, '?FormatMessage@?$CStringT@_WV?$StrTraitMFC_DLL@_WV?$ChTraitsCRT@_W@ATL@@@@@ATL@@QAAXPB_WZZ')
(4025, 4298, 2021955023L, '?FormatMessage@?$CStringT@DV?$StrTraitMFC_DLL@DV?$ChTraitsCRT@D@ATL@@@@@ATL@@QAAXIZZ')
(4026, 4299, 2021955151L, '?FormatMessage@?$CStringT@DV?$StrTraitMFC_DLL@DV?$ChTraitsCRT@D@ATL@@@@@ATL@@QAAXPBDZZ')
(4027, 4300, 2021953955L, '?FormatMessageV@?$CStringT@_WV?$StrTraitMFC_DLL@_WV?$ChTraitsCRT@_W@ATL@@@@@ATL@@QAEXPB_WPAPAD@Z')
(4028, 4301, 2021951447L, '?FormatMessageV@?$CStringT@DV?$StrTraitMFC_DLL@DV?$ChTraitsCRT@D@ATL@@@@@ATL@@QAEXPBDPAPAD@Z')
(4029, 4302, 2021955775L, '?FormatMessageW@?$CStringT@_WV?$StrTraitMFC_DLL@_WV?$ChTraitsCRT@_W@ATL@@@@@ATL@@QAAXIZZ')
(4030, 4303, 2021955725L, '?FormatMessageW@?$CStringT@_WV?$StrTraitMFC_DLL@_WV?$ChTraitsCRT@_W@ATL@@@@@ATL@@QAAXPB_WZZ')
(4031, 4304, 2021955023L, '?FormatMessageW@?$CStringT@DV?$StrTraitMFC_DLL@DV?$ChTraitsCRT@D@ATL@@@@@ATL@@QAAXIZZ')
(4032, 4305, 2021955151L, '?FormatMessageW@?$CStringT@DV?$StrTraitMFC_DLL@DV?$ChTraitsCRT@D@ATL@@@@@ATL@@QAAXPBDZZ')
(4033, 4306, 2020424085L, '?FormatProperty@CMFCPropertyGridColorProperty@@UAE?AV?$CStringT@_WV?$StrTraitMFC_DLL@_WV?$ChTraitsCRT@_W@ATL@@@@@ATL@@XZ')
(4034, 4307, 2020426262L, '?FormatProperty@CMFCPropertyGridFontProperty@@UAE?AV?$CStringT@_WV?$StrTraitMFC_DLL@_WV?$ChTraitsCRT@_W@ATL@@@@@ATL@@XZ')
(4035, 4308, 2020415106L, '?FormatProperty@CMFCPropertyGridProperty@@UAE?AV?$CStringT@_WV?$StrTraitMFC_DLL@_WV?$ChTraitsCRT@_W@ATL@@@@@ATL@@XZ')
(4036, 4309, 2019862680L, '?FormatV@?$CStringT@_WV?$StrTraitMFC_DLL@_WV?$ChTraitsCRT@_W@ATL@@@@@ATL@@QAEXPB_WPAD@Z')
(4037, 4310, 2021951348L, '?FormatV@?$CStringT@DV?$StrTraitMFC_DLL@DV?$ChTraitsCRT@D@ATL@@@@@ATL@@QAEXPBDPAD@Z')
(4038, 4311, 2021293804L, '?ForwardActivationMsg@COleControl@@IAEXPAUtagMSG@@@Z')
(4039, 4312, 2020045300L, '?FrameFromPoint@CDockingManager@@UBEPAVCPaneFrameWnd@@VCPoint@@PAV2@H@Z')
(4040, 4313, 2020364672L, '?FrameFromPoint@CPaneFrameWnd@@SGPAV1@VCPoint@@HPAV1@H@Z')
(4041, 4314, 2021851030L, '?Free@CAfxStringMgr@@UAEXPAUCStringData@ATL@@@Z')
(4042, 4315, 2021396103L, '?Free@CDatabase@@IAEXXZ')
(4043, 4316, 2021548791L, '?Free@CFixedAlloc@@QAEXPAX@Z')
(4044, 4317, 2021548535L, '?Free@CFixedAllocNoSync@@QAEXPAX@Z')
(4045, 4318, 2021851030L, '?Free@CMemFile@@MAEXPAE@Z')
(4046, 4319, 2021542891L, '?Free@CSharedFile@@MAEXPAE@Z')
(4047, 4320, 2021548633L, '?FreeAll@CFixedAlloc@@QAEXXZ')
(4048, 4321, 2021548436L, '?FreeAll@CFixedAllocNoSync@@QAEXXZ')
(4049, 4322, 2021567400L, '?FreeAssoc@CMapPtrToPtr@@IAEXPAUCAssoc@1@@Z')
(4050, 4323, 2021567400L, '?FreeAssoc@CMapPtrToWord@@IAEXPAUCAssoc@1@@Z')
(4051, 4324, 2021564713L, '?FreeAssoc@CMapStringToOb@@IAEXPAUCAssoc@1@@Z')
(4052, 4325, 2021564713L, '?FreeAssoc@CMapStringToPtr@@IAEXPAUCAssoc@1@@Z')
(4053, 4326, 2021566157L, '?FreeAssoc@CMapStringToString@@IAEXPAVCAssoc@1@@Z')
(4054, 4327, 2021567400L, '?FreeAssoc@CMapWordToOb@@IAEXPAUCAssoc@1@@Z')
(4055, 4328, 2021567400L, '?FreeAssoc@CMapWordToPtr@@IAEXPAUCAssoc@1@@Z')
(4056, 4329, 2021379989L, '?FreeCache@CDaoRecordset@@IAEXXZ')
(4057, 4330, 2021411129L, '?FreeDataCache@CRecordset@@QAEXXZ')
(4058, 4331, 2021746924L, '?FreeDataChain@CPlex@@QAEXXZ')
(4059, 4332, 2021952173L, '?FreeExtra@?$CSimpleStringT@_W$00@ATL@@QAEXXZ')
(4060, 4333, 2021946764L, '?FreeExtra@?$CSimpleStringT@D$00@ATL@@QAEXXZ')
(4061, 4334, 2021239339L, '?FreeExtra@CByteArray@@QAEXXZ')
(4062, 4335, 2021240761L, '?FreeExtra@CDWordArray@@QAEXXZ')
(4063, 4336, 2021240761L, '?FreeExtra@CObArray@@QAEXXZ')
(4064, 4337, 2021240761L, '?FreeExtra@CPtrArray@@QAEXXZ')
(4065, 4338, 2021240761L, '?FreeExtra@CStringArray@@QAEXXZ')
(4066, 4339, 2021240761L, '?FreeExtra@CUIntArray@@QAEXXZ')
(4067, 4340, 2021243933L, '?FreeExtra@CWordArray@@QAEXXZ')
(4068, 4341, 2020717532L, '?FreeItem@CShellManager@@QAEXPAU_ITEMIDLIST@@@Z')
(4069, 4342, 2021560796L, '?FreeNode@CObList@@IAEXPAUCNode@1@@Z')
(4070, 4343, 2021560796L, '?FreeNode@CPtrList@@IAEXPAUCNode@1@@Z')
(4071, 4344, 2021562020L, '?FreeNode@CStringList@@IAEXPAUCNode@1@@Z')
(4072, 4345, 2020321006L, '?FreeReleasedPaneContainer@CPaneContainer@@IAEXXZ')
(4073, 4346, 2021404982L, '?FreeRowset@CRecordset@@IAEXXZ')
(4074, 4347, 2020820915L, '?FreeSlot@CThreadSlotData@@QAEXH@Z')
(4075, 4348, 2020789896L, '?FreeStruct@CTaskDialog@@AAEXAAU_TASKDIALOGCONFIG@@@Z')
(4076, 4349, 2021703955L, '?FreeValue@CProperty@@AAEXXZ')
(4077, 4350, 2021574588L, '?Freeze@XViewObject@COleControl@@UAGJKJPAXPAK@Z')
(4078, 4351, 2021572321L, '?FreezeAllEvents@COleControlContainer@@QAEXH@Z')
(4079, 4352, 2021588297L, '?FreezeEvents@COleControlSite@@QAEXH@Z')
(4080, 4353, 2021282989L, '?FreezeEvents@XOleControl@COleControl@@UAGJH@Z')
(4081, 4354, 2021633732L, '?FreezeLink@COleClientItem@@UAEHXZ')
(4082, 4355, 2021897028L, '?FromHandle@CDC@@SGPAV1@PAUHDC__@@@Z')
(4083, 4356, 2021902188L, '?FromHandle@CGdiObject@@SGPAV1@PAX@Z')
(4084, 4357, 2021908994L, '?FromHandle@CHandleMap@@QAEPAVCObject@@PAX@Z')
(4085, 4358, 2021861443L, '?FromHandle@CImageList@@SGPAV1@PAU_IMAGELIST@@@Z')
(4086, 4359, 2021914764L, '?FromHandle@CMenu@@SGPAV1@PAUHMENU__@@@Z')
(4087, 4360, 2021826920L, '?FromHandle@CWnd@@SGPAV1@PAUHWND__@@@Z')
(4088, 4361, 2021861468L, '?FromHandlePermanent@CImageList@@SGPAV1@PAU_IMAGELIST@@@Z')
(4089, 4362, 2021914789L, '?FromHandlePermanent@CMenu@@SGPAV1@PAUHMENU__@@@Z')
(4090, 4363, 2020846375L, '?FromHandlePermanent@CMFCToolBar@@SGPAV1@PAUHWND__@@@Z')
(4091, 4364, 2021826969L, '?FromHandlePermanent@CWnd@@SGPAV1@PAUHWND__@@@Z')
(4092, 4365, 2021648194L, '?FromIDispatch@CCmdTarget@@SGPAV1@PAUIDispatch@@@Z')
(4093, 4366, 2021233381L, '?FromName@CRuntimeClass@@SGPAU1@PB_W@Z')
(4094, 4367, 2021233216L, '?FromName@CRuntimeClass@@SGPAU1@PBD@Z')
(4095, 4368, 2019986034L, '?GenerateAutosaveFileName@CDataRecoveryHandler@@UBE?AV?$CStringT@_WV?$StrTraitMFC_DLL@_WV?$ChTraitsCRT@_W@ATL@@@@@ATL@@ABV23@@Z')
(4096, 4369, 2021054725L, '?Get@CMFCVisualManagerBitmapCache@@QAEPAVCMFCVisualManagerBitmapCacheItem@1@ABVCSize@@@Z')
(4097, 4370, 2021054780L, '?Get@CMFCVisualManagerBitmapCache@@QAEPAVCMFCVisualManagerBitmapCacheItem@1@H@Z')
(4098, 4371, 2021702479L, '?Get@CProperty@@QAEPAXPAK@Z')
(4099, 4372, 2021702466L, '?Get@CProperty@@QAEPAXXZ')
(4100, 4373, 2021704451L, '?Get@CPropertySection@@QAEPAXK@Z')
(4101, 4374, 2021704475L, '?Get@CPropertySection@@QAEPAXKPAK@Z')
(4102, 4375, 2021706949L, '?Get@CPropertySet@@QAEPAXU_GUID@@K@Z')
(4103, 4376, 2021706893L, '?Get@CPropertySet@@QAEPAXU_GUID@@KPAK@Z')
(4104, 4377, 2019861171L, '?get_accChild@CBasePane@@UAEJUtagVARIANT@@PAPAUIDispatch@@@Z')
(4105, 4378, 2020445449L, '?get_accChild@CMFCPropertyGridCtrl@@UAEJUtagVARIANT@@PAPAUIDispatch@@@Z')
(4106, 4379, 2021842408L, '?get_accChild@CWnd@@UAEJUtagVARIANT@@PAPAUIDispatch@@@Z')
(4107, 4380, 2021840414L, '?get_accChild@XAccessible@CWnd@@UAGJUtagVARIANT@@PAPAUIDispatch@@@Z')
(4108, 4381, 2020445416L, '?get_accChildCount@CBasePane@@UAEJPAJ@Z')
(4109, 4382, 2020445416L, '?get_accChildCount@CMFCPropertyGridCtrl@@UAEJPAJ@Z')
(4110, 4383, 2021842382L, '?get_accChildCount@CWnd@@UAEJPAJ@Z')
(4111, 4384, 2021840344L, '?get_accChildCount@XAccessible@CWnd@@UAGJPAJ@Z')
(4112, 4385, 2019862025L, '?get_accDefaultAction@CBasePane@@UAEJUtagVARIANT@@PAPA_W@Z')
(4113, 4386, 2021869395L, '?get_accDefaultAction@CCheckListBox@@MAEJUtagVARIANT@@PAPA_W@Z')
(4114, 4387, 2020446138L, '?get_accDefaultAction@CMFCPropertyGridCtrl@@UAEJUtagVARIANT@@PAPA_W@Z')
(4115, 4388, 2021842841L, '?get_accDefaultAction@CWnd@@UAEJUtagVARIANT@@PAPA_W@Z')
(4116, 4389, 2021841295L, '?get_accDefaultAction@XAccessible@CWnd@@UAGJUtagVARIANT@@PAPA_W@Z')
(4117, 4390, 2019861372L, '?get_accDescription@CBasePane@@UAEJUtagVARIANT@@PAPA_W@Z')
(4118, 4391, 2020445785L, '?get_accDescription@CMFCPropertyGridCtrl@@UAEJUtagVARIANT@@PAPA_W@Z')
(4119, 4392, 2021842534L, '?get_accDescription@CWnd@@UAEJUtagVARIANT@@PAPA_W@Z')
(4120, 4393, 2021840660L, '?get_accDescription@XAccessible@CWnd@@UAGJUtagVARIANT@@PAPA_W@Z')
(4121, 4394, 2019861856L, '?get_accFocus@CBasePane@@UAEJPAUtagVARIANT@@@Z')
(4122, 4395, 2019861856L, '?get_accFocus@CMFCPropertyGridCtrl@@UAEJPAUtagVARIANT@@@Z')
(4123, 4396, 2021842789L, '?get_accFocus@CWnd@@UAEJPAUtagVARIANT@@@Z')
(4124, 4397, 2021841155L, '?get_accFocus@XAccessible@CWnd@@UAGJPAUtagVARIANT@@@Z')
(4125, 4398, 2019861746L, '?get_accHelp@CBasePane@@UAEJUtagVARIANT@@PAPA_W@Z')
(4126, 4399, 2021478610L, '?get_accHelp@CMFCPropertyGridCtrl@@UAEJUtagVARIANT@@PAPA_W@Z')
(4127, 4400, 2021842660L, '?get_accHelp@CWnd@@UAEJUtagVARIANT@@PAPA_W@Z')
(4128, 4401, 2021840906L, '?get_accHelp@XAccessible@CWnd@@UAGJUtagVARIANT@@PAPA_W@Z')
(4129, 4402, 2020446127L, '?get_accHelpTopic@CBasePane@@UAEJPAPA_WUtagVARIANT@@PAJ@Z')
(4130, 4403, 2020446127L, '?get_accHelpTopic@CMFCPropertyGridCtrl@@UAEJPAPA_WUtagVARIANT@@PAJ@Z')
(4131, 4404, 2021842702L, '?get_accHelpTopic@CWnd@@UAEJPAPA_WUtagVARIANT@@PAJ@Z')
(4132, 4405, 2021840988L, '?get_accHelpTopic@XAccessible@CWnd@@UAGJPAPA_WUtagVARIANT@@PAJ@Z')
(4133, 4406, 2019861887L, '?get_accKeyboardShortcut@CBasePane@@UAEJUtagVARIANT@@PAPA_W@Z')
(4134, 4407, 2021478610L, '?get_accKeyboardShortcut@CMFCPropertyGridCtrl@@UAEJUtagVARIANT@@PAPA_W@Z')
(4135, 4408, 2021842747L, '?get_accKeyboardShortcut@CWnd@@UAEJUtagVARIANT@@PAPA_W@Z')
(4136, 4409, 2021841073L, '?get_accKeyboardShortcut@XAccessible@CWnd@@UAGJUtagVARIANT@@PAPA_W@Z')
(4137, 4410, 2019861220L, '?get_accName@CBasePane@@UAEJUtagVARIANT@@PAPA_W@Z')
(4138, 4411, 2020445485L, '?get_accName@CMFCPropertyGridCtrl@@UAEJUtagVARIANT@@PAPA_W@Z')
(4139, 4412, 2021269233L, '?get_accName@CToolBar@@UAEJUtagVARIANT@@PAPA_W@Z')
(4140, 4413, 2021842450L, '?get_accName@CWnd@@UAEJUtagVARIANT@@PAPA_W@Z')
(4141, 4414, 2021840496L, '?get_accName@XAccessible@CWnd@@UAGJUtagVARIANT@@PAPA_W@Z')
(4142, 4415, 2019861093L, '?get_accParent@CBasePane@@UAEJPAPAUIDispatch@@@Z')
(4143, 4416, 2021842356L, '?get_accParent@CWnd@@UAEJPAPAUIDispatch@@@Z')
(4144, 4417, 2021840274L, '?get_accParent@XAccessible@CWnd@@UAGJPAPAUIDispatch@@@Z')
(4145, 4418, 2019861524L, '?get_accRole@CBasePane@@UAEJUtagVARIANT@@PAU2@@Z')
(4146, 4419, 2021869301L, '?get_accRole@CCheckListBox@@MAEJUtagVARIANT@@PAU2@@Z')
(4147, 4420, 2020445930L, '?get_accRole@CMFCPropertyGridCtrl@@UAEJUtagVARIANT@@PAU2@@Z')
(4148, 4421, 2021842576L, '?get_accRole@CWnd@@UAEJUtagVARIANT@@PAU2@@Z')
(4149, 4422, 2021840742L, '?get_accRole@XAccessible@CWnd@@UAGJUtagVARIANT@@PAU3@@Z')
(4150, 4423, 2019861856L, '?get_accSelection@CBasePane@@UAEJPAUtagVARIANT@@@Z')
(4151, 4424, 2019861856L, '?get_accSelection@CMFCPropertyGridCtrl@@UAEJPAUtagVARIANT@@@Z')
(4152, 4425, 2021842815L, '?get_accSelection@CWnd@@UAEJPAUtagVARIANT@@@Z')
(4153, 4426, 2021841225L, '?get_accSelection@XAccessible@CWnd@@UAGJPAUtagVARIANT@@@Z')
(4154, 4427, 2019861644L, '?get_accState@CBasePane@@UAEJUtagVARIANT@@PAU2@@Z')
(4155, 4428, 2021869205L, '?get_accState@CCheckListBox@@MAEJUtagVARIANT@@PAU2@@Z')
(4156, 4429, 2020446001L, '?get_accState@CMFCPropertyGridCtrl@@UAEJUtagVARIANT@@PAU2@@Z')
(4157, 4430, 2021842618L, '?get_accState@CWnd@@UAEJUtagVARIANT@@PAU2@@Z')
(4158, 4431, 2021840824L, '?get_accState@XAccessible@CWnd@@UAGJUtagVARIANT@@PAU3@@Z')
(4159, 4432, 2019862488L, '?get_accValue@CBasePane@@UAEJUtagVARIANT@@PAPA_W@Z')
(4160, 4433, 2020445667L, '?get_accValue@CMFCPropertyGridCtrl@@UAEJUtagVARIANT@@PAPA_W@Z')
(4161, 4434, 2021842492L, '?get_accValue@CWnd@@UAEJUtagVARIANT@@PAPA_W@Z')
(4162, 4435, 2021840578L, '?get_accValue@XAccessible@CWnd@@UAGJUtagVARIANT@@PAPA_W@Z')
(4163, 4436, 2021374545L, '?GetAbsolutePosition@CDaoRecordset@@QAEJXZ')
(4164, 4437, 2021844138L, '?GetAccessibilityHitTest@CWnd@@QAEJJJPAUtagVARIANT@@@Z')
(4165, 4438, 2021843852L, '?GetAccessibilityLocation@CWnd@@QAEJUtagVARIANT@@PAJ111@Z')
(4166, 4439, 2021843493L, '?GetAccessibleChild@CWnd@@QAEJUtagVARIANT@@PAPAUIDispatch@@@Z')
(4167, 4440, 2021843463L, '?GetAccessibleChildCount@CWnd@@QAEJXZ')
(4168, 4441, 2021843614L, '?GetAccessibleName@CWnd@@QAEJUtagVARIANT@@PAPA_W@Z')
(4169, 4442, 2020994167L, '?GetActivationPolicy@COleControl@@UAEKXZ')
(4170, 4443, 2021297164L, '?GetActivationPolicy@XPointerInactive@COleControl@@UAGJPAK@Z')
(4171, 4444, 2021886473L, '?GetActiveDocument@CFrameWnd@@UAEPAVCDocument@@XZ')
(4172, 4445, 2021946421L, '?GetActiveFrame@CFrameWnd@@UAEPAV1@XZ')
(4173, 4446, 2021910521L, '?GetActiveFrame@CMDIFrameWnd@@UAEPAVCFrameWnd@@XZ')
(4174, 4447, 2021487274L, '?GetActiveIndex@CPropertySheet@@QBEHXZ')
(4175, 4448, 2021485993L, '?GetActivePage@CPropertySheet@@QBEPAVCPropertyPage@@XZ')
(4176, 4449, 2021934769L, '?GetActivePane@CSplitterWnd@@UAEPAVCWnd@@PAH0@Z')
(4177, 4450, 2021886325L, '?GetActiveView@CFrameWnd@@QBEPAVCView@@XZ')
(4178, 4451, 2021665391L, '?GetActiveView@COleDocObjectItem@@QBEPAUIOleDocumentView@@XZ')
(4179, 4452, 2020774222L, '?GetActiveView@CTabView@@QBEPAVCView@@XZ')
(4180, 4453, 2019882947L, '?GetActiveWnd@CMFCBaseTabCtrl@@UBEPAVCWnd@@XZ')
(4181, 4454, 2020687410L, '?GetActualWidth@CMFCRibbonQuickAccessToolBar@@IBEHXZ')
(4182, 4455, 2021877458L, '?GetAddress@CIPAddressCtrl@@QBEHAAE000@Z')
(4183, 4456, 2021780558L, '?GetAddressBar@CHtmlView@@QBEHXZ')
(4184, 4457, 2021345156L, '?GetAdvise@XViewObject@COleControl@@UAGJPAK0PAPAUIAdviseSink@@@Z')
(4185, 4458, 2019912813L, '?GetAlignment@CMFCCaptionBar@@QAE?AW4BarElementAlignment@1@W4BarElement@1@@Z')
(4186, 4459, 2019854536L, '?GetAlignRect@CAutoHideDockSite@@QBEXAAVCRect@@@Z')
(4187, 4460, 2019844992L, '?GetAllocLength@?$CSimpleStringT@_W$00@ATL@@QBEHXZ')
(4188, 4461, 2019844992L, '?GetAllocLength@?$CSimpleStringT@D$00@ATL@@QBEHXZ')
(4189, 4462, 2020861167L, '?GetAllToolbars@CMFCToolBar@@SGABVCObList@@XZ')
(4190, 4463, 2021322603L, '?GetAmbientDispatchDriver@COleControl@@IAEPAVCOleDispatchDriver@@XZ')
(4191, 4464, 2021571451L, '?GetAmbientProp@COleControlContainer@@UAEHPAVCOleControlSite@@JPAUtagVARIANT@@@Z')
(4192, 4465, 2021322688L, '?GetAmbientProperty@COleControl@@QAEHJGPAX@Z')
(4193, 4466, 2019944841L, '?GetAngleFromPoint@CMFCColorPickerCtrl@@IAEHHH@Z')
(4194, 4467, 2021320636L, '?GetAppearance@COleControl@@QAEFXZ')
(4195, 4468, 2021779536L, '?GetApplication@CHtmlView@@QBEPAUIDispatch@@XZ')
(4196, 4470, 2021564089L, '?GetAssocAt@CMapPtrToPtr@@IBEPAUCAssoc@1@PAXAAI1@Z')
(4197, 4471, 2021564089L, '?GetAssocAt@CMapPtrToWord@@IBEPAUCAssoc@1@PAXAAI1@Z')
(4198, 4472, 2021564778L, '?GetAssocAt@CMapStringToOb@@IBEPAUCAssoc@1@PB_WAAI1@Z')
(4199, 4473, 2021564778L, '?GetAssocAt@CMapStringToPtr@@IBEPAUCAssoc@1@PB_WAAI1@Z')
(4200, 4474, 2021566222L, '?GetAssocAt@CMapStringToString@@IBEPAVCAssoc@1@PB_WAAI1@Z')
(4201, 4475, 2021567878L, '?GetAssocAt@CMapWordToOb@@IBEPAUCAssoc@1@GAAI0@Z')
(4202, 4476, 2021567878L, '?GetAssocAt@CMapWordToPtr@@IBEPAUCAssoc@1@GAAI0@Z')
(4203, 4477, 2020330165L, '?GetAssociatedSiblingPaneIDs@CPaneContainer@@QAEPAV?$CList@II@@PAVCDockablePane@@@Z')
(4204, 4478, 2019844223L, '?GetAt@?$CSimpleStringT@_W$00@ATL@@QBE_WH@Z')
(4205, 4479, 2021946463L, '?GetAt@?$CSimpleStringT@D$00@ATL@@QBEDH@Z')
(4206, 4480, 2021555916L, '?GetAttribute@CGopherConnection@@QAEHAAVCGopherLocator@@V?$CStringT@_WV?$StrTraitMFC_DLL@_WV?$ChTraitsCRT@_W@ATL@@@@@ATL@@AAV34@@Z')
(4207, 4481, 2021360940L, '?GetAttributes@CDaoTableDef@@QAEJXZ')
(4208, 4482, 2021012215L, '?GetAutoHideButtonTextColor@CMFCVisualManager@@UAEKPAVCMFCAutoHideButton@@@Z')
(4209, 4483, 2021149488L, '?GetAutoHideButtonTextColor@CMFCVisualManagerOfficeXP@@MAEKPAVCMFCAutoHideButton@@@Z')
(4210, 4484, 2020310281L, '?GetAvailableExpandSize@CPane@@UBEHXZ')
(4211, 4485, 2020060072L, '?GetAvailableLength@CDockingPanesRow@@UBEHH@Z')
(4212, 4486, 2020064582L, '?GetAvailableLengthRect@CDockingPanesRow@@IAEHXZ')
(4213, 4487, 2020060584L, '?GetAvailableSpace@CDockingPanesRow@@UAEXAAVCRect@@@Z')
(4214, 4488, 2020335069L, '?GetAvailableSpace@CPaneContainerManager@@UBEXAAVCRect@@@Z')
(4215, 4489, 2020310475L, '?GetAvailableStretchSize@CPane@@UBEHXZ')
(4216, 4490, 2021886325L, '?GetBackColor@COleControl@@QAEKXZ')
(4217, 4491, 2019960203L, '?GetBackgroundFromParent@CMFCControlBarImpl@@IAEHPAVCDC@@@Z')
(4218, 4492, 2021515462L, '?GetBarInfo@CControlBar@@QAEXPAVCControlBarInfo@@@Z')
(4219, 4493, 2021515953L, '?GetBarInfo@CDockBar@@QAEXPAVCControlBarInfo@@@Z')
(4220, 4494, 2021048152L, '?GetBaseThemeColor@CMFCVisualManagerOffice2003@@UAEKXZ')
(4221, 4495, 2021525797L, '?GetBestTemplate@CDocManager@@UAEPAVCDocTemplate@@PB_W@Z')
(4222, 4496, 2021212545L, '?GetBinary@CWinAppEx@@QAEHPB_WPAPAEPAI@Z')
(4223, 4497, 2021614148L, '?GetBindInfo@CAsyncMonikerFile@@MBEKXZ')
(4224, 4498, 2020052624L, '?GetBlob@CBlobProperty@@QAEPAXXZ')
(4225, 4499, 2021374387L, '?GetBookmark@CDaoRecordset@@QAE?AVCOleVariant@@XZ')
(4226, 4500, 2021400399L, '?GetBookmark@CRecordset@@QAEXAAVCDBVariant@@@Z')
(4227, 4501, 2021629095L, '?GetBorder@XOleInPlaceFrame@COleFrameHook@@UAGJPAUtagRECT@@@Z')
(4228, 4502, 2021478652L, '?GetBorder@XOleIPFrame@COleControlContainer@@UAGJPAUtagRECT@@@Z')
(4229, 4503, 2020305916L, '?GetBorders@CPane@@QBE?AVCRect@@XZ')
(4230, 4504, 2021856046L, '?GetBorders@CStatusBarCtrl@@QBEHAAH00@Z')
(4231, 4505, 2020394446L, '?GetBorderSize@CMFCPopupMenu@@MBEHXZ')
(4232, 4506, 2020683504L, '?GetBorderSize@CMFCRibbonPanelMenu@@MBEHXZ')
(4233, 4507, 2021320889L, '?GetBorderStyle@COleControl@@QAEFXZ')
(4234, 4508, 2021597809L, '?GetBoundClientRow@CDataSourceControl@@QAEJXZ')
(4235, 4509, 2021409577L, '?GetBoundFieldIndex@CRecordset@@QAEHPAX@Z')
(4236, 4510, 2021409618L, '?GetBoundParamIndex@CRecordset@@QAEHPAX@Z')
(4237, 4511, 2019844976L, '?GetBuffer@?$CSimpleStringT@_W$00@ATL@@QAEPA_WH@Z')
(4238, 4512, 2019844123L, '?GetBuffer@?$CSimpleStringT@_W$00@ATL@@QAEPA_WXZ')
(4239, 4513, 2021224135L, '?GetBuffer@?$CSimpleStringT@D$00@ATL@@QAEPADH@Z')
(4240, 4514, 2021787220L, '?GetBuffer@?$CSimpleStringT@D$00@ATL@@QAEPADXZ')
(4241, 4515, 2021772761L, '?GetBufferLength@CEditView@@QBEIXZ')
(4242, 4516, 2019919403L, '?GetBufferPtr@CFile@@UAEIIIPAPAX0@Z')
(4243, 4517, 2021542381L, '?GetBufferPtr@CMemFile@@UAEIIIPAPAX0@Z')
(4244, 4518, 2021752336L, '?GetBufferPtr@CSocketFile@@UAEIIIPAPAX0@Z')
(4245, 4519, 2021235517L, '?GetBufferSetLength@?$CSimpleStringT@_W$00@ATL@@QAEPA_WH@Z')
(4246, 4520, 2021413961L, '?GetBufferSetLength@?$CSimpleStringT@D$00@ATL@@QAEPADH@Z')
(4247, 4521, 2021779363L, '?GetBusy@CHtmlView@@QBEHXZ')
(4248, 4522, 2020831355L, '?GetButton@CMFCToolBar@@QBEPAVCMFCToolBarButton@@H@Z')
(4249, 4523, 2020790165L, '?GetButtonData@CTaskDialog@@ABEPAU_TASKDIALOG_BUTTON@@ABV?$CArray@U_CTaskDialogButton@CTaskDialog@@ABU12@@@@Z')
(4250, 4524, 2021172657L, '?GetButtonExtraBorder@CMFCVisualManagerWindows@@UBE?AVCSize@@XZ')
(4251, 4525, 2021204214L, '?GetButtonID@CVSListBoxBase@@QBEIH@Z')
(4252, 4526, 2020790097L, '?GetButtonIndex@CTaskDialog@@ABEHHABV?$CArray@U_CTaskDialogButton@CTaskDialog@@ABU12@@@@Z')
(4253, 4527, 2020828648L, '?GetButtonInfo@CMFCToolBar@@QBEXHAAI0AAH@Z')
(4254, 4528, 2021267207L, '?GetButtonInfo@CToolBar@@QBEXHAAI0AAH@Z')
(4255, 4529, 2021204255L, '?GetButtonNum@CVSListBoxBase@@QBEHI@Z')
(4256, 4530, 2020828419L, '?GetButtonStyle@CMFCToolBar@@QBEIH@Z')
(4257, 4531, 2021264890L, '?GetButtonStyle@CToolBar@@QBEIH@Z')
(4258, 4532, 2020828869L, '?GetButtonText@CMFCToolBar@@QBE?AV?$CStringT@_WV?$StrTraitMFC_DLL@_WV?$ChTraitsCRT@_W@ATL@@@@@ATL@@H@Z')
(4259, 4533, 2020828939L, '?GetButtonText@CMFCToolBar@@QBEXHAAV?$CStringT@_WV?$StrTraitMFC_DLL@_WV?$ChTraitsCRT@_W@ATL@@@@@ATL@@@Z')
(4260, 4534, 2021267963L, '?GetButtonText@CToolBar@@QBE?AV?$CStringT@_WV?$StrTraitMFC_DLL@_WV?$ChTraitsCRT@_W@ATL@@@@@ATL@@H@Z')
(4261, 4535, 2021268038L, '?GetButtonText@CToolBar@@QBEXHAAV?$CStringT@_WV?$StrTraitMFC_DLL@_WV?$ChTraitsCRT@_W@ATL@@@@@ATL@@@Z')
(4262, 4536, 2020893013L, '?GetByCmd@CMFCToolBarComboBoxButton@@SGPAV1@IH@Z')
(4263, 4537, 2020899536L, '?GetByCmd@CMFCToolBarDateTimeCtrl@@SGPAV1@I@Z')
(4264, 4538, 2020903958L, '?GetByCmd@CMFCToolBarEditBoxButton@@SGPAV1@I@Z')
(4265, 4539, 2021742798L, '?GetByteArray@COleSafeArray@@QAEXAAVCByteArray@@@Z')
(4266, 4540, 2021742798L, '?GetByteArrayFromVariantArray@COleVariant@@QAEXAAVCByteArray@@@Z')
(4267, 4541, 2021707602L, '?GetByteOrder@CPropertySet@@QAEGXZ')
(4268, 4542, 2021621508L, '?GetCachedExtent@COleClientItem@@QAEHPAUtagSIZE@@W4tagDVASPECT@@@Z')
(4269, 4543, 2021657610L, '?GetCacheEntry@COleDataSource@@IAEPAUAFX_DATACACHE_ENTRY@@PAUtagFORMATETC@@W4tagDATADIR@@@Z')
(4270, 4544, 2021376763L, '?GetCacheSize@CDaoRecordset@@QAEJXZ')
(4271, 4545, 2021376617L, '?GetCacheStart@CDaoRecordset@@QAE?AVCOleVariant@@XZ')
(4272, 4546, 2021385140L, '?GetCacheValue@CDaoFieldExchange@@SGPAUCDaoFieldCache@@PAVCDaoRecordset@@PAX@Z')
(4273, 4547, 2021286983L, '?GetCanonicalFormatEtc@XDataObject@COleControl@@UAGJPAUtagFORMATETC@@0@Z')
(4274, 4548, 2021659707L, '?GetCanonicalFormatEtc@XDataObject@COleDataSource@@UAGJPAUtagFORMATETC@@0@Z')
(4275, 4549, 2021659707L, '?GetCanonicalFormatEtc@XDataObject@COleServerDoc@@UAGJPAUtagFORMATETC@@0@Z')
(4276, 4550, 2021659707L, '?GetCanonicalFormatEtc@XDataObject@COleServerItem@@UAGJPAUtagFORMATETC@@0@Z')
(4277, 4551, 2021006271L, '?GetCaptionBarTextColor@CMFCVisualManager@@UAEKPAVCMFCCaptionBar@@@Z')
(4278, 4552, 2021101235L, '?GetCaptionBarTextColor@CMFCVisualManagerOffice2007@@UAEKPAVCMFCCaptionBar@@@Z')
(4279, 4553, 2021172696L, '?GetCaptionButtonExtraBorder@CMFCVisualManagerWindows@@UBE?AVCSize@@XZ')
(4280, 4554, 2020363509L, '?GetCaptionButtonTotalWidth@CPaneFrameWnd@@IBEHXZ')
(4281, 4555, 2020025851L, '?GetCaptionHeight@CDockablePane@@UBEHXZ')
(4282, 4556, 2020000555L, '?GetCaptionHeight@CMFCDesktopAlertWnd@@UAEHXZ')
(4283, 4557, 2020128890L, '?GetCaptionRect@CFrameImpl@@IAE?AVCRect@@XZ')
(4284, 4558, 2019997423L, '?GetCaptionRect@CMFCDesktopAlertWnd@@IAE?AVCRect@@XZ')
(4285, 4559, 2020362846L, '?GetCaptionRect@CPaneFrameWnd@@UBEXAAVCRect@@@Z')
(4286, 4560, 2020662001L, '?GetCaptionSize@CMFCRibbonPanel@@IBE?AVCSize@@PAVCDC@@@Z')
(4287, 4561, 2020266246L, '?GetCaptionText@CMultiPaneFrameWnd@@UAE?AV?$CStringT@_WV?$StrTraitMFC_DLL@_WV?$ChTraitsCRT@_W@ATL@@@@@ATL@@XZ')
(4288, 4562, 2020359881L, '?GetCaptionText@CPaneFrameWnd@@UAE?AV?$CStringT@_WV?$StrTraitMFC_DLL@_WV?$ChTraitsCRT@_W@ATL@@@@@ATL@@XZ')
(4289, 4563, 2021297642L, '?GetCapture@COleControl@@QAEPAVCWnd@@XZ')
(4290, 4564, 2021592095L, '?GetCapture@XOleIPSite@COleControlSite@@UAGJXZ')
(4291, 4565, 2020474593L, '?GetCategory@CMFCRibbonBar@@QBEPAVCMFCRibbonCategory@@H@Z')
(4292, 4566, 2020474520L, '?GetCategoryCount@CMFCRibbonBar@@QBEHXZ')
(4293, 4567, 2020474635L, '?GetCategoryIndex@CMFCRibbonBar@@QBEHPAVCMFCRibbonCategory@@@Z')
(4294, 4568, 2021461872L, '?GetCharFormat@CFontDialog@@QBEXAAU_charformatw@@@Z')
(4295, 4569, 2021809020L, '?GetCharFormatSelection@CRichEditView@@QAEAAUCHARFORMAT2W@@XZ')
(4296, 4570, 2021864125L, '?GetCheck@CCheckListBox@@QAEHH@Z')
(4297, 4571, 2021878427L, '?GetCheck@CListCtrl@@QBEHH@Z')
(4298, 4572, 2021858645L, '?GetCheck@CTreeCtrl@@QBEHPAU_TREEITEM@@@Z')
(4299, 4573, 2021852449L, '?GetCheckedRadioButton@CWnd@@QBEHHH@Z')
(4300, 4574, 2020718496L, '?GetChildItems@CMFCShellTreeCtrl@@IAEHPAU_TREEITEM@@@Z')
(4301, 4575, 2021301626L, '?GetClassID@CBlobProperty@@UAGJPAU_GUID@@@Z')
(4302, 4576, 2021621410L, '?GetClassID@COleClientItem@@QBEXPAU_GUID@@@Z')
(4303, 4577, 2021707643L, '?GetClassID@CPropertySet@@QAE?AU_GUID@@XZ')
(4304, 4578, 2021691467L, '?GetClassID@XPersistFile@COleLinkingDoc@@UAGJPAU_GUID@@@Z')
(4305, 4579, 2021336126L, '?GetClassID@XPersistMemory@COleControl@@UAGJPAU_GUID@@@Z')
(4306, 4580, 2021303636L, '?GetClassID@XPersistPropertyBag@COleControl@@UAGJPAU_GUID@@@Z')
(4307, 4581, 2021334794L, '?GetClassID@XPersistStorage@COleControl@@UAGJPAU_GUID@@@Z')
(4308, 4582, 2021721085L, '?GetClassID@XPersistStorage@COleServerDoc@@UAGJPAU_GUID@@@Z')
(4309, 4583, 2021335730L, '?GetClassID@XPersistStreamInit@COleControl@@UAGJPAU_GUID@@@Z')
(4310, 4584, 2021274964L, '?GetClassInfoW@XProvideClassInfo@COleControl@@UAGJPAPAUITypeInfo@@@Z')
(4311, 4585, 2021534293L, '?GetClassObject@AFX_COM@@QAEJABU_GUID@@0PAPAX@Z')
(4312, 4586, 2021296545L, '?GetClientOffset@COleControl@@UBEXPAJ0@Z')
(4313, 4587, 2020054891L, '?GetClientRect@CDockingPanesRow@@QBEXAAVCRect@@@Z')
(4314, 4588, 2021298848L, '?GetClientRect@COleControl@@UBEXPAUtagRECT@@@Z')
(4315, 4589, 2021631734L, '?GetClientSite@COleClientItem@@MAEPAUIOleClientSite@@XZ')
(4316, 4590, 2021283203L, '?GetClientSite@COleControl@@QAEPAUIOleClientSite@@XZ')
(4317, 4591, 2021815692L, '?GetClientSite@CRichEditCntrItem@@UAEPAUIOleClientSite@@XZ')
(4318, 4592, 2021672108L, '?GetClientSite@XOleObject@CDocObjectServer@@UAGJPAPAUIOleClientSite@@@Z')
(4319, 4593, 2021299762L, '?GetClientSite@XOleObject@COleControl@@UAGJPAPAUIOleClientSite@@@Z')
(4320, 4594, 2021722123L, '?GetClientSite@XOleObject@COleServerDoc@@UAGJPAPAUIOleClientSite@@@Z')
(4321, 4595, 2021730246L, '?GetClientSite@XOleObject@COleServerItem@@UAGJPAPAUIOleClientSite@@@Z')
(4322, 4596, 2021632426L, '?GetClipboardData@COleClientItem@@QAEXPAVCOleDataSource@@HPAUtagPOINT@@PAUtagSIZE@@@Z')
(4323, 4597, 2021729013L, '?GetClipboardData@COleServerItem@@QAEXPAVCOleDataSource@@HPAUtagPOINT@@PAUtagSIZE@@@Z')
(4324, 4598, 2021593714L, '?GetClipboardData@CRichEditView@@MAEJPAU_charrange@@KPAUIDataObject@@PAPAU3@@Z')
(4325, 4599, 2021672498L, '?GetClipboardData@XOleObject@CDocObjectServer@@UAGJKPAPAUIDataObject@@@Z')
(4326, 4600, 2021787622L, '?GetClipboardData@XOleObject@COleControl@@UAGJKPAPAUIDataObject@@@Z')
(4327, 4601, 2021722876L, '?GetClipboardData@XOleObject@COleServerDoc@@UAGJKPAPAUIDataObject@@@Z')
(4328, 4602, 2021730538L, '?GetClipboardData@XOleObject@COleServerItem@@UAGJKPAPAUIDataObject@@@Z')
(4329, 4603, 2021805320L, '?GetClipboardData@XRichEditOleCallback@CRichEditView@@UAGJPAU_charrange@@KPAPAUIDataObject@@@Z')
(4330, 4604, 2020869022L, '?GetClipboardFormat@CMFCToolBarButton@@SGGXZ')
(4331, 4605, 2021657552L, '?GetClipboardOwner@COleDataSource@@SGPAV1@XZ')
(4332, 4606, 2021898945L, '?GetClipBox@CDC@@UBEHPAUtagRECT@@@Z')
(4333, 4607, 2021434501L, '?GetClipBox@CMetaFileDC@@UBEHPAUtagRECT@@@Z')
(4334, 4608, 2019953463L, '?GetCmdImage@CCommandManager@@QBEHIH@Z')
(4335, 4609, 2019953217L, '?GetCmdMgr@@YAPAVCCommandManager@@XZ')
(4336, 4610, 2020148837L, '?GetColor@AFX_GLOBAL_DATA@@QAEKH@Z')
(4337, 4611, 2019943403L, '?GetColorByCmdID@CMFCColorMenuButton@@SGKI@Z')
(4338, 4612, 2020556167L, '?GetColorByIndex@CMFCRibbonColorButton@@IBEKH@Z')
(4339, 4613, 2019924815L, '?GetColorGridSize@CMFCColorBar@@IBE?AVCSize@@H@Z')
(4340, 4614, 2021878077L, '?GetColorScheme@CReBarCtrl@@QBEHPAUtagCOLORSCHEME@@@Z')
(4341, 4615, 2021344907L, '?GetColorSet@XViewObject@COleControl@@UAGJKJPAXPAUtagDVTARGETDEVICE@@PAUHDC__@@PAPAUtagLOGPALETTE@@@Z')
(4342, 4616, 2021923577L, '?GetColumnInfo@CSplitterWnd@@QBEXHAAH0@Z')
(4343, 4617, 2021878197L, '?GetColumnOrderArray@CListCtrl@@QBEHPAHH@Z')
(4344, 4618, 2020158772L, '?GetColumnState@CMFCHeaderCtrl@@QBEHH@Z')
(4345, 4619, 2020564181L, '?GetCommand@CMFCRibbonCommandsListBox@@QBEPAVCMFCRibbonBaseElement@@H@Z')
(4346, 4620, 2020839589L, '?GetCommandButtons@CMFCToolBar@@SGHIAAVCObList@@@Z')
(4347, 4621, 2020564214L, '?GetCommandIndex@CMFCRibbonCommandsListBox@@QBEHI@Z')
(4348, 4622, 2020180377L, '?GetCommandKeys@CMFCKeyMapDialog@@MBE?AV?$CStringT@_WV?$StrTraitMFC_DLL@_WV?$ChTraitsCRT@_W@ATL@@@@@ATL@@I@Z')
(4349, 4623, 2021273379L, '?GetCommandMap@CCmdTarget@@MBEPBUAFX_OLECMDMAP@@XZ')
(4350, 4624, 2021667454L, '?GetCommandMap@COleDocObjectItem@@MBEPBUAFX_OLECMDMAP@@XZ')
(4351, 4625, 2020961786L, '?GetCommandName@CMFCToolBarsCustomizeDialog@@QBEPB_WI@Z')
(4352, 4626, 2020687301L, '?GetCommands@CMFCRibbonQuickAccessToolBar@@IAEXAAV?$CList@II@@@Z')
(4353, 4627, 2020631682L, '?GetCommandsFrame@CMFCRibbonMainPanel@@QBE?AVCRect@@XZ')
(4354, 4628, 2020407480L, '?GetCommandTarget@CMFCPopupMenuBar@@MBEPAVCWnd@@XZ')
(4355, 4629, 2020790088L, '?GetCommonButtonCount@CTaskDialog@@MBEHXZ')
(4356, 4630, 2020790023L, '?GetCommonButtonFlag@CTaskDialog@@MBEHH@Z')
(4357, 4631, 2020789953L, '?GetCommonButtonId@CTaskDialog@@MBEHH@Z')
(4358, 4632, 2020511224L, '?GetCompactSize@CMFCRibbonButton@@UAE?AVCSize@@PAVCDC@@@Z')
(4359, 4633, 2020573903L, '?GetCompactSize@CMFCRibbonEdit@@UAE?AVCSize@@PAVCDC@@@Z')
(4360, 4634, 2020638969L, '?GetCompactSize@CMFCRibbonGallery@@UAE?AVCSize@@PAVCDC@@@Z')
(4361, 4635, 2020635602L, '?GetCompactSize@CMFCRibbonGalleryIcon@@MAE?AVCSize@@PAVCDC@@@Z')
(4362, 4636, 2020635602L, '?GetCompactSize@CMFCRibbonLinkCtrl@@UAE?AVCSize@@PAVCDC@@@Z')
(4363, 4637, 2021353921L, '?GetConnect@CDaoDatabase@@QAE?AV?$CStringT@_WV?$StrTraitMFC_DLL@_WV?$ChTraitsCRT@_W@ATL@@@@@ATL@@XZ')
(4364, 4638, 2021365748L, '?GetConnect@CDaoQueryDef@@QAE?AV?$CStringT@_WV?$StrTraitMFC_DLL@_WV?$ChTraitsCRT@_W@ATL@@@@@ATL@@XZ')
(4365, 4639, 2021360723L, '?GetConnect@CDaoTableDef@@QAE?AV?$CStringT@_WV?$StrTraitMFC_DLL@_WV?$ChTraitsCRT@_W@ATL@@@@@ATL@@XZ')
(4366, 4640, 2021397422L, '?GetConnectInfo@CDatabase@@IAEXXZ')
(4367, 4641, 2021634887L, '?GetConnectionCount@CConnectionPoint@@QAEHXZ')
(4368, 4642, 2020790482L, '?GetConnectionHook@CCmdTarget@@MAEPAUIConnectionPoint@@ABU_GUID@@@Z')
(4369, 4643, 2021274789L, '?GetConnectionHook@COleControl@@MAEPAUIConnectionPoint@@ABU_GUID@@@Z')
(4370, 4644, 2021635170L, '?GetConnectionInterface@XConnPt@CConnectionPoint@@UAGJPAU_GUID@@@Z')
(4371, 4645, 2021273368L, '?GetConnectionMap@CCmdTarget@@MBEPBUAFX_CONNECTIONMAP@@XZ')
(4372, 4646, 2021274778L, '?GetConnectionMap@COleControl@@MBEPBUAFX_CONNECTIONMAP@@XZ')
(4373, 4647, 2021635210L, '?GetConnectionPointContainer@XConnPt@CConnectionPoint@@UAGJPAPAUIConnectionPointContainer@@@Z')
(4374, 4648, 2021634741L, '?GetConnections@CConnectionPoint@@QAEPBVCPtrArray@@XZ')
(4375, 4649, 2021634776L, '?GetContainer@CConnectionPoint@@UAEPAUIConnectionPointContainer@@XZ')
(4376, 4650, 2021779616L, '?GetContainer@CHtmlView@@QBEPAUIDispatch@@XZ')
(4377, 4651, 2020994167L, '?GetContainer@COleDocument@@UAEPAUIOleItemContainer@@XZ')
(4378, 4652, 2021691013L, '?GetContainer@COleLinkingDoc@@UAEPAUIOleItemContainer@@XZ')
(4379, 4653, 2021624405L, '?GetContainer@XOleClientSite@COleClientItem@@UAGJPAPAUIOleContainer@@@Z')
(4380, 4654, 2021591148L, '?GetContainer@XOleClientSite@COleControlSite@@UAGJPAPAUIOleContainer@@@Z')
(4381, 4655, 2020272363L, '?GetContainerFrameWindow@COleDocIPFrameWndEx@@QAEPAVCOleCntrFrameWndEx@@XZ')
(4382, 4656, 2020272363L, '?GetContainerFrameWindow@COleIPFrameWndEx@@QAEPAVCOleCntrFrameWndEx@@XZ')
(4383, 4657, 2021337025L, '?GetContentExtent@XQuickActivate@COleControl@@UAGJPAUtagSIZE@@@Z')
(4384, 4658, 2020904131L, '?GetContentsAll@CMFCToolBarEditBoxButton@@SG?AV?$CStringT@_WV?$StrTraitMFC_DLL@_WV?$ChTraitsCRT@_W@ATL@@@@@ATL@@I@Z')
(4385, 4659, 2020272488L, '?GetContextMenu@CRichEditView@@MAEPAUHMENU__@@GPAUIOleObject@@PAU_charrange@@@Z')
(4386, 4660, 2021805520L, '?GetContextMenu@XRichEditOleCallback@CRichEditView@@UAGJGPAUIOleObject@@PAU_charrange@@PAPAUHMENU__@@@Z')
(4387, 4661, 2021209253L, '?GetContextMenuManager@CWinAppEx@@QAEPAVCContextMenuManager@@XZ')
(4388, 4662, 2020475284L, '?GetContextName@CMFCRibbonBar@@QBEHIAAV?$CStringT@_WV?$StrTraitMFC_DLL@_WV?$ChTraitsCRT@_W@ATL@@@@@ATL@@@Z')
(4389, 4663, 2021888359L, '?GetControlBar@CFrameWnd@@QAEPAVCControlBar@@I@Z')
(4390, 4664, 2021848278L, '?GetControlContainer@CWnd@@QAEPAVCOleControlContainer@@XZ')
(4391, 4665, 2021477634L, '?GetControlDispatch@CDHtmlDialog@@QAEJPB_WPAPAUIDispatch@@@Z')
(4392, 4666, 2021281975L, '?GetControlFlags@COleControl@@UAEKXZ')
(4393, 4667, 2021587920L, '?GetControlInfo@COleControlSite@@IAEXXZ')
(4394, 4668, 2021282732L, '?GetControlInfo@XOleControl@COleControl@@UAGJPAUtagCONTROLINFO@@@Z')
(4395, 4669, 2021668707L, '?GetControllingFrame@CDocObjectServer@@QBEPAVCOleDocIPFrameWnd@@XZ')
(4396, 4670, 2021736541L, '?GetControllingUnknown@CCmdTarget@@QAEPAUIUnknown@@XZ')
(4397, 4671, 2021477776L, '?GetControlProperty@CDHtmlDialog@@QAE?AUtagVARIANT@@PAUIDispatch@@J@Z')
(4398, 4672, 2021477935L, '?GetControlProperty@CDHtmlDialog@@QAE?AUtagVARIANT@@PB_W0@Z')
(4399, 4673, 2021477852L, '?GetControlProperty@CDHtmlDialog@@QAE?AUtagVARIANT@@PB_WJ@Z')
(4400, 4674, 2021278260L, '?GetControlSize@COleControl@@QAEXPAH0@Z')
(4401, 4675, 2021310243L, '?GetControlStatus@COlePropertyPage@@QAEHI@Z')
(4402, 4676, 2021918726L, '?GetControlUnknown@CWnd@@QAEPAUIUnknown@@XZ')
(4403, 4677, 2021646035L, '?GetConvertInfo@XOleUIObjInfo@COlePropertiesDialog@@UAGJKPAU_GUID@@PAG0PAPAU3@PAI@Z')
(4404, 4678, 2021551454L, '?GetCookie@CInternetSession@@SAHPB_W0AAV?$CStringT@_WV?$StrTraitMFC_DLL@_WV?$ChTraitsCRT@_W@ATL@@@@@ATL@@@Z')
(4405, 4679, 2021551382L, '?GetCookie@CInternetSession@@SAHPB_W0PA_WK@Z')
(4406, 4680, 2021551413L, '?GetCookieLength@CInternetSession@@SAKPB_W0@Z')
(4407, 4681, 2021490779L, '?GetCopies@CPrintDialog@@QBEHXZ')
(4408, 4682, 2021491813L, '?GetCopies@CPrintDialogEx@@QBEHXZ')
(4409, 4683, 2019918878L, '?GetCount@CMFCCmdUsageCount@@QBEII@Z')
(4410, 4684, 2020099874L, '?GetCount@CMFCDropDownListBox@@QBEHXZ')
(4411, 4685, 2020649845L, '?GetCount@CMFCRibbonPanel@@QBEHXZ')
(4412, 4686, 2020694682L, '?GetCount@CMFCRibbonStatusBar@@QBEHXZ')
(4413, 4687, 2020845485L, '?GetCount@CMFCToolBar@@QBEHXZ')
(4414, 4688, 2020888433L, '?GetCount@CMFCToolBarComboBoxButton@@QBEHXZ')
(4415, 4689, 2021704756L, '?GetCount@CPropertySection@@QAEKXZ')
(4416, 4690, 2021707701L, '?GetCount@CPropertySet@@QAEKXZ')
(4417, 4691, 2021205147L, '?GetCount@CVSListBox@@UBEHXZ')
(4418, 4692, 2020893325L, '?GetCountAll@CMFCToolBarComboBoxButton@@SGHI@Z')
(4419, 4693, 2020962314L, '?GetCountInCategory@CMFCToolBarsCustomizeDialog@@QBEHPB_WABVCObList@@@Z')
(4420, 4694, 2021537626L, '?GetCreationTime@CFileFind@@UBEHAAVCTime@ATL@@@Z')
(4421, 4695, 2021537320L, '?GetCreationTime@CFileFind@@UBEHPAU_FILETIME@@@Z')
(4422, 4696, 2021559726L, '?GetCreationTime@CGopherFileFind@@UBEHAAVCTime@ATL@@@Z')
(4423, 4697, 2021559651L, '?GetCreationTime@CGopherFileFind@@UBEHPAU_FILETIME@@@Z')
(4424, 4698, 2021692093L, '?GetCurFile@XPersistFile@COleLinkingDoc@@UAGJPAPA_W@Z')
(4425, 4699, 2019860784L, '?GetCurrentAlignment@CBasePane@@UBEKXZ')
(4426, 4700, 2021554579L, '?GetCurrentDirectoryAsURL@CFtpConnection@@QBEHAAV?$CStringT@_WV?$StrTraitMFC_DLL@_WV?$ChTraitsCRT@_W@ATL@@@@@ATL@@@Z')
(4427, 4701, 2021554769L, '?GetCurrentDirectoryAsURL@CFtpConnection@@QBEHPA_WPAK@Z')
(4428, 4702, 2021554889L, '?GetCurrentDirectoryW@CFtpConnection@@QBEHAAV?$CStringT@_WV?$StrTraitMFC_DLL@_WV?$ChTraitsCRT@_W@ATL@@@@@ATL@@@Z')
(4429, 4703, 2021554550L, '?GetCurrentDirectoryW@CFtpConnection@@QBEHPA_WPAK@Z')
(4430, 4704, 2020712446L, '?GetCurrentFolder@CMFCShellListCtrl@@QBEHAAV?$CStringT@_WV?$StrTraitMFC_DLL@_WV?$ChTraitsCRT@_W@ATL@@@@@ATL@@@Z')
(4431, 4705, 2020712551L, '?GetCurrentFolderName@CMFCShellListCtrl@@QBEHAAV?$CStringT@_WV?$StrTraitMFC_DLL@_WV?$ChTraitsCRT@_W@ATL@@@@@ATL@@@Z')
(4432, 4706, 2021461296L, '?GetCurrentFont@CFontDialog@@QAEXPAUtagLOGFONTW@@@Z')
(4433, 4707, 2020749469L, '?GetCurrentFont@CMFCStatusBar@@IBEPAUHFONT__@@XZ')
(4434, 4708, 2021372460L, '?GetCurrentIndex@CDaoRecordset@@QAE?AV?$CStringT@_WV?$StrTraitMFC_DLL@_WV?$ChTraitsCRT@_W@ATL@@@@@ATL@@XZ')
(4435, 4709, 2021826677L, '?GetCurrentMessage@CWnd@@KGPBUtagMSG@@XZ')
(4436, 4710, 2021467988L, '?GetCurrentUrl@CDHtmlDialog@@QAEXAAV?$CStringT@_WV?$StrTraitMFC_DLL@_WV?$ChTraitsCRT@_W@ATL@@@@@ATL@@@Z')
(4437, 4711, 2020099892L, '?GetCurSel@CMFCDropDownListBox@@QAEHXZ')
(4438, 4712, 2021873569L, '?GetCurSel@CMonthCalCtrl@@QBEHAAVCOleDateTime@ATL@@@Z')
(4439, 4713, 2021873780L, '?GetCurSel@CMonthCalCtrl@@QBEHAAVCTime@ATL@@@Z')
(4440, 4714, 2020893364L, '?GetCurSelAll@CMFCToolBarComboBoxButton@@SGHI@Z')
(4441, 4715, 2021602596L, '?GetCursor@CDataBoundProperty@@QAEPAUIUnknown@@XZ')
(4442, 4716, 2021595717L, '?GetCursor@CDataSourceControl@@UAEPAUIUnknown@@XZ')
(4443, 4717, 2021602658L, '?GetCursor@COleControlSite@@IAEJJPAPAUIUnknown@@PAPAX@Z')
(4444, 4718, 2021602902L, '?GetCursor@XBoundObjectSite@COleControlSite@@UAGJJPAPAUICursor@@PAPAX@Z')
(4445, 4719, 2019951063L, '?GetCursorPos@CMFCColorPickerCtrl@@IAE?AVCPoint@@XZ')
(4446, 4720, 2019951243L, '?GetCursorRect@CMFCColorPickerCtrl@@IAE?AVCRect@@XZ')
(4447, 4721, 2020444845L, '?GetCustomColors@CMFCPropertyGridCtrl@@QAEXAAK000000@Z')
(4448, 4722, 2021224167L, '?GetData@?$CSimpleStringT@_W$00@ATL@@ABEPAUCStringData@2@XZ')
(4449, 4723, 2021224167L, '?GetData@?$CSimpleStringT@D$00@ATL@@ABEPAUCStringData@2@XZ')
(4450, 4724, 2021657013L, '?GetData@COleDataObject@@QAEHGPAUtagSTGMEDIUM@@PAUtagFORMATETC@@@Z')
(4451, 4725, 2020821964L, '?GetData@CProcessLocalObject@@QAEPAVCNoTrackObject@@P6GPAV2@XZ@Z')
(4452, 4726, 2021412571L, '?GetData@CRecordset@@SGJPAVCDatabase@@PAXFF1JF@Z')
(4453, 4727, 2020821766L, '?GetData@CThreadLocalObject@@QAEPAVCNoTrackObject@@P6GPAV2@XZ@Z')
(4454, 4728, 2021286824L, '?GetData@XDataObject@COleControl@@UAGJPAUtagFORMATETC@@PAUtagSTGMEDIUM@@@Z')
(4455, 4729, 2021659167L, '?GetData@XDataObject@COleDataSource@@UAGJPAUtagFORMATETC@@PAUtagSTGMEDIUM@@@Z')
(4456, 4730, 2021724569L, '?GetData@XDataObject@COleServerDoc@@UAGJPAUtagFORMATETC@@PAUtagSTGMEDIUM@@@Z')
(4457, 4731, 2021731648L, '?GetData@XDataObject@COleServerItem@@UAGJPAUtagFORMATETC@@PAUtagSTGMEDIUM@@@Z')
(4458, 4732, 2021380381L, '?GetDataAndFixupNulls@CDaoRecordset@@QAEXXZ')
(4459, 4733, 2021351042L, '?GetDatabaseCount@CDaoWorkspace@@QAEFXZ')
(4460, 4734, 2021351118L, '?GetDatabaseInfo@CDaoWorkspace@@QAEXHAAUCDaoDatabaseInfo@@K@Z')
(4461, 4735, 2021351317L, '?GetDatabaseInfo@CDaoWorkspace@@QAEXPB_WAAUCDaoDatabaseInfo@@K@Z')
(4462, 4736, 2021396267L, '?GetDatabaseName@CDatabase@@QBE?AV?$CStringT@_WV?$StrTraitMFC_DLL@_WV?$ChTraitsCRT@_W@ATL@@@@@ATL@@XZ')
(4463, 4737, 2021411964L, '?GetDataBuffer@CRecordset@@SGPAXAAVCDBVariant@@FPAJFK@Z')
(4464, 4738, 2021286878L, '?GetDataHere@XDataObject@COleControl@@UAGJPAUtagFORMATETC@@PAUtagSTGMEDIUM@@@Z')
(4465, 4739, 2021659416L, '?GetDataHere@XDataObject@COleDataSource@@UAGJPAUtagFORMATETC@@PAUtagSTGMEDIUM@@@Z')
(4466, 4740, 2021724691L, '?GetDataHere@XDataObject@COleServerDoc@@UAGJPAUtagFORMATETC@@PAUtagSTGMEDIUM@@@Z')
(4467, 4741, 2021731680L, '?GetDataHere@XDataObject@COleServerItem@@UAGJPAUtagFORMATETC@@PAUtagSTGMEDIUM@@@Z')
(4468, 4742, 2020821899L, '?GetDataNA@CThreadLocalObject@@QAEPAVCNoTrackObject@@XZ')
(4469, 4743, 2021727706L, '?GetDataObject@COleServerItem@@QAEPAUIDataObject@@XZ')
(4470, 4744, 2021222839L, '?GetDataRecoveryHandler@CWinApp@@UAEPAVCDataRecoveryHandler@@XZ')
(4471, 4745, 2021287759L, '?GetDataSource@COleControl@@IAEPAVCControlDataSource@1@XZ')
(4472, 4746, 2021214541L, '?GetDataVersion@CWinAppEx@@QBEHXZ')
(4473, 4747, 2021365450L, '?GetDateCreated@CDaoQueryDef@@QAE?AVCOleDateTime@ATL@@XZ')
(4474, 4748, 2021371750L, '?GetDateCreated@CDaoRecordset@@QAE?AVCOleDateTime@ATL@@XZ')
(4475, 4749, 2021371750L, '?GetDateCreated@CDaoTableDef@@QAE?AVCOleDateTime@ATL@@XZ')
(4476, 4750, 2021365599L, '?GetDateLastUpdated@CDaoQueryDef@@QAE?AVCOleDateTime@ATL@@XZ')
(4477, 4751, 2021371899L, '?GetDateLastUpdated@CDaoRecordset@@QAE?AVCOleDateTime@ATL@@XZ')
(4478, 4752, 2021361001L, '?GetDateLastUpdated@CDaoTableDef@@QAE?AVCOleDateTime@ATL@@XZ')
(4479, 4753, 2021297837L, '?GetDC@COleControl@@QAEPAVCDC@@PBUtagRECT@@K@Z')
(4480, 4754, 2021592162L, '?GetDC@XOleIPSite@COleControlSite@@UAGJPBUtagRECT@@KPAPAUHDC__@@@Z')
(4481, 4755, 2020994167L, '?GetDefaultAccelerator@CDocument@@UAEPAUHACCEL__@@XZ')
(4482, 4756, 2021880680L, '?GetDefaultAccelerator@CFrameWnd@@UAEPAUHACCEL__@@XZ')
(4483, 4757, 2021715607L, '?GetDefaultAccelerator@COleServerDoc@@MAEPAUHACCEL__@@XZ')
(4484, 4758, 2021871389L, '?GetDefaultCharFormat@CRichEditCtrl@@QBEKAAU_charformatw@@@Z')
(4485, 4759, 2021871429L, '?GetDefaultCharFormat@CRichEditCtrl@@QBEKAAUCHARFORMAT2W@@@Z')
(4486, 4760, 2020688421L, '?GetDefaultCommands@CMFCRibbonQuickAccessToolBar@@IAEXAAV?$CList@II@@@Z')
(4487, 4761, 2021402755L, '?GetDefaultConnect@CRecordset@@UAE?AV?$CStringT@_WV?$StrTraitMFC_DLL@_WV?$ChTraitsCRT@_W@ATL@@@@@ATL@@XZ')
(4488, 4762, 2021371017L, '?GetDefaultDBName@CDaoRecordset@@UAE?AV?$CStringT@_WV?$StrTraitMFC_DLL@_WV?$ChTraitsCRT@_W@ATL@@@@@ATL@@XZ')
(4489, 4763, 2021411812L, '?GetDefaultFieldType@CRecordset@@SGFF@Z')
(4490, 4764, 2020994167L, '?GetDefaultMenu@CDocument@@UAEPAUHMENU__@@XZ')
(4491, 4765, 2021715566L, '?GetDefaultMenu@COleServerDoc@@MAEPAUHMENU__@@XZ')
(4492, 4766, 2020024262L, '?GetDefaultPaneDivider@CDockablePane@@QBEPAVCPaneDivider@@XZ')
(4493, 4767, 2021491032L, '?GetDefaults@CPrintDialog@@QAEHXZ')
(4494, 4768, 2021492053L, '?GetDefaults@CPrintDialogEx@@QAEHXZ')
(4495, 4769, 2021371017L, '?GetDefaultSQL@CDaoRecordset@@UAE?AV?$CStringT@_WV?$StrTraitMFC_DLL@_WV?$ChTraitsCRT@_W@ATL@@@@@ATL@@XZ')
(4496, 4770, 2021371017L, '?GetDefaultSQL@CRecordset@@UAE?AV?$CStringT@_WV?$StrTraitMFC_DLL@_WV?$ChTraitsCRT@_W@ATL@@@@@ATL@@XZ')
(4497, 4771, 2021608722L, '?GetDefBtnCode@COccManager@@SAKPAVCWnd@@@Z')
(4498, 4772, 2021587173L, '?GetDefBtnCode@COleControlSite@@QAEKXZ')
(4499, 4773, 2021836621L, '?GetDescendantWindow@CWnd@@SGPAV1@PAUHWND__@@HH@Z')
(4500, 4774, 2019866858L, '?GetDescription@CMFCRibbonBaseElement@@UBE?AV?$CStringT@_WV?$StrTraitMFC_DLL@_WV?$ChTraitsCRT@_W@ATL@@@@@ATL@@XZ')
(4501, 4775, 2020636085L, '?GetDescription@CMFCRibbonGalleryIcon@@MBE?AV?$CStringT@_WV?$StrTraitMFC_DLL@_WV?$ChTraitsCRT@_W@ATL@@@@@ATL@@XZ')
(4502, 4776, 2021489905L, '?GetDeviceName@CPageSetupDialog@@QBE?AV?$CStringT@_WV?$StrTraitMFC_DLL@_WV?$ChTraitsCRT@_W@ATL@@@@@ATL@@XZ')
(4503, 4777, 2021490910L, '?GetDeviceName@CPrintDialog@@QBE?AV?$CStringT@_WV?$StrTraitMFC_DLL@_WV?$ChTraitsCRT@_W@ATL@@@@@ATL@@XZ')
(4504, 4778, 2021491937L, '?GetDeviceName@CPrintDialogEx@@QBE?AV?$CStringT@_WV?$StrTraitMFC_DLL@_WV?$ChTraitsCRT@_W@ATL@@@@@ATL@@XZ')
(4505, 4779, 2021818855L, '?GetDeviceScrollPosition@CScrollView@@QBE?AVCPoint@@XZ')
(4506, 4780, 2021818903L, '?GetDeviceScrollSizes@CScrollView@@QBEXAAHAAUtagSIZE@@11@Z')
(4507, 4781, 2021489824L, '?GetDevMode@CPageSetupDialog@@QBEPAU_devicemodeW@@XZ')
(4508, 4782, 2021490823L, '?GetDevMode@CPrintDialog@@QBEPAU_devicemodeW@@XZ')
(4509, 4783, 2021491856L, '?GetDevMode@CPrintDialogEx@@QBEPAU_devicemodeW@@XZ')
(4510, 4784, 2021784969L, '?GetDHtmlCommandMapping@CHtmlEditView@@UAEIIAAHAAI@Z')
(4511, 4785, 2021467933L, '?GetDHtmlDocument@CDHtmlDialog@@UAEJPAPAUIHTMLDocument2@@@Z')
(4512, 4786, 2021783827L, '?GetDHtmlDocument@CHtmlEditCtrl@@QBEHPAPAUIHTMLDocument2@@@Z')
(4513, 4787, 2021784826L, '?GetDHtmlDocument@CHtmlEditView@@QBEHPAPAUIHTMLDocument2@@@Z')
(4514, 4788, 2021469710L, '?GetDHtmlEventMap@@YAPBUDHtmlEventMapEntry@@XZ')
(4515, 4789, 2020994167L, '?GetDHtmlEventMap@CDHtmlDialog@@MAEPBUDHtmlEventMapEntry@@XZ')
(4516, 4790, 2020994313L, '?GetDHtmlEventMap@CMultiPageDHtmlDialog@@MAEPBUDHtmlEventMapEntry@@XZ')
(4517, 4791, 2019996254L, '?GetDialogSize@CMFCDesktopAlertWnd@@UAE?AVCSize@@XZ')
(4518, 4792, 2020790482L, '?GetDispatchIID@CCmdTarget@@UAEHPAU_GUID@@@Z')
(4519, 4793, 2021277197L, '?GetDispatchIID@COleControl@@MAEHPAU_GUID@@@Z')
(4520, 4794, 2021273278L, '?GetDispatchMap@CCmdTarget@@MBEPBUAFX_DISPMAP@@XZ')
(4521, 4795, 2021570097L, '?GetDispatchMap@COleControlContainer@@MBEPBUAFX_DISPMAP@@XZ')
(4522, 4796, 2021647885L, '?GetDispEntry@CCmdTarget@@IAGPBUAFX_DISPMAP_ENTRY@@J@Z')
(4523, 4797, 2021539993L, '?GetDisplayName@CRecentFileList@@UBEHAAV?$CStringT@_WV?$StrTraitMFC_DLL@_WV?$ChTraitsCRT@_W@ATL@@@@@ATL@@HPB_WHH@Z')
(4524, 4798, 2021292385L, '?GetDisplayString@CFontHolder@@QAEHAAV?$CStringT@_WV?$StrTraitMFC_DLL@_WV?$ChTraitsCRT@_W@ATL@@@@@ATL@@@Z')
(4525, 4799, 2021304980L, '?GetDisplayString@CPictureHolder@@QAEHAAV?$CStringT@_WV?$StrTraitMFC_DLL@_WV?$ChTraitsCRT@_W@ATL@@@@@ATL@@@Z')
(4526, 4800, 2021323954L, '?GetDisplayString@XPerPropertyBrowsing@COleControl@@UAGJJPAPA_W@Z')
(4527, 4801, 2021589721L, '?GetDlgCtrlID@COleControlSite@@UBEHXZ')
(4528, 4802, 2021919889L, '?GetDlgCtrlID@CWnd@@QBEHXZ')
(4529, 4803, 2021572666L, '?GetDlgItem@COleControlContainer@@UBEPAVCWnd@@H@Z')
(4530, 4804, 2021572700L, '?GetDlgItem@COleControlContainer@@UBEXHPAPAUHWND__@@@Z')
(4531, 4805, 2021918899L, '?GetDlgItem@CWnd@@QBEPAV1@H@Z')
(4532, 4806, 2021918946L, '?GetDlgItem@CWnd@@QBEXHPAPAUHWND__@@@Z')
(4533, 4807, 2021572768L, '?GetDlgItemInt@COleControlContainer@@UBEIHPAHH@Z')
(4534, 4808, 2021918992L, '?GetDlgItemInt@CWnd@@QBEIHPAHH@Z')
(4535, 4809, 2021572983L, '?GetDlgItemTextW@COleControlContainer@@UBEHHPA_WH@Z')
(4536, 4810, 2021829823L, '?GetDlgItemTextW@CWnd@@QBEHHAAV?$CStringT@_WV?$StrTraitMFC_DLL@_WV?$ChTraitsCRT@_W@ATL@@@@@ATL@@@Z')
(4537, 4811, 2021919042L, '?GetDlgItemTextW@CWnd@@QBEHHPA_WH@Z')
(4538, 4812, 2019993767L, '?GetDlgSize@CMFCDesktopAlertDialog@@QAE?AVCSize@@XZ')
(4539, 4813, 2021510114L, '?GetDockBar@CDockContext@@QAEPAVCDockBar@@K@Z')
(4540, 4814, 2021256791L, '?GetDockedControlBar@CDockBar@@IBEPAVCControlBar@@H@Z')
(4541, 4815, 2021252537L, '?GetDockedCount@CDockBar@@QBEHXZ')
(4542, 4816, 2021252589L, '?GetDockedVisibleCount@CDockBar@@UBEHXZ')
(4543, 4817, 2021892722L, '?GetDockingFrame@CControlBar@@QBEPAVCFrameWnd@@XZ')
(4544, 4818, 2020152330L, '?GetDockingManager@CGlobalUtils@@QAEPAVCDockingManager@@PAVCWnd@@@Z')
(4545, 4819, 2019859858L, '?GetDockingMode@CBasePane@@UBE?AW4AFX_DOCK_TYPE@@XZ')
(4546, 4820, 2020367602L, '?GetDockingMode@CPaneFrameWnd@@UBE?AW4AFX_DOCK_TYPE@@XZ')
(4547, 4821, 2020024292L, '?GetDockingStatus@CDockablePane@@UAE?AW4AFX_CS_STATUS@@VCPoint@@H@Z')
(4548, 4822, 2020277927L, '?GetDockingStatus@CMFCOutlookBar@@UAE?AW4AFX_CS_STATUS@@VCPoint@@H@Z')
(4549, 4823, 2021159453L, '?GetDockingTabsBordersSize@CMFCVisualManagerVS2005@@UAEHXZ')
(4550, 4824, 2019859748L, '?GetDockSiteFrameWnd@CBasePane@@UBEPAVCWnd@@XZ')
(4551, 4825, 2021515349L, '?GetDockState@CFrameWnd@@QBEXAAVCDockState@@@Z')
(4552, 4826, 2021671715L, '?GetDocMiscStatus@XOleDocument@CDocObjectServer@@UAGJPAK@Z')
(4553, 4827, 2020790482L, '?GetDocObjectServer@COleServerDoc@@MAEPAVCDocObjectServer@@PAUIOleDocumentSite@@@Z')
(4554, 4828, 2021528388L, '?GetDocString@CDocTemplate@@UBEHAAV?$CStringT@_WV?$StrTraitMFC_DLL@_WV?$ChTraitsCRT@_W@ATL@@@@@ATL@@W4DocStringIndex@1@@Z')
(4555, 4829, 2021676949L, '?GetDocument@XOleDocumentView@CDocObjectServer@@UAGJPAPAUIUnknown@@@Z')
(4556, 4830, 2021523270L, '?GetDocumentCount@CDocManager@@IAEHXZ')
(4557, 4831, 2020772344L, '?GetDocumentIcon@CMFCTabCtrl@@SGPAUHICON__@@I@Z')
(4558, 4832, 2019985838L, '?GetDocumentListName@CDataRecoveryHandler@@UBE?AV?$CStringT@_WV?$StrTraitMFC_DLL@_WV?$ChTraitsCRT@_W@ATL@@@@@ATL@@PAVCDocument@@@Z')
(4559, 4833, 2020222720L, '?GetDocumentName@CMDIChildWndEx@@UAEPB_WPAPAVCObject@@@Z')
(4560, 4834, 2021805461L, '?GetDragDropEffect@XRichEditOleCallback@CRichEditView@@UAGJHKPAK@Z')
(4561, 4835, 2021489848L, '?GetDriverName@CPageSetupDialog@@QBE?AV?$CStringT@_WV?$StrTraitMFC_DLL@_WV?$ChTraitsCRT@_W@ATL@@@@@ATL@@XZ')
(4562, 4836, 2021490850L, '?GetDriverName@CPrintDialog@@QBE?AV?$CStringT@_WV?$StrTraitMFC_DLL@_WV?$ChTraitsCRT@_W@ATL@@@@@ATL@@XZ')
(4563, 4837, 2021491880L, '?GetDriverName@CPrintDialogEx@@QBE?AV?$CStringT@_WV?$StrTraitMFC_DLL@_WV?$ChTraitsCRT@_W@ATL@@@@@ATL@@XZ')
(4564, 4838, 2019869746L, '?GetDropDownImageWidth@CMFCRibbonBaseElement@@MBEHXZ')
(4565, 4839, 2020495529L, '?GetDroppedDown@CMFCRibbonBar@@UAEPAVCMFCRibbonBaseElement@@XZ')
(4566, 4840, 2019865820L, '?GetDroppedDown@CMFCRibbonBaseElement@@UAEPAV1@XZ')
(4567, 4841, 2020523005L, '?GetDroppedDown@CMFCRibbonButtonsGroup@@MAEPAVCMFCRibbonBaseElement@@XZ')
(4568, 4842, 2020533640L, '?GetDroppedDown@CMFCRibbonCategory@@QAEPAVCMFCRibbonBaseElement@@XZ')
(4569, 4843, 2020644199L, '?GetDroppedDown@CMFCRibbonGallery@@UAEPAVCMFCRibbonBaseElement@@XZ')
(4570, 4844, 2020666476L, '?GetDroppedDown@CMFCRibbonPanel@@QBEPAVCMFCRibbonBaseElement@@XZ')
(4571, 4845, 2020682101L, '?GetDroppedDown@CMFCRibbonPanelMenuBar@@QBEPAVCMFCRibbonButton@@XZ')
(4572, 4846, 2020698259L, '?GetDroppedDown@CMFCRibbonStatusBar@@MAEPAVCMFCRibbonBaseElement@@XZ')
(4573, 4847, 2020857006L, '?GetDroppedDownMenu@CMFCToolBar@@QBEPAVCMFCToolBarMenuButton@@PAH@Z')
(4574, 4848, 2021466932L, '?GetDropTarget@CBrowserControlSite@@MAGJPAUIDropTarget@@PAPAU2@@Z')
(4575, 4849, 2021692249L, '?GetDropTarget@CDHtmlDialog@@UAGJPAUIDropTarget@@PAPAU2@@Z')
(4576, 4850, 2021855400L, '?GetDropTarget@CToolBarCtrl@@QBEJPAPAUIDropTarget@@@Z')
(4577, 4851, 2021777994L, '?GetDropTarget@XDocHostUIHandler@CHtmlControlSite@@UAGJPAUIDropTarget@@PAPAU3@@Z')
(4578, 4852, 2021297467L, '?GetDropTarget@XOleInPlaceObject@COleControl@@UAGJPAPAUIDropTarget@@@Z')
(4579, 4853, 2021920451L, '?GetDSCCursor@CWnd@@QAEPAUIUnknown@@XZ')
(4580, 4854, 2020903279L, '?GetEditBorder@CMFCToolBarEditBoxButton@@UAEXAAVCRect@@@Z')
(4581, 4855, 2020980216L, '?GetEditBorder@CMFCToolBarSpinEditBoxButton@@MAEXAAVCRect@@@Z')
(4582, 4856, 2021371645L, '?GetEditMode@CDaoRecordset@@QAEFXZ')
(4583, 4857, 2021476199L, '?GetElement@CDHtmlDialog@@QAEJPB_WPAPAUIDispatch@@PAH@Z')
(4584, 4858, 2021476688L, '?GetElement@CDHtmlDialog@@QAEJPB_WPAPAUIHTMLElement@@@Z')
(4585, 4859, 2020649803L, '?GetElement@CMFCRibbonPanel@@QBEPAVCMFCRibbonBaseElement@@H@Z')
(4586, 4860, 2020694706L, '?GetElement@CMFCRibbonStatusBar@@QAEPAVCMFCRibbonBaseElement@@H@Z')
(4587, 4861, 2021743815L, '?GetElement@COleSafeArray@@QAEXPAJPAX@Z')
(4588, 4862, 2021477110L, '?GetElementHtml@CDHtmlDialog@@QAEPA_WPB_W@Z')
(4589, 4863, 2021476718L, '?GetElementInterface@CDHtmlDialog@@QAEJPB_WABU_GUID@@PAPAX@Z')
(4590, 4864, 2021477394L, '?GetElementProperty@CDHtmlDialog@@QAE?AUtagVARIANT@@PB_WJ@Z')
(4591, 4865, 2020517736L, '?GetElements@CMFCRibbonButton@@MAEXAAV?$CArray@PAVCMFCRibbonBaseElement@@PAV1@@@@Z')
(4592, 4866, 2020533506L, '?GetElements@CMFCRibbonCategory@@QAEXAAV?$CArray@PAVCMFCRibbonBaseElement@@PAV1@@@@Z')
(4593, 4867, 2020666120L, '?GetElements@CMFCRibbonPanel@@QAEXAAV?$CArray@PAVCMFCRibbonBaseElement@@PAV1@@@@Z')
(4594, 4868, 2020485565L, '?GetElementsByID@CMFCRibbonBar@@QAEXIAAV?$CArray@PAVCMFCRibbonBaseElement@@PAV1@@@@Z')
(4595, 4869, 2019867673L, '?GetElementsByID@CMFCRibbonBaseElement@@UAEXIAAV?$CArray@PAVCMFCRibbonBaseElement@@PAV1@@@@Z')
(4596, 4870, 2020517645L, '?GetElementsByID@CMFCRibbonButton@@MAEXIAAV?$CArray@PAVCMFCRibbonBaseElement@@PAV1@@@@Z')
(4597, 4871, 2020524269L, '?GetElementsByID@CMFCRibbonButtonsGroup@@MAEXIAAV?$CArray@PAVCMFCRibbonBaseElement@@PAV1@@@@Z')
(4598, 4872, 2020532826L, '?GetElementsByID@CMFCRibbonCategory@@QAEXIAAV?$CArray@PAVCMFCRibbonBaseElement@@PAV1@@@@Z')
(4599, 4873, 2020666311L, '?GetElementsByID@CMFCRibbonPanel@@QAEXIAAV?$CArray@PAVCMFCRibbonBaseElement@@PAV1@@@@Z')
(4600, 4874, 2021476826L, '?GetElementText@CDHtmlDialog@@QAEPA_WPB_W@Z')
(4601, 4875, 2021713847L, '?GetEmbeddedItem@COleServerDoc@@QAEPAVCOleServerItem@@XZ')
(4602, 4876, 2021622776L, '?GetEmbeddedItemData@COleClientItem@@IAEXPAUtagSTGMEDIUM@@@Z')
(4603, 4877, 2021729207L, '?GetEmbedSourceData@COleServerItem@@QAEXPAUtagSTGMEDIUM@@@Z')
(4604, 4878, 2021892948L, '?GetEnabled@COleControl@@QAEHXZ')
(4605, 4879, 2021647707L, '?GetEntryCount@CCmdTarget@@KGIPBUAFX_DISPMAP@@@Z')
(4606, 4880, 2021842283L, '?GetEnumVariant@XAccessibleServer@CWnd@@UAGJPAPAUIEnumVARIANT@@@Z')
(4607, 4881, 2021954114L, '?GetEnvironmentVariableW@?$CStringT@_WV?$StrTraitMFC_DLL@_WV?$ChTraitsCRT@_W@ATL@@@@@ATL@@QAEHPB_W@Z')
(4608, 4882, 2021951734L, '?GetEnvironmentVariableW@?$CStringT@DV?$StrTraitMFC_DLL@DV?$ChTraitsCRT@D@ATL@@@@@ATL@@QAEHPBD@Z')
(4609, 4883, 2021346300L, '?GetErrorCount@CDaoException@@QAEFXZ')
(4610, 4884, 2021346376L, '?GetErrorInfo@CDaoException@@QAEXH@Z')
(4611, 4885, 2021238131L, '?GetErrorMessage@CArchiveException@@UBEHPA_WIPAI@Z')
(4612, 4886, 2021346513L, '?GetErrorMessage@CDaoException@@UBEHPA_WIPAI@Z')
(4613, 4887, 2021394816L, '?GetErrorMessage@CDBException@@UBEHPA_WIPAI@Z')
(4614, 4888, 2021531388L, '?GetErrorMessage@CException@@UAEHPA_WIPAI@Z')
(4615, 4889, 2021531344L, '?GetErrorMessage@CException@@UBEHPA_WIPAI@Z')
(4616, 4890, 2021547316L, '?GetErrorMessage@CFileException@@UBEHPA_WIPAI@Z')
(4617, 4891, 2021560092L, '?GetErrorMessage@CInternetException@@UBEHPA_WIPAI@Z')
(4618, 4892, 2021652169L, '?GetErrorMessage@COleDispatchException@@UBEHPA_WIPAI@Z')
(4619, 4893, 2021693581L, '?GetErrorMessage@COleException@@UBEHPA_WIPAI@Z')
(4620, 4894, 2021531697L, '?GetErrorMessage@CSimpleException@@UBEHPA_WIPAI@Z')
(4621, 4895, 2021478397L, '?GetEvent@CDHtmlDialog@@QAEJPAPAUIHTMLEventObj@@@Z')
(4622, 4896, 2021587533L, '?GetEventIID@COleControlSite@@QAEHPAU_GUID@@@Z')
(4623, 4897, 2021288189L, '?GetEventMap@COleControl@@MBEPBUAFX_EVENTMAP@@XZ')
(4624, 4898, 2021288200L, '?GetEventMapEntry@COleControl@@IBEPBUAFX_EVENTMAP_ENTRY@@PB_WPAJ@Z')
(4625, 4899, 2020790482L, '?GetEventMapForUrl@CMultiPageDHtmlDialog@@MAEPBUDHtmlEventMapEntry@@PB_W@Z')
(4626, 4900, 2021575641L, '?GetEventSinkEntry@CCmdTarget@@IAGPBUAFX_EVENTSINKMAP_ENTRY@@IPAUAFX_EVENT@@@Z')
(4627, 4901, 2021273289L, '?GetEventSinkMap@CCmdTarget@@MBEPBUAFX_EVENTSINKMAP@@XZ')
(4628, 4902, 2021463208L, '?GetEventSinkMap@CDHtmlDialog@@MBEPBUAFX_EVENTSINKMAP@@XZ')
(4629, 4903, 2021783799L, '?GetEventSinkMap@CHtmlEditCtrl@@MBEPBUAFX_EVENTSINKMAP@@XZ')
(4630, 4904, 2021776665L, '?GetEventSinkMap@CHtmlView@@MBEPBUAFX_EVENTSINKMAP@@XZ')
(4631, 4905, 2020694694L, '?GetExCount@CMFCRibbonStatusBar@@QBEHXZ')
(4632, 4906, 2020694748L, '?GetExElement@CMFCRibbonStatusBar@@QAEPAVCMFCRibbonBaseElement@@H@Z')
(4633, 4907, 2020413179L, '?GetExpandedSubItems@CMFCPropertyGridProperty@@QBEHH@Z')
(4634, 4908, 2021589191L, '?GetExStyle@COleControlSite@@UBEKXZ')
(4635, 4909, 2021919468L, '?GetExStyle@CWnd@@QBEKXZ')
(4636, 4910, 2020694923L, '?GetExtendedArea@CMFCRibbonStatusBar@@UBEHAAVCRect@@@Z')
(4637, 4911, 2020749570L, '?GetExtendedArea@CMFCStatusBar@@UBEHAAVCRect@@@Z')
(4638, 4912, 2021282505L, '?GetExtendedControl@COleControl@@QAEPAUIDispatch@@XZ')
(4639, 4913, 2021478652L, '?GetExtendedControl@XOleControlSite@COleControlSite@@UAGJPAPAUIDispatch@@@Z')
(4640, 4914, 2021621454L, '?GetExtent@COleClientItem@@QAEHPAUtagSIZE@@W4tagDVASPECT@@@Z')
(4641, 4915, 2021673028L, '?GetExtent@XOleObject@CDocObjectServer@@UAGJKPAUtagSIZE@@@Z')
(4642, 4916, 2021301100L, '?GetExtent@XOleObject@COleControl@@UAGJKPAUtagSIZE@@@Z')
(4643, 4917, 2021723762L, '?GetExtent@XOleObject@COleServerDoc@@UAGJKPAUtagSIZE@@@Z')
(4644, 4918, 2021731228L, '?GetExtent@XOleObject@COleServerItem@@UAGJKPAUtagSIZE@@@Z')
(4645, 4919, 2021345265L, '?GetExtent@XViewObject@COleControl@@UAGJKJPAUtagDVTARGETDEVICE@@PAUtagSIZE@@@Z')
(4646, 4920, 2021466967L, '?GetExternal@CBrowserControlSite@@MAGJPAPAUIDispatch@@@Z')
(4647, 4921, 2021478676L, '?GetExternal@CDHtmlDialog@@UAGJPAPAUIDispatch@@@Z')
(4648, 4922, 2021777357L, '?GetExternal@XDocHostUIHandler@CHtmlControlSite@@UAGJPAPAUIDispatch@@@Z')
(4649, 4923, 2020790482L, '?GetExtraConnectionPoints@CCmdTarget@@MAEHPAVCPtrArray@@@Z')
(4650, 4924, 2021274839L, '?GetExtraConnectionPoints@COleControl@@MAEHPAVCPtrArray@@@Z')
(4651, 4925, 2019924986L, '?GetExtraHeight@CMFCColorBar@@IBEHH@Z')
(4652, 4926, 2021367250L, '?GetFieldCount@CDaoQueryDef@@QAEFXZ')
(4653, 4927, 2021373449L, '?GetFieldCount@CDaoRecordset@@QAEFXZ')
(4654, 4928, 2021363008L, '?GetFieldCount@CDaoTableDef@@QAEFXZ')
(4655, 4929, 2021380211L, '?GetFieldIndex@CDaoRecordset@@IAEHPAX@Z')
(4656, 4930, 2021409659L, '?GetFieldIndexByName@CRecordset@@QAEFPB_W@Z')
(4657, 4931, 2021367326L, '?GetFieldInfo@CDaoQueryDef@@QAEXHAAUCDaoFieldInfo@@K@Z')
(4658, 4932, 2021367524L, '?GetFieldInfo@CDaoQueryDef@@QAEXPB_WAAUCDaoFieldInfo@@K@Z')
(4659, 4933, 2021373525L, '?GetFieldInfo@CDaoRecordset@@QAEXHAAUCDaoFieldInfo@@K@Z')
(4660, 4934, 2021373723L, '?GetFieldInfo@CDaoRecordset@@QAEXPB_WAAUCDaoFieldInfo@@K@Z')
(4661, 4935, 2021363084L, '?GetFieldInfo@CDaoTableDef@@QAEXHAAUCDaoFieldInfo@@K@Z')
(4662, 4936, 2021363282L, '?GetFieldInfo@CDaoTableDef@@QAEXPB_WAAUCDaoFieldInfo@@K@Z')
(4663, 4937, 2021378828L, '?GetFieldLength@CDaoRecordset@@QAEKH@Z')
(4664, 4938, 2021409740L, '?GetFieldLengthBuffer@CRecordset@@QAEPAJKH@Z')
(4665, 4939, 2021409798L, '?GetFieldStatus@CRecordset@@QAEEK@Z')
(4666, 4940, 2021377582L, '?GetFieldValue@CDaoRecordset@@UAE?AVCOleVariant@@H@Z')
(4667, 4941, 2021377516L, '?GetFieldValue@CDaoRecordset@@UAE?AVCOleVariant@@PB_W@Z')
(4668, 4942, 2021377809L, '?GetFieldValue@CDaoRecordset@@UAEXHAAVCOleVariant@@@Z')
(4669, 4943, 2021377648L, '?GetFieldValue@CDaoRecordset@@UAEXPB_WAAVCOleVariant@@@Z')
(4670, 4944, 2021402024L, '?GetFieldValue@CRecordset@@QAEXFAAV?$CStringT@_WV?$StrTraitMFC_DLL@_WV?$ChTraitsCRT@_W@ATL@@@@@ATL@@@Z')
(4671, 4945, 2021402053L, '?GetFieldValue@CRecordset@@QAEXFAAV?$CStringT@DV?$StrTraitMFC_DLL@DV?$ChTraitsCRT@D@ATL@@@@@ATL@@@Z')
(4672, 4946, 2021401582L, '?GetFieldValue@CRecordset@@QAEXFAAVCDBVariant@@F@Z')
(4673, 4947, 2021401908L, '?GetFieldValue@CRecordset@@QAEXPB_WAAV?$CStringT@_WV?$StrTraitMFC_DLL@_WV?$ChTraitsCRT@_W@ATL@@@@@ATL@@@Z')
(4674, 4948, 2021401979L, '?GetFieldValue@CRecordset@@QAEXPB_WAAV?$CStringT@DV?$StrTraitMFC_DLL@DV?$ChTraitsCRT@D@ATL@@@@@ATL@@@Z')
(4675, 4949, 2021401522L, '?GetFieldValue@CRecordset@@QAEXPB_WAAVCDBVariant@@F@Z')
(4676, 4950, 2021498604L, '?GetFile@CDocument@@UAEPAVCFile@@PB_WIPAVCFileException@@@Z')
(4677, 4951, 2021555261L, '?GetFile@CFtpConnection@@QAEHPB_W0HKKK@Z')
(4678, 4952, 2021656380L, '?GetFileData@COleDataObject@@QAEPAVCFile@@GPAUtagFORMATETC@@@Z')
(4679, 4953, 2021455339L, '?GetFileExt@CFileDialog@@QBE?AV?$CStringT@_WV?$StrTraitMFC_DLL@_WV?$ChTraitsCRT@_W@ATL@@@@@ATL@@XZ')
(4680, 4954, 2021542971L, '?GetFileName@CFile@@UBE?AV?$CStringT@_WV?$StrTraitMFC_DLL@_WV?$ChTraitsCRT@_W@ATL@@@@@ATL@@XZ')
(4681, 4955, 2021455024L, '?GetFileName@CFileDialog@@QBE?AV?$CStringT@_WV?$StrTraitMFC_DLL@_WV?$ChTraitsCRT@_W@ATL@@@@@ATL@@XZ')
(4682, 4956, 2021538310L, '?GetFileName@CFileFind@@UBE?AV?$CStringT@_WV?$StrTraitMFC_DLL@_WV?$ChTraitsCRT@_W@ATL@@@@@ATL@@XZ')
(4683, 4957, 2021542370L, '?GetFileName@CGopherFileFind@@UBE?AV?$CStringT@_WV?$StrTraitMFC_DLL@_WV?$ChTraitsCRT@_W@ATL@@@@@ATL@@XZ')
(4684, 4958, 2021543289L, '?GetFilePath@CFile@@UBE?AV?$CStringT@_WV?$StrTraitMFC_DLL@_WV?$ChTraitsCRT@_W@ATL@@@@@ATL@@XZ')
(4685, 4959, 2021538026L, '?GetFilePath@CFileFind@@UBE?AV?$CStringT@_WV?$StrTraitMFC_DLL@_WV?$ChTraitsCRT@_W@ATL@@@@@ATL@@XZ')
(4686, 4960, 2021542370L, '?GetFilePath@CGopherFileFind@@UBE?AV?$CStringT@_WV?$StrTraitMFC_DLL@_WV?$ChTraitsCRT@_W@ATL@@@@@ATL@@XZ')
(4687, 4961, 2021543130L, '?GetFileTitle@CFile@@UBE?AV?$CStringT@_WV?$StrTraitMFC_DLL@_WV?$ChTraitsCRT@_W@ATL@@@@@ATL@@XZ')
(4688, 4962, 2021455732L, '?GetFileTitle@CFileDialog@@QBE?AV?$CStringT@_WV?$StrTraitMFC_DLL@_WV?$ChTraitsCRT@_W@ATL@@@@@ATL@@XZ')
(4689, 4963, 2021538184L, '?GetFileTitle@CFileFind@@UBE?AV?$CStringT@_WV?$StrTraitMFC_DLL@_WV?$ChTraitsCRT@_W@ATL@@@@@ATL@@XZ')
(4690, 4964, 2021542370L, '?GetFileTitle@CGopherFileFind@@UBE?AV?$CStringT@_WV?$StrTraitMFC_DLL@_WV?$ChTraitsCRT@_W@ATL@@@@@ATL@@XZ')
(4691, 4965, 2021715070L, '?GetFileTypeString@COleServerDoc@@MAEHAAV?$CStringT@_WV?$StrTraitMFC_DLL@_WV?$ChTraitsCRT@_W@ATL@@@@@ATL@@@Z')
(4692, 4966, 2021537889L, '?GetFileURL@CFileFind@@UBE?AV?$CStringT@_WV?$StrTraitMFC_DLL@_WV?$ChTraitsCRT@_W@ATL@@@@@ATL@@XZ')
(4693, 4967, 2021559003L, '?GetFileURL@CFtpFileFind@@UBE?AV?$CStringT@_WV?$StrTraitMFC_DLL@_WV?$ChTraitsCRT@_W@ATL@@@@@ATL@@XZ')
(4694, 4968, 2021542370L, '?GetFileURL@CGopherFileFind@@UBE?AV?$CStringT@_WV?$StrTraitMFC_DLL@_WV?$ChTraitsCRT@_W@ATL@@@@@ATL@@XZ')
(4695, 4969, 2021557238L, '?GetFileURL@CHttpFile@@UBE?AV?$CStringT@_WV?$StrTraitMFC_DLL@_WV?$ChTraitsCRT@_W@ATL@@@@@ATL@@XZ')
(4696, 4970, 2019849216L, '?GetFirstAHWindow@CMFCAutoHideBar@@QAEPAVCDockablePane@@XZ')
(4697, 4971, 2021874016L, '?GetFirstDayOfWeek@CMonthCalCtrl@@QBEHPAH@Z')
(4698, 4972, 2019846159L, '?GetFirstDocPosition@CMultiDocTemplate@@UBEPAU__POSITION@@XZ')
(4699, 4973, 2021526991L, '?GetFirstDocPosition@CSingleDocTemplate@@UBEPAU__POSITION@@XZ')
(4700, 4974, 2020052624L, '?GetFirstDocTemplatePosition@CDocManager@@UBEPAU__POSITION@@XZ')
(4701, 4975, 2021229491L, '?GetFirstDocTemplatePosition@CWinApp@@QBEPAU__POSITION@@XZ')
(4702, 4976, 2021661908L, '?GetFirstFrame@COleDocument@@QAEPAVCFrameWnd@@XZ')
(4703, 4977, 2020333371L, '?GetFirstPane@CPaneContainerManager@@UBEPAVCBasePane@@XZ')
(4704, 4978, 2020344461L, '?GetFirstPane@CPaneDivider@@QBEPBVCBasePane@@XZ')
(4705, 4979, 2020668836L, '?GetFirstTabStop@CMFCRibbonPanel@@IBEPAVCMFCRibbonBaseElement@@XZ')
(4706, 4980, 2020207193L, '?GetFirstTabWnd@CMDIClientAreaWnd@@QAEPAVCMFCTabCtrl@@XZ')
(4707, 4981, 2021500168L, '?GetFirstViewPosition@CDocument@@UBEPAU__POSITION@@XZ')
(4708, 4982, 2020338766L, '?GetFirstVisiblePane@CPaneContainerManager@@UBEPAVCWnd@@XZ')
(4709, 4983, 2020354210L, '?GetFirstVisiblePane@CPaneFrameWnd@@UBEPAVCWnd@@XZ')
(4710, 4984, 2019875541L, '?GetFirstVisibleTab@CBaseTabbedPane@@UAEPAVCWnd@@AAH@Z')
(4711, 4985, 2019891646L, '?GetFirstVisibleTab@CMFCBaseTabCtrl@@UAEPAVCWnd@@AAH@Z')
(4712, 4986, 2019891673L, '?GetFirstVisibleTab@CMFCBaseTabCtrl@@UAEPAVCWnd@@HAAH@Z')
(4713, 4987, 2020989692L, '?GetFixedWidth@CMFCToolTipCtrl@@IAEHXZ')
(4714, 4988, 2020247896L, '?GetFloatPopupDirection@CMFCMenuBar@@QAEHPAVCMFCToolBarMenuButton@@@Z')
(4715, 4989, 2021297771L, '?GetFocus@COleControl@@QAEPAVCWnd@@XZ')
(4716, 4990, 2021592453L, '?GetFocus@XOleIPSite@COleControlSite@@UAGJXZ')
(4717, 4991, 2021456575L, '?GetFolderPath@CFileDialog@@QBE?AV?$CStringT@_WV?$StrTraitMFC_DLL@_WV?$ChTraitsCRT@_W@ATL@@@@@ATL@@XZ')
(4718, 4992, 2021494337L, '?GetFont@CDialogTemplate@@QBEHAAV?$CStringT@_WV?$StrTraitMFC_DLL@_WV?$ChTraitsCRT@_W@ATL@@@@@ATL@@AAG@Z')
(4719, 4993, 2021494248L, '?GetFont@CDialogTemplate@@SAHPBUDLGTEMPLATE@@AAV?$CStringT@_WV?$StrTraitMFC_DLL@_WV?$ChTraitsCRT@_W@ATL@@@@@ATL@@AAG@Z')
(4720, 4994, 2021321690L, '?GetFont@COleControl@@QAEPAUIFontDisp@@XZ')
(4721, 4995, 2021292287L, '?GetFontDispatch@CFontHolder@@QAEPAUIFontDisp@@XZ')
(4722, 4996, 2021292077L, '?GetFontHandle@CFontHolder@@QAEPAUHFONT__@@JJ@Z')
(4723, 4997, 2021292055L, '?GetFontHandle@CFontHolder@@QAEPAUHFONT__@@XZ')
(4724, 4998, 2020561825L, '?GetFontsCount@CMFCRibbonFontComboBox@@IAEHPB_WABVCObList@@@Z')
(4725, 4999, 2020907295L, '?GetFontsCount@CMFCToolBarFontComboBox@@KGHPB_W@Z')
(4726, 5000, 2021493938L, '?GetFontSizeField@CDialogTemplate@@KAPAEPBUDLGTEMPLATE@@@Z')
(4727, 5001, 2021322385L, '?GetFontTextMetrics@COleControl@@QAEXPAUtagTEXTMETRICW@@AAVCFontHolder@@@Z')
(4728, 5002, 2021321945L, '?GetForeColor@COleControl@@QAEKXZ')
(4729, 5003, 2021704213L, '?GetFormatID@CPropertySection@@QAE?AU_GUID@@XZ')
(4730, 5004, 2021707611L, '?GetFormatVersion@CPropertySet@@QAEGXZ')
(4731, 5005, 2020218933L, '?GetFrameIcon@CMDIChildWndEx@@UBEPAUHICON__@@XZ')
(4732, 5006, 2020218861L, '?GetFrameText@CMDIChildWndEx@@UBE?AV?$CStringT@_WV?$StrTraitMFC_DLL@_WV?$ChTraitsCRT@_W@ATL@@@@@ATL@@XZ')
(4733, 5007, 2020118806L, '?GetFreeCtrlBarID@CFrameImpl@@KGIIIABVCObList@@@Z')
(4734, 5008, 2020253905L, '?GetFreeTearOffID@CMenuTearOffManager@@IAEIXZ')
(4735, 5009, 2021550355L, '?GetFtpConnection@CInternetSession@@QAEPAVCFtpConnection@@PB_W00GH@Z')
(4736, 5010, 2021782716L, '?GetFullName@CHtmlView@@QBE?AV?$CStringT@_WV?$StrTraitMFC_DLL@_WV?$ChTraitsCRT@_W@ATL@@@@@ATL@@XZ')
(4737, 5011, 2021779773L, '?GetFullScreen@CHtmlView@@QBEHXZ')
(4738, 5012, 2021465470L, '?GetFuncInfoFromId@CDHtmlControlSink@@QAEJABU_GUID@@JKAAU_ATL_FUNC_INFO@ATL@@@Z')
(4739, 5013, 2021656828L, '?GetGlobalData@COleDataObject@@QAEPAXGPAUtagFORMATETC@@@Z')
(4740, 5014, 2021550285L, '?GetGopherConnection@CInternetSession@@QAEPAVCGopherConnection@@PB_W00G@Z')
(4741, 5015, 2019960237L, '?GetGripperRect@CMFCControlBarImpl@@QAEXAAVCRect@@H@Z')
(4742, 5016, 2020191339L, '?GetGroupBounds@CMFCMaskedEdit@@AAEXAAH0HH@Z')
(4743, 5017, 2020518916L, '?GetGroupButtonExtraWidth@CMFCRibbonButton@@IAEHXZ')
(4744, 5018, 2020064122L, '?GetGroupFromPane@CDockingPanesRow@@QAEXPAVCPane@@AAVCObList@@@Z')
(4745, 5019, 2020802652L, '?GetGroupLocation@CMFCTasksPane@@QBEHPAVCMFCTasksPaneTaskGroup@@AAH@Z')
(4746, 5020, 2020638227L, '?GetGroupName@CMFCRibbonGallery@@QBEPB_WH@Z')
(4747, 5021, 2021275082L, '?GetGUID@XProvideClassInfo@COleControl@@UAGJKPAU_GUID@@@Z')
(4748, 5022, 2021906901L, '?GetHalftoneBrush@CDC@@SGPAVCBrush@@XZ')
(4749, 5023, 2020150525L, '?GetHandCursor@AFX_GLOBAL_DATA@@QAEPAUHICON__@@XZ')
(4750, 5024, 2021765801L, '?GetHandleMask@CRectTracker@@UBEIXZ')
(4751, 5025, 2021764230L, '?GetHandleRect@CRectTracker@@IBEXHPAVCRect@@@Z')
(4752, 5026, 2021764473L, '?GetHandleSize@CRectTracker@@MBEHPBUtagRECT@@@Z')
(4753, 5027, 2021878527L, '?GetHeaderCtrl@CListCtrl@@QBEPAVCHeaderCtrl@@XZ')
(4754, 5028, 2021778955L, '?GetHeight@CHtmlView@@QBEJXZ')
(4755, 5029, 2020652063L, '?GetHeight@CMFCRibbonPanel@@MBEHPAVCDC@@@Z')
(4756, 5030, 2020247798L, '?GetHelpCombobox@CMFCMenuBar@@QAEPAVCMFCToolBarComboBoxButton@@XZ')
(4757, 5031, 2021665821L, '?GetHelpMenu@COleDocObjectItem@@MAEPAVCMenu@@AAI@Z')
(4758, 5032, 2020414099L, '?GetHierarchyLevel@CMFCPropertyGridProperty@@QBEHXZ')
(4759, 5033, 2019865843L, '?GetHighlighted@CMFCRibbonBaseElement@@UAEPAV1@XZ')
(4760, 5034, 2020523079L, '?GetHighlighted@CMFCRibbonButtonsGroup@@MAEPAVCMFCRibbonBaseElement@@XZ')
(4761, 5035, 2020641626L, '?GetHighlighted@CMFCRibbonGallery@@MAEPAVCMFCRibbonBaseElement@@XZ')
(4762, 5036, 2020666585L, '?GetHighlighted@CMFCRibbonPanel@@QBEPAVCMFCRibbonBaseElement@@XZ')
(4763, 5037, 2020851724L, '?GetHighlightedButton@CMFCToolBar@@QBEPAVCMFCToolBarButton@@XZ')
(4764, 5038, 2019931626L, '?GetHighlightedColor@CMFCColorBar@@QBEKXZ')
(4765, 5039, 2020554886L, '?GetHighlightedColor@CMFCRibbonColorButton@@QBEKXZ')
(4766, 5040, 2020996657L, '?GetHighlightedMenuItemTextColor@CMFCVisualManager@@UAEKPAVCMFCToolBarMenuButton@@@Z')
(4767, 5041, 2021112133L, '?GetHighlightedMenuItemTextColor@CMFCVisualManagerOffice2007@@UAEKPAVCMFCToolBarMenuButton@@@Z')
(4768, 5042, 2021139307L, '?GetHighlightedMenuItemTextColor@CMFCVisualManagerOfficeXP@@MAEKPAVCMFCToolBarMenuButton@@@Z')
(4769, 5043, 2021168757L, '?GetHighlightedMenuItemTextColor@CMFCVisualManagerWindows@@UAEKPAVCMFCToolBarMenuButton@@@Z')
(4770, 5044, 2019917869L, '?GetHit@CMFCCaptionButton@@QBEIXZ')
(4771, 5045, 2021926942L, '?GetHitRect@CSplitterWnd@@MAEXHAAVCRect@@@Z')
(4772, 5046, 2020690918L, '?GetHitTest@CMFCRibbonSlider@@IBEHVCPoint@@@Z')
(4773, 5047, 2019948040L, '?GetHLS@CMFCColorPickerCtrl@@QAEXPAN00@Z')
(4774, 5048, 2021466591L, '?GetHostInfo@CBrowserControlSite@@MAGJPAU_DOCHOSTUIINFO@@@Z')
(4775, 5049, 2021478621L, '?GetHostInfo@CDHtmlDialog@@UAGJPAU_DOCHOSTUIINFO@@@Z')
(4776, 5050, 2021777462L, '?GetHostInfo@XDocHostUIHandler@CHtmlControlSite@@UAGJPAU_DOCHOSTUIINFO@@@Z')
(4777, 5051, 2020989433L, '?GetHotButton@CMFCToolTipCtrl@@IAEXXZ')
(4778, 5052, 2021859887L, '?GetHotKey@CHotKeyCtrl@@QBEXAAG0@Z')
(4779, 5053, 2021860064L, '?GetHotKeyName@CHotKeyCtrl@@QBE?AV?$CStringT@_WV?$StrTraitMFC_DLL@_WV?$ChTraitsCRT@_W@ATL@@@@@ATL@@XZ')
(4780, 5054, 2020853030L, '?GetHotTextColor@CMFCToolBar@@SGKXZ')
(4781, 5055, 2021779656L, '?GetHtmlDocument@CHtmlView@@QBEPAUIDispatch@@XZ')
(4782, 5056, 2021550428L, '?GetHttpConnection@CInternetSession@@QAEPAVCHttpConnection@@PB_WG00@Z')
(4783, 5057, 2021550498L, '?GetHttpConnection@CInternetSession@@QAEPAVCHttpConnection@@PB_WKG00@Z')
(4784, 5058, 2021322090L, '?GetHwnd@COleControl@@QAEIXZ')
(4785, 5059, 2021842219L, '?GetHWND@XAccessibleServer@CWnd@@UAGJPAPAUHWND__@@@Z')
(4786, 5060, 2020643905L, '?GetIconDescription@CMFCRibbonGallery@@MBE?AV?$CStringT@_WV?$StrTraitMFC_DLL@_WV?$ChTraitsCRT@_W@ATL@@@@@ATL@@PBVCMFCRibbonGalleryIcon@@@Z')
(4787, 5061, 2021616910L, '?GetIconFromRegistry@COleClientItem@@QBEPAUHICON__@@XZ')
(4788, 5062, 2021616988L, '?GetIconFromRegistry@COleClientItem@@SAPAUHICON__@@AAU_GUID@@@Z')
(4789, 5063, 2021621728L, '?GetIconicMetafile@COleClientItem@@QAEPAXXZ')
(4790, 5064, 2019917950L, '?GetIconID@CMFCCaptionButton@@UBE?AW4IMAGES_IDS@CMenuImages@@HH@Z')
(4791, 5065, 2020644785L, '?GetIconSize@CMFCRibbonGallery@@MBE?AVCSize@@XZ')
(4792, 5066, 2020705619L, '?GetIconSize@CMFCRibbonUndoButton@@MBE?AVCSize@@XZ')
(4793, 5067, 2020987647L, '?GetIconSize@CMFCToolTipCtrl@@UAE?AVCSize@@XZ')
(4794, 5068, 2020556731L, '?GetIconToolTip@CMFCRibbonColorButton@@MBE?AV?$CStringT@_WV?$StrTraitMFC_DLL@_WV?$ChTraitsCRT@_W@ATL@@@@@ATL@@PBVCMFCRibbonGalleryIcon@@@Z')
(4795, 5069, 2020643583L, '?GetIconToolTip@CMFCRibbonGallery@@MBE?AV?$CStringT@_WV?$StrTraitMFC_DLL@_WV?$ChTraitsCRT@_W@ATL@@@@@ATL@@PBVCMFCRibbonGalleryIcon@@@Z')
(4796, 5070, 2021883330L, '?GetIconWndClass@CFrameWnd@@IAEPB_WKI@Z')
(4797, 5071, 2021702797L, '?GetID@CProperty@@QAEKXZ')
(4798, 5072, 2021705522L, '?GetID@CPropertySection@@QAEHPB_WPAK@Z')
(4799, 5073, 2021656231L, '?GetIDataObject@COleDataObject@@QAEPAUIDataObject@@H@Z')
(4800, 5074, 2021648153L, '?GetIDispatch@CCmdTarget@@QAEPAUIDispatch@@H@Z')
(4801, 5075, 2021464928L, '?GetIDsOfNames@CDHtmlControlSink@@UAGJABU_GUID@@PAPA_WIKPAJ@Z')
(4802, 5076, 2021464928L, '?GetIDsOfNames@CDHtmlElementEventSink@@UAGJABU_GUID@@PAPA_WIKPAJ@Z')
(4803, 5077, 2021464928L, '?GetIDsOfNames@CDHtmlEventSink@@UAGJABU_GUID@@PAPA_WIKPAJ@Z')
(4804, 5078, 2021650099L, '?GetIDsOfNames@COleDispatchImpl@@UAGJABU_GUID@@PAPA_WIKPAJ@Z')
(4805, 5079, 2021840135L, '?GetIDsOfNames@XAccessible@CWnd@@UAGJABU_GUID@@PAPA_WIKPAJ@Z')
(4806, 5080, 2021464928L, '?GetIDsOfNames@XAmbientProps@COleControlSite@@UAGJABU_GUID@@PAPA_WIKPAJ@Z')
(4807, 5081, 2021464928L, '?GetIDsOfNames@XEventSink@COleControlSite@@UAGJABU_GUID@@PAPA_WIKPAJ@Z')
(4808, 5082, 2021452518L, '?GetIFileDialogCustomize@CFileDialog@@QAEPAUIFileDialogCustomize@@XZ')
(4809, 5083, 2021452420L, '?GetIFileOpenDialog@CFileDialog@@QAEPAUIFileOpenDialog@@XZ')
(4810, 5084, 2021452469L, '?GetIFileSaveDialog@CFileDialog@@QAEPAUIFileSaveDialog@@XZ')
(4811, 5085, 2021275203L, '?GetIID@XEventConnPt@COleControl@@UAEABU_GUID@@XZ')
(4812, 5086, 2019905862L, '?GetImageHorzMargin@CMFCButton@@MBEHXZ')
(4813, 5087, 2020863925L, '?GetImageList@CMFCToolBar@@IBEPAVCMFCToolBarImages@@AAV2@000@Z')
(4814, 5088, 2021877943L, '?GetImageList@CReBarCtrl@@QBEPAVCImageList@@XZ')
(4815, 5089, 2020951431L, '?GetImageRect@CMFCToolBarMenuButton@@QAEXAAVCRect@@@Z')
(4816, 5090, 2019915176L, '?GetImageSize@CMFCCaptionBar@@IBE?AVCSize@@XZ')
(4817, 5091, 2020515030L, '?GetImageSize@CMFCRibbonButton@@UBE?AVCSize@@W4RibbonImageType@CMFCRibbonBaseElement@@@Z')
(4818, 5092, 2020524820L, '?GetImageSize@CMFCRibbonButtonsGroup@@QBE?BVCSize@@XZ')
(4819, 5093, 2020533458L, '?GetImageSize@CMFCRibbonCategory@@QBE?AVCSize@@H@Z')
(4820, 5094, 2020663954L, '?GetIndex@CMFCRibbonPanel@@UBEHPAVCMFCRibbonBaseElement@@@Z')
(4821, 5095, 2021373918L, '?GetIndexCount@CDaoRecordset@@QAEFXZ')
(4822, 5096, 2021363477L, '?GetIndexCount@CDaoTableDef@@QAEFXZ')
(4823, 5097, 2021373994L, '?GetIndexInfo@CDaoRecordset@@QAEXHAAUCDaoIndexInfo@@K@Z')
(4824, 5098, 2021374192L, '?GetIndexInfo@CDaoRecordset@@QAEXPB_WAAUCDaoIndexInfo@@K@Z')
(4825, 5099, 2021363553L, '?GetIndexInfo@CDaoTableDef@@QAEXHAAUCDaoIndexInfo@@K@Z')
(4826, 5100, 2021363751L, '?GetIndexInfo@CDaoTableDef@@QAEXPB_WAAUCDaoIndexInfo@@K@Z')
(4827, 5101, 2021348585L, '?GetIniPath@CDaoWorkspace@@SG?AV?$CStringT@_WV?$StrTraitMFC_DLL@_WV?$ChTraitsCRT@_W@ATL@@@@@ATL@@XZ')
(4828, 5102, 2020134733L, '?GetInPlaceActiveItem@CFrameWndEx@@MAEPAVCOleClientItem@@XZ')
(4829, 5103, 2020134733L, '?GetInPlaceActiveItem@CMDIFrameWndEx@@MAEPAVCOleClientItem@@XZ')
(4830, 5104, 2021734549L, '?GetInPlaceActiveItem@COleDocument@@UAEPAVCOleClientItem@@PAVCWnd@@@Z')
(4831, 5105, 2021813827L, '?GetInPlaceActiveItem@CRichEditDoc@@UAEPAVCOleClientItem@@PAVCWnd@@@Z')
(4832, 5106, 2021809422L, '?GetInPlaceActiveItem@CRichEditView@@QBEPAVCRichEditCntrItem@@XZ')
(4833, 5107, 2021804998L, '?GetInPlaceContext@XRichEditOleCallback@CRichEditView@@UAGJPAPAUIOleInPlaceFrame@@PAPAUIOleInPlaceUIWindow@@PAUtagOIFI@@@Z')
(4834, 5108, 2021688995L, '?GetInPlaceMenu@COleIPFrameWnd@@MAEPAUHMENU__@@XZ')
(4835, 5109, 2021676883L, '?GetInPlaceSite@XOleDocumentView@CDocObjectServer@@UAGJPAPAUIOleInPlaceSite@@@Z')
(4836, 5110, 2021628539L, '?GetInPlaceWindow@COleClientItem@@QAEPAVCWnd@@XZ')
(4837, 5111, 2021925635L, '?GetInsideRect@CSplitterWnd@@MBEXAAVCRect@@@Z')
(4838, 5112, 2021212474L, '?GetInt@CWinAppEx@@QAEHPB_WH@Z')
(4839, 5113, 2021735908L, '?GetInterface@CCmdTarget@@QAEPAUIUnknown@@PBX@Z')
(4840, 5114, 2021466467L, '?GetInterfaceHook@CBrowserControlSite@@MAEPAUIUnknown@@PBX@Z')
(4841, 5115, 2020790482L, '?GetInterfaceHook@CCmdTarget@@UAEPAUIUnknown@@PBX@Z')
(4842, 5116, 2021277014L, '?GetInterfaceHook@COleControl@@MAEPAUIUnknown@@PBX@Z')
(4843, 5117, 2021713887L, '?GetInterfaceHook@COleServerDoc@@MAEPAUIUnknown@@PBX@Z')
(4844, 5118, 2021273300L, '?GetInterfaceMap@CCmdTarget@@MBEPBUAFX_INTERFACEMAP@@XZ')
(4845, 5119, 2021668337L, '?GetInterfaceMap@CDocObjectServer@@MBEPBUAFX_INTERFACEMAP@@XZ')
(4846, 5120, 2021635637L, '?GetInterfaceMap@CEnumConnections@@MBEPBUAFX_INTERFACEMAP@@XZ')
(4847, 5121, 2021636274L, '?GetInterfaceMap@CEnumConnPoints@@MBEPBUAFX_INTERFACEMAP@@XZ')
(4848, 5122, 2021658725L, '?GetInterfaceMap@CEnumFormatEtc@@MBEPBUAFX_INTERFACEMAP@@XZ')
(4849, 5123, 2021746110L, '?GetInterfaceMap@CEnumOleVerb@@MBEPBUAFX_INTERFACEMAP@@XZ')
(4850, 5124, 2021574376L, '?GetInterfaceMap@CEnumUnknown@@MBEPBUAFX_INTERFACEMAP@@XZ')
(4851, 5125, 2021452708L, '?GetInterfaceMap@CFileDialog@@MBEPBUAFX_INTERFACEMAP@@XZ')
(4852, 5126, 2021777241L, '?GetInterfaceMap@CHtmlControlSite@@MBEPBUAFX_INTERFACEMAP@@XZ')
(4853, 5127, 2021623813L, '?GetInterfaceMap@COleClientItem@@MBEPBUAFX_INTERFACEMAP@@XZ')
(4854, 5128, 2021275790L, '?GetInterfaceMap@COleControl@@MBEPBUAFX_INTERFACEMAP@@XZ')
(4855, 5129, 2021570086L, '?GetInterfaceMap@COleControlContainer@@MBEPBUAFX_INTERFACEMAP@@XZ')
(4856, 5130, 2021583139L, '?GetInterfaceMap@COleControlSite@@MBEPBUAFX_INTERFACEMAP@@XZ')
(4857, 5131, 2021659075L, '?GetInterfaceMap@COleDataSource@@MBEPBUAFX_INTERFACEMAP@@XZ')
(4858, 5132, 2021664564L, '?GetInterfaceMap@COleDocObjectItem@@MBEPBUAFX_INTERFACEMAP@@XZ')
(4859, 5133, 2021678652L, '?GetInterfaceMap@COleDropSource@@MBEPBUAFX_INTERFACEMAP@@XZ')
(4860, 5134, 2021680709L, '?GetInterfaceMap@COleDropTarget@@MBEPBUAFX_INTERFACEMAP@@XZ')
(4861, 5135, 2021628597L, '?GetInterfaceMap@COleFrameHook@@MBEPBUAFX_INTERFACEMAP@@XZ')
(4862, 5136, 2021691366L, '?GetInterfaceMap@COleLinkingDoc@@MBEPBUAFX_INTERFACEMAP@@XZ')
(4863, 5137, 2021700835L, '?GetInterfaceMap@COleMessageFilter@@MBEPBUAFX_INTERFACEMAP@@XZ')
(4864, 5138, 2021682724L, '?GetInterfaceMap@COleObjectFactory@@MBEPBUAFX_INTERFACEMAP@@XZ')
(4865, 5139, 2021305215L, '?GetInterfaceMap@COlePropertyPage@@MBEPBUAFX_INTERFACEMAP@@XZ')
(4866, 5140, 2021721046L, '?GetInterfaceMap@COleServerDoc@@MBEPBUAFX_INTERFACEMAP@@XZ')
(4867, 5141, 2021730154L, '?GetInterfaceMap@COleServerItem@@MBEPBUAFX_INTERFACEMAP@@XZ')
(4868, 5142, 2021804782L, '?GetInterfaceMap@CRichEditView@@MBEPBUAFX_INTERFACEMAP@@XZ')
(4869, 5143, 2021839795L, '?GetInterfaceMap@CWnd@@MBEPBUAFX_INTERFACEMAP@@XZ')
(4870, 5144, 2020511715L, '?GetIntermediateSize@CMFCRibbonButton@@UAE?AVCSize@@PAVCDC@@@Z')
(4871, 5145, 2020537611L, '?GetIntermediateSize@CMFCRibbonCheckBox@@UAE?AVCSize@@PAVCDC@@@Z')
(4872, 5146, 2020558593L, '?GetIntermediateSize@CMFCRibbonComboBox@@UAE?AVCSize@@PAVCDC@@@Z')
(4873, 5147, 2020573548L, '?GetIntermediateSize@CMFCRibbonEdit@@UAE?AVCSize@@PAVCDC@@@Z')
(4874, 5148, 2020626041L, '?GetIntermediateSize@CMFCRibbonLabel@@MAE?AVCSize@@PAVCDC@@@Z')
(4875, 5149, 2020702515L, '?GetIntermediateSize@CMFCRibbonStatusBarPane@@MAE?AVCSize@@PAVCDC@@@Z')
(4876, 5150, 2020828314L, '?GetInvalidateItemRect@CMFCToolBar@@UBEXHPAUtagRECT@@@Z')
(4877, 5151, 2020903842L, '?GetInvalidateRect@CMFCToolBarEditBoxButton@@UBE?BVCRect@@XZ')
(4878, 5152, 2021870968L, '?GetIRichEditOle@CRichEditCtrl@@QBEPAUIRichEditOle@@XZ')
(4879, 5153, 2021349763L, '?GetIsolateODBCTrans@CDaoWorkspace@@QAEHXZ')
(4880, 5154, 2021877622L, '?GetItem@CComboBoxEx@@QAEHPAUtagCOMBOBOXEXITEMW@@@Z')
(4881, 5155, 2020100484L, '?GetItem@CMFCDropDownListBox@@IBEPAVCMFCToolBarButton@@H@Z')
(4882, 5156, 2020557708L, '?GetItem@CMFCRibbonComboBox@@QBEPB_WH@Z')
(4883, 5157, 2020888098L, '?GetItem@CMFCToolBarComboBoxButton@@QBEPB_WH@Z')
(4884, 5158, 2020893400L, '?GetItemAll@CMFCToolBarComboBoxButton@@SGPB_WIH@Z')
(4885, 5159, 2021714547L, '?GetItemClipRect@COleServerDoc@@QBEXPAUtagRECT@@@Z')
(4886, 5160, 2020717236L, '?GetItemCount@CShellManager@@QAEIPBU_ITEMIDLIST@@@Z')
(4887, 5161, 2021857264L, '?GetItemData@CListCtrl@@QBEKH@Z')
(4888, 5162, 2020557764L, '?GetItemData@CMFCRibbonComboBox@@QBEKH@Z')
(4889, 5163, 2020888189L, '?GetItemData@CMFCToolBarComboBoxButton@@QBEKH@Z')
(4890, 5164, 2021857992L, '?GetItemData@CTreeCtrl@@QBEKPAU_TREEITEM@@@Z')
(4891, 5165, 2021205265L, '?GetItemData@CVSListBox@@UBEKH@Z')
(4892, 5166, 2020893442L, '?GetItemDataAll@CMFCToolBarComboBoxButton@@SGKIH@Z')
(4893, 5167, 2020893485L, '?GetItemDataPtrAll@CMFCToolBarComboBoxButton@@SGPAXIH@Z')
(4894, 5168, 2021858889L, '?GetItemExpandedImageIndex@CTreeCtrl@@QBEHPAU_TREEITEM@@@Z')
(4895, 5169, 2020743510L, '?GetItemID@CMFCStatusBar@@QBEIH@Z')
(4896, 5170, 2020828214L, '?GetItemID@CMFCToolBar@@QBEIH@Z')
(4897, 5171, 2021259953L, '?GetItemID@CStatusBar@@QBEIH@Z')
(4898, 5172, 2021264693L, '?GetItemID@CToolBar@@QBEIH@Z')
(4899, 5173, 2020497443L, '?GetItemIDsList@CMFCRibbonBar@@QBEXAAV?$CList@II@@H@Z')
(4900, 5174, 2019867704L, '?GetItemIDsList@CMFCRibbonBaseElement@@MBEXAAV?$CList@II@@@Z')
(4901, 5175, 2020524192L, '?GetItemIDsList@CMFCRibbonButtonsGroup@@MBEXAAV?$CList@II@@@Z')
(4902, 5176, 2020532960L, '?GetItemIDsList@CMFCRibbonCategory@@QBEXAAV?$CList@II@@H@Z')
(4903, 5177, 2020666223L, '?GetItemIDsList@CMFCRibbonPanel@@QBEXAAV?$CList@II@@@Z')
(4904, 5178, 2021857859L, '?GetItemImage@CTreeCtrl@@QBEHPAU_TREEITEM@@AAH1@Z')
(4905, 5179, 2021616793L, '?GetItemName@COleClientItem@@QBEXPA_W@Z')
(4906, 5180, 2021616817L, '?GetItemName@COleClientItem@@QBEXPA_WI@Z')
(4907, 5181, 2021858781L, '?GetItemPartRect@CTreeCtrl@@QAEHPAU_TREEITEM@@W4_TVITEMPART@@PAUtagRECT@@@Z')
(4908, 5182, 2020712327L, '?GetItemPath@CMFCShellListCtrl@@QBEHAAV?$CStringT@_WV?$StrTraitMFC_DLL@_WV?$ChTraitsCRT@_W@ATL@@@@@ATL@@H@Z')
(4909, 5183, 2020721601L, '?GetItemPath@CMFCShellTreeCtrl@@QBEHAAV?$CStringT@_WV?$StrTraitMFC_DLL@_WV?$ChTraitsCRT@_W@ATL@@@@@ATL@@PAU_TREEITEM@@@Z')
(4910, 5184, 2021714510L, '?GetItemPosition@COleServerDoc@@QBEXPAUtagRECT@@@Z')
(4911, 5185, 2021856318L, '?GetItemRect@CListCtrl@@QBEHHPAUtagRECT@@I@Z')
(4912, 5186, 2020743539L, '?GetItemRect@CMFCStatusBar@@QBEXHPAUtagRECT@@@Z')
(4913, 5187, 2020828243L, '?GetItemRect@CMFCToolBar@@UBEXHPAUtagRECT@@@Z')
(4914, 5188, 2021259982L, '?GetItemRect@CStatusBar@@QBEXHPAUtagRECT@@@Z')
(4915, 5189, 2021264746L, '?GetItemRect@CToolBar@@UBEXHPAUtagRECT@@@Z')
(4916, 5190, 2021857683L, '?GetItemRect@CTreeCtrl@@QBEHPAU_TREEITEM@@PAUtagRECT@@H@Z')
(4917, 5191, 2020717285L, '?GetItemSize@CShellManager@@QAEIPBU_ITEMIDLIST@@@Z')
(4918, 5192, 2021860591L, '?GetItemState@CTabCtrl@@QBEKHK@Z')
(4919, 5193, 2021857929L, '?GetItemState@CTreeCtrl@@QBEIPAU_TREEITEM@@I@Z')
(4920, 5194, 2021858836L, '?GetItemStateEx@CTreeCtrl@@QBEIPAU_TREEITEM@@@Z')
(4921, 5195, 2021620669L, '?GetItemStorage@COleClientItem@@UAEXXZ')
(4922, 5196, 2021619856L, '?GetItemStorageCompound@COleClientItem@@QAEXXZ')
(4923, 5197, 2021619297L, '?GetItemStorageFlat@COleClientItem@@QAEXXZ')
(4924, 5198, 2021857045L, '?GetItemText@CListCtrl@@QBE?AV?$CStringT@_WV?$StrTraitMFC_DLL@_WV?$ChTraitsCRT@_W@ATL@@@@@ATL@@HH@Z')
(4925, 5199, 2021857187L, '?GetItemText@CListCtrl@@QBEHHHPA_WH@Z')
(4926, 5200, 2021857723L, '?GetItemText@CTreeCtrl@@QBE?AV?$CStringT@_WV?$StrTraitMFC_DLL@_WV?$ChTraitsCRT@_W@ATL@@@@@ATL@@PAU_TREEITEM@@@Z')
(4927, 5201, 2021205195L, '?GetItemText@CVSListBox@@UBE?AV?$CStringT@_WV?$StrTraitMFC_DLL@_WV?$ChTraitsCRT@_W@ATL@@@@@ATL@@H@Z')
(4928, 5202, 2020643520L, '?GetItemToolTip@CMFCRibbonGallery@@QBEPB_WH@Z')
(4929, 5203, 2021209278L, '?GetKeyboardManager@CWinAppEx@@QAEPAVCKeyboardManager@@XZ')
(4930, 5204, 2021859940L, '?GetKeyName@CHotKeyCtrl@@SA?AV?$CStringT@_WV?$StrTraitMFC_DLL@_WV?$ChTraitsCRT@_W@ATL@@@@@ATL@@IH@Z')
(4931, 5205, 2020516712L, '?GetKeyTipRect@CMFCRibbonButton@@MAE?AVCRect@@PAVCDC@@H@Z')
(4932, 5206, 2020644413L, '?GetKeyTipRect@CMFCRibbonGallery@@MAE?AVCRect@@PAVCDC@@H@Z')
(4933, 5209, 2019869098L, '?GetKeyTipSize@CMFCRibbonBaseElement@@UAE?AVCSize@@PAVCDC@@@Z')
(4934, 5210, 2021537366L, '?GetLastAccessTime@CFileFind@@UBEHAAVCTime@ATL@@@Z')
(4935, 5211, 2021537228L, '?GetLastAccessTime@CFileFind@@UBEHPAU_FILETIME@@@Z')
(4936, 5212, 2021559726L, '?GetLastAccessTime@CGopherFileFind@@UBEHAAVCTime@ATL@@@Z')
(4937, 5213, 2021559651L, '?GetLastAccessTime@CGopherFileFind@@UBEHPAU_FILETIME@@@Z')
(4938, 5214, 2021372048L, '?GetLastModifiedBookmark@CDaoRecordset@@QAE?AVCOleVariant@@XZ')
(4939, 5215, 2020643980L, '?GetLastSelectedItem@CMFCRibbonGallery@@SGHI@Z')
(4940, 5216, 2020669109L, '?GetLastTabStop@CMFCRibbonPanel@@IBEPAVCMFCRibbonBaseElement@@XZ')
(4941, 5217, 2021639629L, '?GetLastUpdate@COleUILinkInfo@@UAGJKPAU_FILETIME@@@Z')
(4942, 5218, 2019891776L, '?GetLastVisibleTab@CMFCBaseTabCtrl@@UAEPAVCWnd@@AAH@Z')
(4943, 5219, 2021537496L, '?GetLastWriteTime@CFileFind@@UBEHAAVCTime@ATL@@@Z')
(4944, 5220, 2021537274L, '?GetLastWriteTime@CFileFind@@UBEHPAU_FILETIME@@@Z')
(4945, 5221, 2021559667L, '?GetLastWriteTime@CGopherFileFind@@UBEHAAVCTime@ATL@@@Z')
(4946, 5222, 2021559599L, '?GetLastWriteTime@CGopherFileFind@@UBEHPAU_FILETIME@@@Z')
(4947, 5223, 2021899776L, '?GetLayout@CDC@@QBEKXZ')
(4948, 5224, 2021411793L, '?GetLBFetchSize@CRecordset@@MAEJJ@Z')
(4949, 5225, 2021743745L, '?GetLBound@COleSafeArray@@QAEXKPAJ@Z')
(4950, 5226, 2021411793L, '?GetLBReallocSize@CRecordset@@MAEJJ@Z')
(4951, 5227, 2021853498L, '?GetLBText@CComboBox@@QBEXHAAV?$CStringT@_WV?$StrTraitMFC_DLL@_WV?$ChTraitsCRT@_W@ATL@@@@@ATL@@@Z')
(4952, 5228, 2021778829L, '?GetLeft@CHtmlView@@QBEJXZ')
(4953, 5229, 2019845201L, '?GetLength@?$CSimpleStringT@_W$00@ATL@@QBEHXZ')
(4954, 5230, 2019845201L, '?GetLength@?$CSimpleStringT@D$00@ATL@@QBEHXZ')
(4955, 5231, 2021533958L, '?GetLength@CFile@@UBE_KXZ')
(4956, 5232, 2021538391L, '?GetLength@CFileFind@@QBE_KXZ')
(4957, 5233, 2021559861L, '?GetLength@CGopherFileFind@@UBE_KXZ')
(4958, 5234, 2021553676L, '?GetLength@CInternetFile@@UBE_KXZ')
(4959, 5235, 2021541908L, '?GetLength@CMemFile@@UBE_KXZ')
(4960, 5236, 2021712975L, '?GetLength@COleStreamFile@@UBE_KXZ')
(4961, 5237, 2021752326L, '?GetLength@CSocketFile@@UBE_KXZ')
(4962, 5238, 2021546883L, '?GetLength@CStdioFile@@UBE_KXZ')
(4963, 5239, 2021287521L, '?GetLicenseKey@COleObjectFactory@@MAEHKPAPA_W@Z')
(4964, 5240, 2021684832L, '?GetLicInfo@XClassFactory@COleObjectFactory@@UAGJPAUtagLICINFO@@@Z')
(4965, 5241, 2021870381L, '?GetLine@CRichEditCtrl@@QBEHHPA_W@Z')
(4966, 5242, 2021870688L, '?GetLine@CRichEditCtrl@@QBEHHPA_WH@Z')
(4967, 5243, 2021637681L, '?GetLinkItem@COleUILinkInfo@@AAEPAVCOleClientItem@@K@Z')
(4968, 5244, 2021638737L, '?GetLinkSource@COleUILinkInfo@@UAGJKPAPA_WPAK00PAH2@Z')
(4969, 5245, 2021623172L, '?GetLinkSourceData@COleClientItem@@IAEHPAUtagSTGMEDIUM@@@Z')
(4970, 5246, 2021729648L, '?GetLinkSourceData@COleServerItem@@QAEHPAUtagSTGMEDIUM@@@Z')
(4971, 5247, 2021634076L, '?GetLinkUpdateOptions@COleClientItem@@QAE?AW4tagOLEUPDATE@@XZ')
(4972, 5248, 2021637858L, '?GetLinkUpdateOptions@COleUILinkInfo@@UAGJKPAK@Z')
(4973, 5249, 2021704765L, '?GetList@CPropertySection@@QAEPAVCPtrList@@XZ')
(4974, 5250, 2021707710L, '?GetList@CPropertySet@@QAEPAVCPtrList@@XZ')
(4975, 5251, 2021779081L, '?GetLocationName@CHtmlView@@QBE?AV?$CStringT@_WV?$StrTraitMFC_DLL@_WV?$ChTraitsCRT@_W@ATL@@@@@ATL@@XZ')
(4976, 5252, 2021779222L, '?GetLocationURL@CHtmlView@@QBE?AV?$CStringT@_WV?$StrTraitMFC_DLL@_WV?$ChTraitsCRT@_W@ATL@@@@@ATL@@XZ')
(4977, 5253, 2021559742L, '?GetLocator@CGopherFileFind@@QBE?AVCGopherLocator@@XZ')
(4978, 5254, 2021376482L, '?GetLockingMode@CDaoRecordset@@QAEHXZ')
(4979, 5255, 2021349222L, '?GetLoginTimeout@CDaoWorkspace@@SGFXZ')
(4980, 5256, 2021423174L, '?GetLongBinaryData@CFieldExchange@@QAEXHAAVCLongBinary@@PAJ@Z')
(4981, 5257, 2021412758L, '?GetLongBinaryDataAndCleanup@CRecordset@@SGXPAVCDatabase@@PAXFJPAPAXJAAVCDBVariant@@F@Z')
(4982, 5258, 2021423093L, '?GetLongBinarySize@CFieldExchange@@QAEJH@Z')
(4983, 5259, 2021412662L, '?GetLongCharDataAndCleanup@CRecordset@@SGXPAVCDatabase@@PAXFJPAPAXJAAV?$CStringT@_WV?$StrTraitMFC_DLL@_WV?$ChTraitsCRT@_W@ATL@@@@@ATL@@FF@Z')
(4984, 5260, 2021412710L, '?GetLongCharDataAndCleanup@CRecordset@@SGXPAVCDatabase@@PAXFJPAPAXJAAV?$CStringT@DV?$StrTraitMFC_DLL@DV?$ChTraitsCRT@D@ATL@@@@@ATL@@FF@Z')
(4985, 5261, 2021757916L, '?GetMainWnd@CWinThread@@UAEPAVCWnd@@XZ')
(4986, 5262, 2019849770L, '?GetManager@?$CSimpleStringT@_W$00@ATL@@QBEPAUIAtlStringMgr@2@XZ')
(4987, 5263, 2019849770L, '?GetManager@?$CSimpleStringT@D$00@ATL@@QBEPAUIAtlStringMgr@2@XZ')
(4988, 5264, 2021948236L, '?GetManager@?$CStringT@_WV?$StrTraitMFC_DLL@_WV?$ChTraitsCRT@_W@ATL@@@@@ATL@@QBEPAUIAtlStringMgr@2@XZ')
(4989, 5265, 2021948236L, '?GetManager@?$CStringT@DV?$StrTraitMFC_DLL@DV?$ChTraitsCRT@D@ATL@@@@@ATL@@QBEPAUIAtlStringMgr@2@XZ')
(4990, 5266, 2021490044L, '?GetMargins@CPageSetupDialog@@QBEXPAUtagRECT@@0@Z')
(4991, 5267, 2020917594L, '?GetMask@CMFCToolBarImages@@QAEPAUHBITMAP__@@H@Z')
(4992, 5268, 2020185816L, '?GetMaskedValue@CMFCMaskedEdit@@IBE?BV?$CStringT@_WV?$StrTraitMFC_DLL@_WV?$ChTraitsCRT@_W@ATL@@@@@ATL@@H@Z')
(4993, 5269, 2021634767L, '?GetMaxConnections@CConnectionPoint@@UAEHXZ')
(4994, 5270, 2020529242L, '?GetMaxHeight@CMFCRibbonCategory@@QAEHPAVCDC@@@Z')
(4995, 5271, 2020060324L, '?GetMaxPaneSize@CDockingPanesRow@@QBEHH@Z')
(4996, 5272, 2019891976L, '?GetMaxWindowSize@CMFCBaseTabCtrl@@UBE?AVCSize@@XZ')
(4997, 5273, 2021913228L, '?GetMDIFrame@CMDIChildWnd@@QAEPAVCMDIFrameWnd@@XZ')
(4998, 5274, 2020206805L, '?GetMDITabsContextMenuAllowedItems@CMDIClientAreaWnd@@QAEKXZ')
(4999, 5275, 2021893135L, '?GetMenu@CFrameWnd@@UBEPAVCMenu@@XZ')
(5000, 5276, 2021827127L, '?GetMenu@CWnd@@UBEPAVCMenu@@XZ')
(5001, 5277, 2021779729L, '?GetMenuBar@CHtmlView@@QBEHXZ')
(5002, 5278, 2021893261L, '?GetMenuBarInfo@CFrameWnd@@QBEHJJPAUtagMENUBARINFO@@@Z')
(5003, 5279, 2021322114L, '?GetMenuBarState@CFrameWnd@@UBEKXZ')
(5004, 5280, 2021892948L, '?GetMenuBarVisibility@CFrameWnd@@UBEKXZ')
(5005, 5281, 2020855231L, '?GetMenuButtonSize@CMFCToolBar@@SG?AVCSize@@XZ')
(5006, 5282, 2019957930L, '?GetMenuById@CContextMenuManager@@QBEPAUHMENU__@@I@Z')
(5007, 5283, 2019956758L, '?GetMenuByName@CContextMenuManager@@QBEPAUHMENU__@@PB_WPAI@Z')
(5008, 5284, 2020630743L, '?GetMenuElements@CMFCRibbonMainPanel@@IBEHXZ')
(5009, 5285, 2020246043L, '?GetMenuFont@CMFCMenuBar@@SGABVCFont@@H@Z')
(5010, 5286, 2020855080L, '?GetMenuImageSize@CMFCToolBar@@SG?AVCSize@@XZ')
(5011, 5287, 2020245734L, '?GetMenuItem@CMFCMenuBar@@QBEPAVCMFCToolBarButton@@H@Z')
(5012, 5288, 2020381488L, '?GetMenuItem@CMFCPopupMenu@@QBEPAVCMFCToolBarMenuButton@@H@Z')
(5013, 5289, 2020381468L, '?GetMenuItemCount@CMFCPopupMenu@@QBEHXZ')
(5014, 5290, 2020644019L, '?GetMenuItems@CMFCRibbonGallery@@IAEXAAV?$CArray@PAVCMFCRibbonBaseElement@@PAV1@@@@Z')
(5015, 5291, 2021013408L, '?GetMenuItemTextColor@CMFCVisualManager@@UAEKPAVCMFCToolBarMenuButton@@HH@Z')
(5016, 5292, 2021112067L, '?GetMenuItemTextColor@CMFCVisualManagerOffice2007@@UAEKPAVCMFCToolBarMenuButton@@HH@Z')
(5017, 5293, 2019956525L, '?GetMenuNames@CContextMenuManager@@QBEXAAVCStringList@@@Z')
(5018, 5294, 2020644151L, '?GetMenuRowHeight@CMFCRibbonGallery@@IBEHXZ')
(5019, 5295, 2021914954L, '?GetMenuStringW@CMenu@@QBEHIAAV?$CStringT@_WV?$StrTraitMFC_DLL@_WV?$ChTraitsCRT@_W@ATL@@@@@ATL@@I@Z')
(5020, 5296, 2021887972L, '?GetMessageBar@CFrameWnd@@UAEPAVCWnd@@XZ')
(5021, 5297, 2021913258L, '?GetMessageBar@CMDIChildWnd@@MAEPAVCWnd@@XZ')
(5022, 5298, 2019853530L, '?GetMessageMap@CAutoHideDockSite@@MBEPBUAFX_MSGMAP@@XZ')
(5023, 5299, 2019855281L, '?GetMessageMap@CBasePane@@MBEPBUAFX_MSGMAP@@XZ')
(5024, 5300, 2019871876L, '?GetMessageMap@CBaseTabbedPane@@MBEPBUAFX_MSGMAP@@XZ')
(5025, 5301, 2021863916L, '?GetMessageMap@CCheckListBox@@MBEPBUAFX_MSGMAP@@XZ')
(5026, 5302, 2021273267L, '?GetMessageMap@CCmdTarget@@MBEPBUAFX_MSGMAP@@XZ')
(5027, 5303, 2021441701L, '?GetMessageMap@CCommonDialog@@MBEPBUAFX_MSGMAP@@XZ')
(5028, 5304, 2021245080L, '?GetMessageMap@CControlBar@@MBEPBUAFX_MSGMAP@@XZ')
(5029, 5305, 2021945991L, '?GetMessageMap@CControlFrameWnd@@MBEPBUAFX_MSGMAP@@XZ')
(5030, 5306, 2021768383L, '?GetMessageMap@CCtrlView@@MBEPBUAFX_MSGMAP@@XZ')
(5031, 5307, 2021390329L, '?GetMessageMap@CDaoRecordView@@MBEPBUAFX_MSGMAP@@XZ')
(5032, 5308, 2021463197L, '?GetMessageMap@CDHtmlDialog@@MBEPBUAFX_MSGMAP@@XZ')
(5033, 5309, 2021442259L, '?GetMessageMap@CDialog@@MBEPBUAFX_MSGMAP@@XZ')
(5034, 5310, 2021251944L, '?GetMessageMap@CDialogBar@@MBEPBUAFX_MSGMAP@@XZ')
(5035, 5311, 2020002134L, '?GetMessageMap@CDialogEx@@MBEPBUAFX_MSGMAP@@XZ')
(5036, 5312, 2020005695L, '?GetMessageMap@CDockablePane@@MBEPBUAFX_MSGMAP@@XZ')
(5037, 5313, 2020026334L, '?GetMessageMap@CDockablePaneAdapter@@MBEPBUAFX_MSGMAP@@XZ')
(5038, 5314, 2021252086L, '?GetMessageMap@CDockBar@@MBEPBUAFX_MSGMAP@@XZ')
(5039, 5315, 2020066892L, '?GetMessageMap@CDockSite@@MBEPBUAFX_MSGMAP@@XZ')
(5040, 5316, 2020900395L, '?GetMessageMap@CDocObjectServer@@MBEPBUAFX_MSGMAP@@XZ')
(5041, 5317, 2021495111L, '?GetMessageMap@CDocument@@MBEPBUAFX_MSGMAP@@XZ')
(5042, 5318, 2020074029L, '?GetMessageMap@CDummyDockablePane@@MBEPBUAFX_MSGMAP@@XZ')
(5043, 5319, 2021768700L, '?GetMessageMap@CEditView@@MBEPBUAFX_MSGMAP@@XZ')
(5044, 5320, 2021774983L, '?GetMessageMap@CFormView@@MBEPBUAFX_MSGMAP@@XZ')
(5045, 5321, 2021879872L, '?GetMessageMap@CFrameWnd@@MBEPBUAFX_MSGMAP@@XZ')
(5046, 5322, 2020132593L, '?GetMessageMap@CFrameWndEx@@MBEPBUAFX_MSGMAP@@XZ')
(5047, 5323, 2021784367L, '?GetMessageMap@CHtmlEditView@@MBEPBUAFX_MSGMAP@@XZ')
(5048, 5324, 2021776654L, '?GetMessageMap@CHtmlView@@MBEPBUAFX_MSGMAP@@XZ')
(5049, 5325, 2021856139L, '?GetMessageMap@CListCtrl@@MBEPBUAFX_MSGMAP@@XZ')
(5050, 5326, 2021766115L, '?GetMessageMap@CListView@@MBEPBUAFX_MSGMAP@@XZ')
(5051, 5327, 2021911101L, '?GetMessageMap@CMDIChildWnd@@MBEPBUAFX_MSGMAP@@XZ')
(5052, 5328, 2020215815L, '?GetMessageMap@CMDIChildWndEx@@MBEPBUAFX_MSGMAP@@XZ')
(5053, 5329, 2020196588L, '?GetMessageMap@CMDIClientAreaWnd@@MBEPBUAFX_MSGMAP@@XZ')
(5054, 5330, 2021909497L, '?GetMessageMap@CMDIFrameWnd@@MBEPBUAFX_MSGMAP@@XZ')
(5055, 5331, 2020227591L, '?GetMessageMap@CMDIFrameWndEx@@MBEPBUAFX_MSGMAP@@XZ')
(5056, 5332, 2019845557L, '?GetMessageMap@CMFCAcceleratorKeyAssignCtrl@@MBEPBUAFX_MSGMAP@@XZ')
(5057, 5333, 2019846785L, '?GetMessageMap@CMFCAutoHideBar@@MBEPBUAFX_MSGMAP@@XZ')
(5058, 5334, 2019879341L, '?GetMessageMap@CMFCBaseTabCtrl@@MBEPBUAFX_MSGMAP@@XZ')
(5059, 5335, 2019896968L, '?GetMessageMap@CMFCBaseToolBar@@MBEPBUAFX_MSGMAP@@XZ')
(5060, 5336, 2019897883L, '?GetMessageMap@CMFCButton@@MBEPBUAFX_MSGMAP@@XZ')
(5061, 5337, 2019908631L, '?GetMessageMap@CMFCCaptionBar@@MBEPBUAFX_MSGMAP@@XZ')
(5062, 5338, 2019925150L, '?GetMessageMap@CMFCColorBar@@MBEPBUAFX_MSGMAP@@XZ')
(5063, 5339, 2019933203L, '?GetMessageMap@CMFCColorButton@@MBEPBUAFX_MSGMAP@@XZ')
(5064, 5340, 2019936667L, '?GetMessageMap@CMFCColorDialog@@MBEPBUAFX_MSGMAP@@XZ')
(5065, 5341, 2019944830L, '?GetMessageMap@CMFCColorPickerCtrl@@MBEPBUAFX_MSGMAP@@XZ')
(5066, 5342, 2019951852L, '?GetMessageMap@CMFCColorPopupMenu@@MBEPBUAFX_MSGMAP@@XZ')
(5067, 5343, 2019952549L, '?GetMessageMap@CMFCColorPropertySheet@@MBEPBUAFX_MSGMAP@@XZ')
(5068, 5344, 2019970429L, '?GetMessageMap@CMFCCustomColorsPropertyPage@@MBEPBUAFX_MSGMAP@@XZ')
(5069, 5345, 2019990982L, '?GetMessageMap@CMFCDesktopAlertDialog@@MBEPBUAFX_MSGMAP@@XZ')
(5070, 5346, 2019994741L, '?GetMessageMap@CMFCDesktopAlertWnd@@MBEPBUAFX_MSGMAP@@XZ')
(5071, 5347, 2020102804L, '?GetMessageMap@CMFCDropDownFrame@@MBEPBUAFX_MSGMAP@@XZ')
(5072, 5348, 2020099555L, '?GetMessageMap@CMFCDropDownListBox@@MBEPBUAFX_MSGMAP@@XZ')
(5073, 5349, 2020101589L, '?GetMessageMap@CMFCDropDownToolBar@@MBEPBUAFX_MSGMAP@@XZ')
(5074, 5350, 2020108415L, '?GetMessageMap@CMFCEditBrowseCtrl@@MBEPBUAFX_MSGMAP@@XZ')
(5075, 5351, 2020113579L, '?GetMessageMap@CMFCFontComboBox@@MBEPBUAFX_MSGMAP@@XZ')
(5076, 5352, 2020156274L, '?GetMessageMap@CMFCHeaderCtrl@@MBEPBUAFX_MSGMAP@@XZ')
(5077, 5353, 2020160022L, '?GetMessageMap@CMFCImageEditorDialog@@MBEPBUAFX_MSGMAP@@XZ')
(5078, 5354, 2020163880L, '?GetMessageMap@CMFCImagePaintArea@@MBEPBUAFX_MSGMAP@@XZ')
(5079, 5355, 2020175343L, '?GetMessageMap@CMFCKeyMapDialog@@MBEPBUAFX_MSGMAP@@XZ')
(5080, 5356, 2020182724L, '?GetMessageMap@CMFCLinkCtrl@@MBEPBUAFX_MSGMAP@@XZ')
(5081, 5357, 2020181154L, '?GetMessageMap@CMFCListCtrl@@MBEPBUAFX_MSGMAP@@XZ')
(5082, 5358, 2020184587L, '?GetMessageMap@CMFCMaskedEdit@@MBEPBUAFX_MSGMAP@@XZ')
(5083, 5359, 2020237725L, '?GetMessageMap@CMFCMenuBar@@MBEPBUAFX_MSGMAP@@XZ')
(5084, 5360, 2020248274L, '?GetMessageMap@CMFCMenuButton@@MBEPBUAFX_MSGMAP@@XZ')
(5085, 5361, 2020257896L, '?GetMessageMap@CMFCMousePropertyPage@@MBEPBUAFX_MSGMAP@@XZ')
(5086, 5362, 2020277257L, '?GetMessageMap@CMFCOutlookBar@@MBEPBUAFX_MSGMAP@@XZ')
(5087, 5363, 2020280781L, '?GetMessageMap@CMFCOutlookBarPane@@MBEPBUAFX_MSGMAP@@XZ')
(5088, 5364, 2020289038L, '?GetMessageMap@CMFCOutlookBarPaneAdapter@@MBEPBUAFX_MSGMAP@@XZ')
(5089, 5365, 2020293740L, '?GetMessageMap@CMFCOutlookBarTabCtrl@@MBEPBUAFX_MSGMAP@@XZ')
(5090, 5366, 2020292118L, '?GetMessageMap@CMFCOutlookBarToolBar@@MBEPBUAFX_MSGMAP@@XZ')
(5091, 5367, 2020373804L, '?GetMessageMap@CMFCPopupMenu@@MBEPBUAFX_MSGMAP@@XZ')
(5092, 5368, 2020396533L, '?GetMessageMap@CMFCPopupMenuBar@@MBEPBUAFX_MSGMAP@@XZ')
(5093, 5369, 2020409289L, '?GetMessageMap@CMFCPrintPreviewToolBar@@MBEPBUAFX_MSGMAP@@XZ')
(5094, 5370, 2020427267L, '?GetMessageMap@CMFCPropertyGridCtrl@@MBEPBUAFX_MSGMAP@@XZ')
(5095, 5371, 2020447855L, '?GetMessageMap@CMFCPropertyGridToolTipCtrl@@MBEPBUAFX_MSGMAP@@XZ')
(5096, 5372, 2020450075L, '?GetMessageMap@CMFCPropertyPage@@MBEPBUAFX_MSGMAP@@XZ')
(5097, 5373, 2020454172L, '?GetMessageMap@CMFCPropertySheet@@MBEPBUAFX_MSGMAP@@XZ')
(5098, 5374, 2020451548L, '?GetMessageMap@CMFCProperySheetListBox@@MBEPBUAFX_MSGMAP@@XZ')
(5099, 5375, 2020460459L, '?GetMessageMap@CMFCReBar@@MBEPBUAFX_MSGMAP@@XZ')
(5100, 5376, 2020470752L, '?GetMessageMap@CMFCRibbonBar@@MBEPBUAFX_MSGMAP@@XZ')
(5101, 5377, 2020563008L, '?GetMessageMap@CMFCRibbonCommandsListBox@@MBEPBUAFX_MSGMAP@@XZ')
(5102, 5378, 2020569988L, '?GetMessageMap@CMFCRibbonCustomizePropertyPage@@MBEPBUAFX_MSGMAP@@XZ')
(5103, 5379, 2020620687L, '?GetMessageMap@CMFCRibbonKeyboardCustomizeDialog@@MBEPBUAFX_MSGMAP@@XZ')
(5104, 5380, 2020623972L, '?GetMessageMap@CMFCRibbonKeyTip@@MBEPBUAFX_MSGMAP@@XZ')
(5105, 5381, 2020632854L, '?GetMessageMap@CMFCRibbonMiniToolBar@@MBEPBUAFX_MSGMAP@@XZ')
(5106, 5382, 2020683047L, '?GetMessageMap@CMFCRibbonPanelMenu@@MBEPBUAFX_MSGMAP@@XZ')
(5107, 5383, 2020673559L, '?GetMessageMap@CMFCRibbonPanelMenuBar@@MBEPBUAFX_MSGMAP@@XZ')
(5108, 5384, 2020578579L, '?GetMessageMap@CMFCRibbonRichEditCtrl@@MBEPBUAFX_MSGMAP@@XZ')
(5109, 5385, 2020572897L, '?GetMessageMap@CMFCRibbonSpinButtonCtrl@@MBEPBUAFX_MSGMAP@@XZ')
(5110, 5386, 2020693014L, '?GetMessageMap@CMFCRibbonStatusBar@@MBEPBUAFX_MSGMAP@@XZ')
(5111, 5387, 2020371139L, '?GetMessageMap@CMFCShadowWnd@@MBEPBUAFX_MSGMAP@@XZ')
(5112, 5388, 2020710264L, '?GetMessageMap@CMFCShellListCtrl@@MBEPBUAFX_MSGMAP@@XZ')
(5113, 5389, 2020717978L, '?GetMessageMap@CMFCShellTreeCtrl@@MBEPBUAFX_MSGMAP@@XZ')
(5114, 5390, 2020735406L, '?GetMessageMap@CMFCSpinButtonCtrl@@MBEPBUAFX_MSGMAP@@XZ')
(5115, 5391, 2020737533L, '?GetMessageMap@CMFCStandardColorsPropertyPage@@MBEPBUAFX_MSGMAP@@XZ')
(5116, 5392, 2020746441L, '?GetMessageMap@CMFCStatusBar@@MBEPBUAFX_MSGMAP@@XZ')
(5117, 5393, 2020752106L, '?GetMessageMap@CMFCTabCtrl@@MBEPBUAFX_MSGMAP@@XZ')
(5118, 5394, 2020795725L, '?GetMessageMap@CMFCTasksPane@@MBEPBUAFX_MSGMAP@@XZ')
(5119, 5395, 2020819096L, '?GetMessageMap@CMFCTasksPaneFrameWnd@@MBEPBUAFX_MSGMAP@@XZ')
(5120, 5396, 2020793796L, '?GetMessageMap@CMFCTasksPaneToolBar@@MBEPBUAFX_MSGMAP@@XZ')
(5121, 5397, 2020832589L, '?GetMessageMap@CMFCToolBar@@MBEPBUAFX_MSGMAP@@XZ')
(5122, 5398, 2020877070L, '?GetMessageMap@CMFCToolBarButtonCustomizeDialog@@MBEPBUAFX_MSGMAP@@XZ')
(5123, 5399, 2020881105L, '?GetMessageMap@CMFCToolBarButtonsListButton@@MBEPBUAFX_MSGMAP@@XZ')
(5124, 5400, 2020893998L, '?GetMessageMap@CMFCToolBarComboBoxEdit@@MBEPBUAFX_MSGMAP@@XZ')
(5125, 5401, 2020896618L, '?GetMessageMap@CMFCToolBarDateTimeCtrlImpl@@MBEPBUAFX_MSGMAP@@XZ')
(5126, 5402, 2020900395L, '?GetMessageMap@CMFCToolBarDropSource@@MBEPBUAFX_MSGMAP@@XZ')
(5127, 5403, 2020900395L, '?GetMessageMap@CMFCToolBarDropTarget@@MBEPBUAFX_MSGMAP@@XZ')
(5128, 5404, 2020904841L, '?GetMessageMap@CMFCToolBarEditCtrl@@MBEPBUAFX_MSGMAP@@XZ')
(5129, 5405, 2020952746L, '?GetMessageMap@CMFCToolBarNameDialog@@MBEPBUAFX_MSGMAP@@XZ')
(5130, 5406, 2020952984L, '?GetMessageMap@CMFCToolBarsCommandsListBox@@MBEPBUAFX_MSGMAP@@XZ')
(5131, 5407, 2020968878L, '?GetMessageMap@CMFCToolBarsCommandsPropertyPage@@MBEPBUAFX_MSGMAP@@XZ')
(5132, 5408, 2020955733L, '?GetMessageMap@CMFCToolBarsCustomizeDialog@@MBEPBUAFX_MSGMAP@@XZ')
(5133, 5409, 2020964014L, '?GetMessageMap@CMFCToolBarsKeyboardPropertyPage@@MBEPBUAFX_MSGMAP@@XZ')
(5134, 5410, 2020967575L, '?GetMessageMap@CMFCToolBarsListCheckBox@@MBEPBUAFX_MSGMAP@@XZ')
(5135, 5411, 2020970402L, '?GetMessageMap@CMFCToolBarsListPropertyPage@@MBEPBUAFX_MSGMAP@@XZ')
(5136, 5412, 2020974099L, '?GetMessageMap@CMFCToolBarsMenuPropertyPage@@MBEPBUAFX_MSGMAP@@XZ')
(5137, 5413, 2020979065L, '?GetMessageMap@CMFCToolBarsOptionsPropertyPage@@MBEPBUAFX_MSGMAP@@XZ')
(5138, 5414, 2020982943L, '?GetMessageMap@CMFCToolBarsToolsPropertyPage@@MBEPBUAFX_MSGMAP@@XZ')
(5139, 5415, 2020985182L, '?GetMessageMap@CMFCToolTipCtrl@@MBEPBUAFX_MSGMAP@@XZ')
(5140, 5416, 2021214912L, '?GetMessageMap@CMFCWindowsManagerDialog@@MBEPBUAFX_MSGMAP@@XZ')
(5141, 5417, 2021257388L, '?GetMessageMap@CMiniDockFrameWnd@@MBEPBUAFX_MSGMAP@@XZ')
(5142, 5418, 2021917413L, '?GetMessageMap@CMiniFrameWnd@@MBEPBUAFX_MSGMAP@@XZ')
(5143, 5419, 2020260012L, '?GetMessageMap@CMultiPaneFrameWnd@@MBEPBUAFX_MSGMAP@@XZ')
(5144, 5420, 2020268582L, '?GetMessageMap@COleCntrFrameWndEx@@MBEPBUAFX_MSGMAP@@XZ')
(5145, 5421, 2021275801L, '?GetMessageMap@COleControl@@MBEPBUAFX_MSGMAP@@XZ')
(5146, 5422, 2021791003L, '?GetMessageMap@COleDBRecordView@@MBEPBUAFX_MSGMAP@@XZ')
(5147, 5423, 2021667601L, '?GetMessageMap@COleDocIPFrameWnd@@MBEPBUAFX_MSGMAP@@XZ')
(5148, 5424, 2020269896L, '?GetMessageMap@COleDocIPFrameWndEx@@MBEPBUAFX_MSGMAP@@XZ')
(5149, 5425, 2021686751L, '?GetMessageMap@COleIPFrameWnd@@MBEPBUAFX_MSGMAP@@XZ')
(5150, 5426, 2020272777L, '?GetMessageMap@COleIPFrameWndEx@@MBEPBUAFX_MSGMAP@@XZ')
(5151, 5427, 2021305226L, '?GetMessageMap@COlePropertyPage@@MBEPBUAFX_MSGMAP@@XZ')
(5152, 5428, 2021614913L, '?GetMessageMap@COleResizeBar@@MBEPBUAFX_MSGMAP@@XZ')
(5153, 5429, 2021715648L, '?GetMessageMap@COleServerDoc@@MBEPBUAFX_MSGMAP@@XZ')
(5154, 5430, 2020275464L, '?GetMessageMap@COleServerDocEx@@MBEPBUAFX_MSGMAP@@XZ')
(5155, 5431, 2020303322L, '?GetMessageMap@COutlookOptionsDlg@@MBEPBUAFX_MSGMAP@@XZ')
(5156, 5432, 2020305324L, '?GetMessageMap@CPane@@MBEPBUAFX_MSGMAP@@XZ')
(5157, 5433, 2020340645L, '?GetMessageMap@CPaneDialog@@MBEPBUAFX_MSGMAP@@XZ')
(5158, 5434, 2020341688L, '?GetMessageMap@CPaneDivider@@MBEPBUAFX_MSGMAP@@XZ')
(5159, 5435, 2020347725L, '?GetMessageMap@CPaneFrameWnd@@MBEPBUAFX_MSGMAP@@XZ')
(5160, 5436, 2021792621L, '?GetMessageMap@CPreviewView@@MBEPBUAFX_MSGMAP@@XZ')
(5161, 5437, 2020409694L, '?GetMessageMap@CPreviewViewEx@@MBEPBUAFX_MSGMAP@@XZ')
(5162, 5438, 2021490266L, '?GetMessageMap@CPrintDialog@@MBEPBUAFX_MSGMAP@@XZ')
(5163, 5439, 2021491581L, '?GetMessageMap@CPrintDialogEx@@MBEPBUAFX_MSGMAP@@XZ')
(5164, 5440, 2021481220L, '?GetMessageMap@CPropertyPage@@MBEPBUAFX_MSGMAP@@XZ')
(5165, 5441, 2021484051L, '?GetMessageMap@CPropertySheet@@MBEPBUAFX_MSGMAP@@XZ')
(5166, 5442, 2021269912L, '?GetMessageMap@CReBar@@MBEPBUAFX_MSGMAP@@XZ')
(5167, 5443, 2021431201L, '?GetMessageMap@CRecordView@@MBEPBUAFX_MSGMAP@@XZ')
(5168, 5444, 2021802576L, '?GetMessageMap@CRichEditView@@MBEPBUAFX_MSGMAP@@XZ')
(5169, 5445, 2019938974L, '?GetMessageMap@CScreenWnd@@MBEPBUAFX_MSGMAP@@XZ')
(5170, 5446, 2021816074L, '?GetMessageMap@CScrollView@@MBEPBUAFX_MSGMAP@@XZ')
(5171, 5447, 2020725892L, '?GetMessageMap@CSmartDockingGroupGuidesWnd@@MBEPBUAFX_MSGMAP@@XZ')
(5172, 5448, 2020732585L, '?GetMessageMap@CSmartDockingHighlighterWnd@@MBEPBUAFX_MSGMAP@@XZ')
(5173, 5449, 2020730435L, '?GetMessageMap@CSmartDockingStandaloneGuideWnd@@MBEPBUAFX_MSGMAP@@XZ')
(5174, 5450, 2021752446L, '?GetMessageMap@CSocketWnd@@MBEPBUAFX_MSGMAP@@XZ')
(5175, 5451, 2021852498L, '?GetMessageMap@CSplitButton@@MBEPBUAFX_MSGMAP@@XZ')
(5176, 5452, 2021922092L, '?GetMessageMap@CSplitterWnd@@MBEPBUAFX_MSGMAP@@XZ')
(5177, 5453, 2020737041L, '?GetMessageMap@CSplitterWndEx@@MBEPBUAFX_MSGMAP@@XZ')
(5178, 5454, 2021260842L, '?GetMessageMap@CStatusBar@@MBEPBUAFX_MSGMAP@@XZ')
(5179, 5455, 2020749985L, '?GetMessageMap@CTabbedPane@@MBEPBUAFX_MSGMAP@@XZ')
(5180, 5456, 2021860406L, '?GetMessageMap@CTabCtrl@@MBEPBUAFX_MSGMAP@@XZ')
(5181, 5457, 2020773493L, '?GetMessageMap@CTabView@@MBEPBUAFX_MSGMAP@@XZ')
(5182, 5458, 2021268204L, '?GetMessageMap@CToolBar@@MBEPBUAFX_MSGMAP@@XZ')
(5183, 5459, 2021854816L, '?GetMessageMap@CToolBarCtrl@@MBEPBUAFX_MSGMAP@@XZ')
(5184, 5460, 2021758224L, '?GetMessageMap@CToolTipCtrl@@MBEPBUAFX_MSGMAP@@XZ')
(5185, 5461, 2021857504L, '?GetMessageMap@CTreeCtrl@@MBEPBUAFX_MSGMAP@@XZ')
(5186, 5462, 2021766232L, '?GetMessageMap@CTreeView@@MBEPBUAFX_MSGMAP@@XZ')
(5187, 5463, 2021766471L, '?GetMessageMap@CView@@MBEPBUAFX_MSGMAP@@XZ')
(5188, 5464, 2021204783L, '?GetMessageMap@CVSListBox@@MBEPBUAFX_MSGMAP@@XZ')
(5189, 5465, 2021200953L, '?GetMessageMap@CVSListBoxBase@@MBEPBUAFX_MSGMAP@@XZ')
(5190, 5466, 2021200274L, '?GetMessageMap@CVSListBoxEditCtrl@@MBEPBUAFX_MSGMAP@@XZ')
(5191, 5467, 2021217930L, '?GetMessageMap@CWinApp@@MBEPBUAFX_MSGMAP@@XZ')
(5192, 5468, 2021833513L, '?GetMessageMap@CWnd@@MBEPBUAFX_MSGMAP@@XZ')
(5193, 5469, 2021285083L, '?GetMessageString@CFrameWnd@@UBEXIAAV?$CStringT@_WV?$StrTraitMFC_DLL@_WV?$ChTraitsCRT@_W@ATL@@@@@ATL@@@Z')
(5194, 5470, 2021285083L, '?GetMessageString@COleControl@@UBEXIAAV?$CStringT@_WV?$StrTraitMFC_DLL@_WV?$ChTraitsCRT@_W@ATL@@@@@ATL@@@Z')
(5195, 5471, 2021595829L, '?GetMetaData@CDataSourceControl@@QAEJXZ')
(5196, 5472, 2021279053L, '?GetMetafileData@COleControl@@IAEHPAUtagFORMATETC@@PAUtagSTGMEDIUM@@@Z')
(5197, 5473, 2021728169L, '?GetMetafileData@COleServerItem@@MAEHPAUtagFORMATETC@@PAUtagSTGMEDIUM@@@Z')
(5198, 5474, 2020334106L, '?GetMinMaxOffset@CPaneContainerManager@@UAEXPAVCPaneDivider@@AAH11@Z')
(5199, 5475, 2019876737L, '?GetMinSize@CBaseTabbedPane@@UBEXAAVCSize@@@Z')
(5200, 5476, 2020317797L, '?GetMinSize@CPaneContainer@@UBEXAAVCSize@@@Z')
(5201, 5477, 2020338639L, '?GetMinSize@CPaneContainerManager@@UAEXAAVCSize@@@Z')
(5202, 5478, 2020318265L, '?GetMinSizeLeft@CPaneContainer@@UBEXAAVCSize@@@Z')
(5203, 5479, 2020318414L, '?GetMinSizeRight@CPaneContainer@@UBEXAAVCSize@@@Z')
(5204, 5480, 2020531153L, '?GetMinWidth@CMFCRibbonCategory@@IAEHPAVCDC@@@Z')
(5205, 5481, 2020663095L, '?GetMinWidth@CMFCRibbonPanel@@IAEHPAVCDC@@@Z')
(5206, 5482, 2021673282L, '?GetMiscStatus@XOleObject@CDocObjectServer@@UAGJKPAK@Z')
(5207, 5483, 2021301297L, '?GetMiscStatus@XOleObject@COleControl@@UAGJKPAK@Z')
(5208, 5484, 2021724280L, '?GetMiscStatus@XOleObject@COleServerDoc@@UAGJKPAK@Z')
(5209, 5485, 2021731439L, '?GetMiscStatus@XOleObject@COleServerItem@@UAGJKPAK@Z')
(5210, 5486, 2021765618L, '?GetModifyPointers@CRectTracker@@IAEXHPAPAH0PAH1@Z')
(5211, 5487, 2021661957L, '?GetMoniker@COleDocument@@UAEPAUIMoniker@@W4tagOLEGETMONIKER@@@Z')
(5212, 5488, 2021689892L, '?GetMoniker@COleLinkingDoc@@UAEPAUIMoniker@@W4tagOLEGETMONIKER@@@Z')
(5213, 5489, 2021715447L, '?GetMoniker@COleServerDoc@@UAEPAUIMoniker@@W4tagOLEGETMONIKER@@@Z')
(5214, 5490, 2021729601L, '?GetMoniker@COleServerItem@@QAEPAUIMoniker@@W4tagOLEGETMONIKER@@@Z')
(5215, 5491, 2021624022L, '?GetMoniker@XOleClientSite@COleClientItem@@UAGJKKPAPAUIMoniker@@@Z')
(5216, 5492, 2021593714L, '?GetMoniker@XOleClientSite@COleControlSite@@UAGJKKPAPAUIMoniker@@@Z')
(5217, 5493, 2021672362L, '?GetMoniker@XOleObject@CDocObjectServer@@UAGJKKPAPAUIMoniker@@@Z')
(5218, 5494, 2021593714L, '?GetMoniker@XOleObject@COleControl@@UAGJKKPAPAUIMoniker@@@Z')
(5219, 5495, 2021722641L, '?GetMoniker@XOleObject@COleServerDoc@@UAGJKKPAPAUIMoniker@@@Z')
(5220, 5496, 2021730271L, '?GetMoniker@XOleObject@COleServerItem@@UAGJKKPAPAUIMoniker@@@Z')
(5221, 5497, 2021874942L, '?GetMonthRange@CMonthCalCtrl@@QBEHAAVCOleDateTime@ATL@@0K@Z')
(5222, 5498, 2021875199L, '?GetMonthRange@CMonthCalCtrl@@QBEHAAVCTime@ATL@@0K@Z')
(5223, 5499, 2021875111L, '?GetMonthRange@CMonthCalCtrl@@QBEHPAU_SYSTEMTIME@@0K@Z')
(5224, 5500, 2021209178L, '?GetMouseManager@CWinAppEx@@QAEPAVCMouseManager@@XZ')
(5225, 5501, 2020807590L, '?GetMRUFileName@CMFCTasksPane@@MAEHPAVCRecentFileList@@HAAV?$CStringT@_WV?$StrTraitMFC_DLL@_WV?$ChTraitsCRT@_W@ATL@@@@@ATL@@@Z')
(5226, 5502, 2021360723L, '?GetName@CDaoDatabase@@QAE?AV?$CStringT@_WV?$StrTraitMFC_DLL@_WV?$ChTraitsCRT@_W@ATL@@@@@ATL@@XZ')
(5227, 5503, 2021360723L, '?GetName@CDaoQueryDef@@QAE?AV?$CStringT@_WV?$StrTraitMFC_DLL@_WV?$ChTraitsCRT@_W@ATL@@@@@ATL@@XZ')
(5228, 5504, 2021371421L, '?GetName@CDaoRecordset@@QAE?AV?$CStringT@_WV?$StrTraitMFC_DLL@_WV?$ChTraitsCRT@_W@ATL@@@@@ATL@@XZ')
(5229, 5505, 2021360424L, '?GetName@CDaoTableDef@@QAE?AV?$CStringT@_WV?$StrTraitMFC_DLL@_WV?$ChTraitsCRT@_W@ATL@@@@@ATL@@XZ')
(5230, 5506, 2021349379L, '?GetName@CDaoWorkspace@@QAE?AV?$CStringT@_WV?$StrTraitMFC_DLL@_WV?$ChTraitsCRT@_W@ATL@@@@@ATL@@XZ')
(5231, 5507, 2021371017L, '?GetNameTooltip@CMFCPropertyGridProperty@@UAE?AV?$CStringT@_WV?$StrTraitMFC_DLL@_WV?$ChTraitsCRT@_W@ATL@@@@@ATL@@XZ')
(5232, 5508, 2021345534L, '?GetNaturalExtent@XViewObject@COleControl@@UAGJKJPAUtagDVTARGETDEVICE@@PAUHDC__@@PAUtagExtentInfo@@PAUtagSIZE@@@Z')
(5233, 5509, 2019846417L, '?GetNcBtnSize@CMFCVisualManager@@UBE?AVCSize@@H@Z')
(5234, 5510, 2021101147L, '?GetNcBtnSize@CMFCVisualManagerOffice2007@@UBE?AVCSize@@H@Z')
(5235, 5511, 2021616692L, '?GetNewItemNumber@COleClientItem@@QAEKXZ')
(5236, 5512, 2021804884L, '?GetNewStorage@XRichEditOleCallback@CRichEditView@@UAGJPAPAUIStorage@@@Z')
(5237, 5513, 2021602424L, '?GetNext@CDataBoundProperty@@QAEPAV1@XZ')
(5238, 5514, 2021563790L, '?GetNextAssoc@CMapPtrToPtr@@QBEXAAPAU__POSITION@@AAPAX1@Z')
(5239, 5515, 2021564295L, '?GetNextAssoc@CMapPtrToWord@@QBEXAAPAU__POSITION@@AAPAXAAG@Z')
(5240, 5516, 2021565612L, '?GetNextAssoc@CMapStringToOb@@QBEXAAPAU__POSITION@@AAV?$CStringT@_WV?$StrTraitMFC_DLL@_WV?$ChTraitsCRT@_W@ATL@@@@@ATL@@AAPAVCObject@@@Z')
(5241, 5517, 2021565612L, '?GetNextAssoc@CMapStringToPtr@@QBEXAAPAU__POSITION@@AAV?$CStringT@_WV?$StrTraitMFC_DLL@_WV?$ChTraitsCRT@_W@ATL@@@@@ATL@@AAPAX@Z')
(5242, 5518, 2021566680L, '?GetNextAssoc@CMapStringToString@@QBEXAAPAU__POSITION@@AAV?$CStringT@_WV?$StrTraitMFC_DLL@_WV?$ChTraitsCRT@_W@ATL@@@@@ATL@@1@Z')
(5243, 5519, 2021568085L, '?GetNextAssoc@CMapWordToOb@@QBEXAAPAU__POSITION@@AAGAAPAVCObject@@@Z')
(5244, 5520, 2021568085L, '?GetNextAssoc@CMapWordToPtr@@QBEXAAPAU__POSITION@@AAGAAPAX@Z')
(5245, 5521, 2021660635L, '?GetNextClientItem@COleDocument@@QBEPAVCOleClientItem@@AAPAU__POSITION@@@Z')
(5246, 5522, 2021634664L, '?GetNextConnection@CConnectionPoint@@QBEPAUIUnknown@@AAPAU__POSITION@@@Z')
(5247, 5523, 2021921639L, '?GetNextDlgGroupItem@CWnd@@QBEPAUCOleControlSiteOrWnd@@PAU2@@Z')
(5248, 5524, 2021920684L, '?GetNextDlgTabItem@CWnd@@QBEPAUCOleControlSiteOrWnd@@PAU2@H@Z')
(5249, 5525, 2021526291L, '?GetNextDoc@CMultiDocTemplate@@UBEPAVCDocument@@AAPAU__POSITION@@@Z')
(5250, 5526, 2021527007L, '?GetNextDoc@CSingleDocTemplate@@UBEPAVCDocument@@AAPAU__POSITION@@@Z')
(5251, 5527, 2021526291L, '?GetNextDocTemplate@CDocManager@@UBEPAVCDocTemplate@@AAPAU__POSITION@@@Z')
(5252, 5528, 2021229513L, '?GetNextDocTemplate@CWinApp@@QBEPAVCDocTemplate@@AAPAU__POSITION@@@Z')
(5253, 5529, 2021656323L, '?GetNextFormat@COleDataObject@@QAEHPAUtagFORMATETC@@@Z')
(5254, 5530, 2021500177L, '?GetNextItem@COleDocument@@UBEPAVCDocItem@@AAPAU__POSITION@@@Z')
(5255, 5531, 2020717144L, '?GetNextItem@CShellManager@@QAEPAU_ITEMIDLIST@@PBU2@@Z')
(5256, 5532, 2021660570L, '?GetNextItemOfKind@COleDocument@@IBEPAVCDocItem@@AAPAU__POSITION@@PAUCRuntimeClass@@@Z')
(5257, 5533, 2021637544L, '?GetNextLink@COleUILinkInfo@@UAGKK@Z')
(5258, 5534, 2020818089L, '?GetNextPages@CMFCTasksPane@@QBEXAAVCStringList@@@Z')
(5259, 5535, 2021455810L, '?GetNextPathName@CFileDialog@@QBE?AV?$CStringT@_WV?$StrTraitMFC_DLL@_WV?$ChTraitsCRT@_W@ATL@@@@@ATL@@AAPAU__POSITION@@@Z')
(5260, 5536, 2021660662L, '?GetNextServerItem@COleDocument@@QBEPAVCOleServerItem@@AAPAU__POSITION@@@Z')
(5261, 5537, 2020207281L, '?GetNextTabWnd@CMDIClientAreaWnd@@AAEPAVCMFCTabCtrl@@PAV2@H@Z')
(5262, 5538, 2021500177L, '?GetNextView@CDocument@@UBEPAVCView@@AAPAU__POSITION@@@Z')
(5263, 5539, 2021753318L, '?GetNilString@CAfxStringMgr@@UAEPAUCStringData@ATL@@XZ')
(5264, 5540, 2020330267L, '?GetNodeCount@CPaneContainer@@QBEHXZ')
(5265, 5541, 2020339084L, '?GetNodeCount@CPaneContainerManager@@QBEHXZ')
(5266, 5542, 2020150828L, '?GetNonClientMetrics@AFX_GLOBAL_DATA@@QAEHAAUtagNONCLIENTMETRICSW@@@Z')
(5267, 5543, 2019986470L, '?GetNormalDocumentTitle@CDataRecoveryHandler@@UBE?AV?$CStringT@_WV?$StrTraitMFC_DLL@_WV?$ChTraitsCRT@_W@ATL@@@@@ATL@@PAVCDocument@@@Z')
(5268, 5544, 2021462785L, '?GetNotifier@CFindReplaceDialog@@SGPAV1@J@Z')
(5269, 5545, 2021648100L, '?GetNotSupported@CCmdTarget@@QAEXXZ')
(5270, 5546, 2021323841L, '?GetNotSupported@COleControl@@QAEXXZ')
(5271, 5547, 2021306990L, '?GetObjectArray@COlePropertyPage@@QAEPAPAUIDispatch@@PAK@Z')
(5272, 5548, 2021623445L, '?GetObjectDescriptorData@COleClientItem@@IAEXPAUtagPOINT@@PAUtagSIZE@@PAUtagSTGMEDIUM@@@Z')
(5273, 5549, 2021729841L, '?GetObjectDescriptorData@COleServerItem@@QAEXPAUtagPOINT@@PAUtagSIZE@@PAUtagSTGMEDIUM@@@Z')
(5274, 5550, 2021645367L, '?GetObjectInfo@XOleUIObjInfo@COlePropertiesDialog@@UAGJKPAKPAPA_W111@Z')
(5275, 5551, 2021236529L, '?GetObjectSchema@CArchive@@QAEIXZ')
(5276, 5552, 2021692973L, '?GetObjectStorage@XOleItemContainer@COleLinkingDoc@@UAGJPA_WPAUIBindCtx@@ABU_GUID@@PAPAX@Z')
(5277, 5553, 2021557198L, '?GetObjectW@CHttpFile@@QBE?AV?$CStringT@_WV?$StrTraitMFC_DLL@_WV?$ChTraitsCRT@_W@ATL@@@@@ATL@@XZ')
(5278, 5554, 2021212578L, '?GetObjectW@CWinAppEx@@QAEHPB_WAAVCObject@@@Z')
(5279, 5555, 2021692716L, '?GetObjectW@XOleItemContainer@COleLinkingDoc@@UAGJPA_WKPAUIBindCtx@@ABU_GUID@@PAPAX@Z')
(5280, 5556, 2019846147L, '?GetOccDialogInfo@CDialog@@MAEPAU_AFX_OCC_DIALOG_INFO@@XZ')
(5281, 5557, 2021776308L, '?GetOccDialogInfo@CFormView@@MAEPAU_AFX_OCC_DIALOG_INFO@@XZ')
(5282, 5558, 2020994167L, '?GetOccDialogInfo@CWnd@@MAEPAU_AFX_OCC_DIALOG_INFO@@XZ')
(5283, 5559, 2021401446L, '?GetODBCFieldInfo@CRecordset@@QAEXFAAUCODBCFieldInfo@@@Z')
(5284, 5560, 2021401399L, '?GetODBCFieldInfo@CRecordset@@QAEXPB_WAAUCODBCFieldInfo@@@Z')
(5285, 5561, 2021366047L, '?GetODBCTimeout@CDaoQueryDef@@QAEFXZ')
(5286, 5562, 2021779448L, '?GetOffline@CHtmlView@@QBEHXZ')
(5287, 5563, 2019846159L, '?GetOFN@CFileDialog@@QAEAAUtagOFNW@@XZ')
(5288, 5564, 2019846159L, '?GetOFN@CFileDialog@@QBEABUtagOFNW@@XZ')
(5289, 5565, 2021918777L, '?GetOleControlSite@CWnd@@QBEPAVCOleControlSite@@I@Z')
(5290, 5566, 2021727722L, '?GetOleObject@COleServerItem@@QAEPAUIOleObject@@XZ')
(5291, 5567, 2021743207L, '?GetOneDimSize@COleSafeArray@@QAEKXZ')
(5292, 5568, 2021525710L, '?GetOpenDocumentCount@CDocManager@@UAEHXZ')
(5293, 5569, 2021229412L, '?GetOpenDocumentCount@CWinApp@@QAEHXZ')
(5294, 5570, 2020152767L, '?GetOppositeAlignment@CGlobalUtils@@QAEKK@Z')
(5295, 5571, 2019992399L, '?GetOptimalTextSize@CMFCDesktopAlertDialog@@IAE?AVCSize@@V?$CStringT@_WV?$StrTraitMFC_DLL@_WV?$ChTraitsCRT@_W@ATL@@@@@ATL@@@Z')
(5296, 5572, 2020413127L, '?GetOption@CMFCPropertyGridProperty@@QBEPB_WH@Z')
(5297, 5573, 2020413115L, '?GetOptionCount@CMFCPropertyGridProperty@@QBEHXZ')
(5298, 5574, 2021466897L, '?GetOptionKeyPath@CBrowserControlSite@@MAGJPAPA_WK@Z')
(5299, 5575, 2021787622L, '?GetOptionKeyPath@CDHtmlDialog@@UAGJPAPA_WK@Z')
(5300, 5576, 2021777943L, '?GetOptionKeyPath@XDocHostUIHandler@CHtmlControlSite@@UAGJPAPA_WK@Z')
(5301, 5577, 2021713347L, '?GetOptions@CTaskDialog@@QBEHXZ')
(5302, 5578, 2021878596L, '?GetOrderArray@CHeaderCtrl@@QBEHPAHH@Z')
(5303, 5579, 2021702788L, '?GetOSVersion@CPropertySet@@QAEKXZ')
(5304, 5580, 2021279897L, '?GetOuterWindow@COleControl@@IBEPAVCWnd@@XZ')
(5305, 5581, 2020062074L, '?GetOutOfBoundsOffset@CDockingPanesRow@@AAEHPAVCPane@@H@Z')
(5306, 5582, 2020065913L, '?GetOutOfBoundsOffsetRect@CDockingPanesRow@@IAEHPAVCPane@@H@Z')
(5307, 5583, 2020810512L, '?GetPageByGroup@CMFCTasksPane@@QBEHHAAH@Z')
(5308, 5584, 2021665739L, '?GetPageCount@COleDocObjectItem@@QAEHPAJ0@Z')
(5309, 5585, 2021487221L, '?GetPageCount@CPropertySheet@@QBEHXZ')
(5310, 5586, 2021487379L, '?GetPageIndex@CPropertySheet@@QAEHPAVCPropertyPage@@@Z')
(5311, 5587, 2021669149L, '?GetPageInfo@XPrint@CDocObjectServer@@UAGJPAJ0@Z')
(5312, 5588, 2021308059L, '?GetPageInfo@XPropertyPage@COlePropertyPage@@UAGJPAUtagPROPPAGEINFO@@@Z')
(5313, 5589, 2021285470L, '?GetPages@XSpecifyPropertyPages@COleControl@@UAGJPAUtagCAUUID@@@Z')
(5314, 5590, 2021307337L, '?GetPageSite@COlePropertyPage@@QAEPAUIPropertyPageSite@@XZ')
(5315, 5591, 2020669643L, '?GetPaltteMinSize@CMFCRibbonPanel@@IBE?AVCSize@@XZ')
(5316, 5592, 2020135868L, '?GetPane@CFrameWndEx@@QAEPAVCBasePane@@I@Z')
(5317, 5593, 2020219991L, '?GetPane@CMDIChildWndEx@@QAEPAVCBasePane@@I@Z')
(5318, 5594, 2020231898L, '?GetPane@CMDIFrameWndEx@@QAEPAVCBasePane@@I@Z')
(5319, 5595, 2020267743L, '?GetPane@CMultiPaneFrameWnd@@UBEPAVCWnd@@XZ')
(5320, 5596, 2020268862L, '?GetPane@COleCntrFrameWndEx@@QAEPAVCBasePane@@I@Z')
(5321, 5597, 2020271824L, '?GetPane@COleDocIPFrameWndEx@@QAEPAVCBasePane@@I@Z')
(5322, 5598, 2020274531L, '?GetPane@COleIPFrameWndEx@@QAEPAVCBasePane@@I@Z')
(5323, 5599, 2020354193L, '?GetPane@CPaneFrameWnd@@UBEPAVCWnd@@XZ')
(5324, 5600, 2021923323L, '?GetPane@CSplitterWnd@@QBEPAVCWnd@@HH@Z')
(5325, 5601, 2020154065L, '?GetPaneAndAlignFromPoint@CGlobalUtils@@QAEHAAVCPaneContainerManager@@VCPoint@@PAPAVCDockablePane@@AAKAAH4@Z')
(5326, 5602, 2020346872L, '?GetPaneDividers@CPaneDivider@@QAEXAAVCObList@@@Z')
(5327, 5603, 2019875593L, '?GetPaneIcon@CBaseTabbedPane@@UAEPAUHICON__@@H@Z')
(5328, 5604, 2020743884L, '?GetPaneInfo@CMFCStatusBar@@QBEXHAAI0AAH@Z')
(5329, 5605, 2021260145L, '?GetPaneInfo@CStatusBar@@QBEXHAAI0AAH@Z')
(5330, 5606, 2020529134L, '?GetPanel@CMFCRibbonCategory@@QAEPAVCMFCRibbonPanel@@H@Z')
(5331, 5607, 2020529122L, '?GetPanelCount@CMFCRibbonCategory@@QBEHXZ')
(5332, 5608, 2020531636L, '?GetPanelFromPoint@CMFCRibbonCategory@@QBEPAVCMFCRibbonPanel@@VCPoint@@@Z')
(5333, 5609, 2020529178L, '?GetPanelIndex@CMFCRibbonCategory@@QBEHPBVCMFCRibbonPanel@@@Z')
(5334, 5610, 2019876827L, '?GetPaneList@CBaseTabbedPane@@UAEXAAVCObList@@PAUCRuntimeClass@@@Z')
(5335, 5611, 2020045799L, '?GetPaneList@CDockingManager@@QAEXAAVCObList@@HPAUCRuntimeClass@@H@Z')
(5336, 5612, 2020367775L, '?GetPaneList@CPaneFrameWnd@@KGXAAVCObList@@PAUCRuntimeClass@@H@Z')
(5337, 5613, 2020316636L, '?GetPaneName@CPane@@UBEXAAV?$CStringT@_WV?$StrTraitMFC_DLL@_WV?$ChTraitsCRT@_W@ATL@@@@@ATL@@@Z')
(5338, 5614, 2020749435L, '?GetPaneProgress@CMFCStatusBar@@QBEJH@Z')
(5339, 5615, 2020346838L, '?GetPanes@CPaneDivider@@QAEXAAVCObList@@@Z')
(5340, 5616, 2020743587L, '?GetPaneStyle@CMFCStatusBar@@QBEIH@Z')
(5341, 5617, 2021260028L, '?GetPaneStyle@CStatusBar@@QBEIH@Z')
(5342, 5618, 2020744087L, '?GetPaneText@CMFCStatusBar@@QBE?AV?$CStringT@_WV?$StrTraitMFC_DLL@_WV?$ChTraitsCRT@_W@ATL@@@@@ATL@@H@Z')
(5343, 5619, 2020744040L, '?GetPaneText@CMFCStatusBar@@QBEXHAAV?$CStringT@_WV?$StrTraitMFC_DLL@_WV?$ChTraitsCRT@_W@ATL@@@@@ATL@@@Z')
(5344, 5620, 2021260363L, '?GetPaneText@CStatusBar@@QBE?AV?$CStringT@_WV?$StrTraitMFC_DLL@_WV?$ChTraitsCRT@_W@ATL@@@@@ATL@@H@Z')
(5345, 5621, 2021260324L, '?GetPaneText@CStatusBar@@QBEXHAAV?$CStringT@_WV?$StrTraitMFC_DLL@_WV?$ChTraitsCRT@_W@ATL@@@@@ATL@@@Z')
(5346, 5622, 2020743678L, '?GetPaneWidth@CMFCStatusBar@@QBEHH@Z')
(5347, 5623, 2021871549L, '?GetParaFormat@CRichEditCtrl@@QBEKAAU_paraformat@@@Z')
(5348, 5624, 2021871589L, '?GetParaFormat@CRichEditCtrl@@QBEKAAUPARAFORMAT2@@@Z')
(5349, 5625, 2021809068L, '?GetParaFormatSelection@CRichEditView@@QAEAAUPARAFORMAT2@@XZ')
(5350, 5626, 2021367719L, '?GetParameterCount@CDaoQueryDef@@QAEFXZ')
(5351, 5627, 2021367797L, '?GetParameterInfo@CDaoQueryDef@@QAEXHAAUCDaoParameterInfo@@K@Z')
(5352, 5628, 2021367996L, '?GetParameterInfo@CDaoQueryDef@@QAEXPB_WAAUCDaoParameterInfo@@K@Z')
(5353, 5629, 2021366564L, '?GetParamValue@CDaoQueryDef@@UAE?AVCOleVariant@@H@Z')
(5354, 5630, 2021366372L, '?GetParamValue@CDaoQueryDef@@UAE?AVCOleVariant@@PB_W@Z')
(5355, 5631, 2021378618L, '?GetParamValue@CDaoRecordset@@UAE?AVCOleVariant@@H@Z')
(5356, 5632, 2021378582L, '?GetParamValue@CDaoRecordset@@UAE?AVCOleVariant@@PB_W@Z')
(5357, 5633, 2020394352L, '?GetParentArea@CMFCPopupMenu@@UAEPAVCWnd@@AAVCRect@@@Z')
(5358, 5634, 2021779576L, '?GetParentBrowser@CHtmlView@@QBEPAUIDispatch@@XZ')
(5359, 5635, 2020534330L, '?GetParentButton@CMFCRibbonCategory@@QBEPAVCMFCRibbonBaseElement@@XZ')
(5360, 5636, 2020669605L, '?GetParentButton@CMFCRibbonPanel@@QBEPAVCMFCRibbonBaseElement@@XZ')
(5361, 5637, 2021835991L, '?GetParentFrame@CWnd@@QBEPAVCFrameWnd@@XZ')
(5362, 5638, 2020717719L, '?GetParentItem@CShellManager@@QAEHPBU_ITEMIDLIST@@AAPAU2@@Z')
(5363, 5639, 2020104623L, '?GetParentMenuBar@CMFCDropDownFrame@@QBEPAVCMFCMenuBar@@XZ')
(5364, 5640, 2019856190L, '?GetParentMiniFrame@CBasePane@@UBEPAVCPaneFrameWnd@@H@Z')
(5365, 5641, 2021836236L, '?GetParentOwner@CWnd@@QBEPAV1@XZ')
(5366, 5642, 2019866203L, '?GetParentPanel@CMFCRibbonBaseElement@@UBEPAVCMFCRibbonPanel@@XZ')
(5367, 5643, 2020104565L, '?GetParentPopupMenu@CMFCDropDownFrame@@QBEPAV1@XZ')
(5368, 5644, 2020381098L, '?GetParentPopupMenu@CMFCPopupMenu@@QBEPAV1@XZ')
(5369, 5645, 2020683058L, '?GetParentRibbonMenuBar@CMFCRibbonPanelMenu@@QBEPAVCMFCRibbonPanelMenuBar@@XZ')
(5370, 5646, 2021767672L, '?GetParentSplitter@CView@@SGPAVCSplitterWnd@@PBVCWnd@@H@Z')
(5371, 5647, 2019860118L, '?GetParentTabbedPane@CBasePane@@QBEPAVCBaseTabbedPane@@XZ')
(5372, 5648, 2019859982L, '?GetParentTabWnd@CBasePane@@QBEPAVCMFCBaseTabCtrl@@AAPAUHWND__@@@Z')
(5373, 5649, 2020381184L, '?GetParentToolBar@CMFCPopupMenu@@QBEPAVCMFCToolBar@@XZ')
(5374, 5650, 2019866167L, '?GetParentWnd@CMFCRibbonBaseElement@@UBEPAVCWnd@@XZ')
(5375, 5651, 2020665881L, '?GetParentWnd@CMFCRibbonPanel@@IBEPAVCWnd@@XZ')
(5376, 5652, 2021454560L, '?GetPathName@CFileDialog@@QBE?AV?$CStringT@_WV?$StrTraitMFC_DLL@_WV?$ChTraitsCRT@_W@ATL@@@@@ATL@@XZ')
(5377, 5653, 2021747446L, '?GetPeerName@CAsyncSocket@@QAEHAAV?$CStringT@_WV?$StrTraitMFC_DLL@_WV?$ChTraitsCRT@_W@ATL@@@@@ATL@@AAI@Z')
(5378, 5654, 2021374679L, '?GetPercentPosition@CDaoRecordset@@QAEMXZ')
(5379, 5655, 2021304726L, '?GetPictureDispatch@CPictureHolder@@QAEPAUIPictureDisp@@XZ')
(5380, 5656, 2021489963L, '?GetPortName@CPageSetupDialog@@QBE?AV?$CStringT@_WV?$StrTraitMFC_DLL@_WV?$ChTraitsCRT@_W@ATL@@@@@ATL@@XZ')
(5381, 5657, 2021490971L, '?GetPortName@CPrintDialog@@QBE?AV?$CStringT@_WV?$StrTraitMFC_DLL@_WV?$ChTraitsCRT@_W@ATL@@@@@ATL@@XZ')
(5382, 5658, 2021491995L, '?GetPortName@CPrintDialogEx@@QBE?AV?$CStringT@_WV?$StrTraitMFC_DLL@_WV?$ChTraitsCRT@_W@ATL@@@@@ATL@@XZ')
(5383, 5659, 2020691043L, '?GetPosFromPoint@CMFCRibbonSlider@@IAEHH@Z')
(5384, 5660, 2021533545L, '?GetPosition@CFile@@UBE_KXZ')
(5385, 5661, 2021541819L, '?GetPosition@CMemFile@@UBE_KXZ')
(5386, 5662, 2021712212L, '?GetPosition@COleStreamFile@@UBE_KXZ')
(5387, 5663, 2021752326L, '?GetPosition@CSocketFile@@UBE_KXZ')
(5388, 5664, 2021547014L, '?GetPosition@CStdioFile@@UBE_KXZ')
(5389, 5665, 2021324552L, '?GetPredefinedStrings@XPerPropertyBrowsing@COleControl@@UAGJJPAUtagCALPOLESTR@@PAUtagCADWORD@@@Z')
(5390, 5666, 2021325184L, '?GetPredefinedValue@XPerPropertyBrowsing@COleControl@@UAGJJKPAUtagVARIANT@@@Z')
(5391, 5667, 2020630962L, '?GetPreferedMenuLocation@CMFCRibbonMainPanel@@MAEHAAVCRect@@@Z')
(5392, 5668, 2019865797L, '?GetPressed@CMFCRibbonBaseElement@@UAEPAV1@XZ')
(5393, 5669, 2020522931L, '?GetPressed@CMFCRibbonButtonsGroup@@MAEPAVCMFCRibbonBaseElement@@XZ')
(5394, 5670, 2020641552L, '?GetPressed@CMFCRibbonGallery@@MAEPAVCMFCRibbonBaseElement@@XZ')
(5395, 5671, 2020666402L, '?GetPressed@CMFCRibbonPanel@@QBEPAVCMFCRibbonBaseElement@@XZ')
(5396, 5672, 2021921543L, '?GetPrevDlgGroupItem@CWnd@@QBEPAUCOleControlSiteOrWnd@@PAU2@@Z')
(5397, 5673, 2020817978L, '?GetPreviousPages@CMFCTasksPane@@QBEXAAVCStringList@@@Z')
(5398, 5674, 2021734453L, '?GetPrimarySelectedItem@COleDocument@@UAEPAVCOleClientItem@@PAVCView@@@Z')
(5399, 5675, 2021814579L, '?GetPrimarySelectedItem@CRichEditDoc@@UAEPAVCOleClientItem@@PAVCView@@@Z')
(5400, 5676, 2021622248L, '?GetPrintDeviceInfo@COleClientItem@@IAEHPAPAUIOleCache@@PAPAUtagDVTARGETDEVICE@@PAK@Z')
(5401, 5677, 2021231525L, '?GetPrinterDeviceDefaults@CWinApp@@QAEHPAUtagPDW@@@Z')
(5402, 5678, 2021772682L, '?GetPrinterFont@CEditView@@QBEPAVCFont@@XZ')
(5403, 5679, 2020994167L, '?GetPriority@CAsyncMonikerFile@@MBEJXZ')
(5404, 5680, 2021754047L, '?GetProc@CThemeHelper@@CAPAXPBDPAX@Z')
(5405, 5684, 2021315491L, '?GetPropCheck@COlePropertyPage@@QAEHPB_WPAH@Z')
(5406, 5685, 2021782630L, '?GetProperty@CHtmlView@@QAE?AVCOleVariant@@PB_W@Z')
(5407, 5686, 2021782472L, '?GetProperty@CHtmlView@@QAEHPB_WAAV?$CStringT@_WV?$StrTraitMFC_DLL@_WV?$ChTraitsCRT@_W@ATL@@@@@ATL@@@Z')
(5408, 5687, 2020434304L, '?GetProperty@CMFCPropertyGridCtrl@@QBEPAVCMFCPropertyGridProperty@@H@Z')
(5409, 5688, 2021588862L, '?GetProperty@COleControlSite@@UBEXJGPAX@Z')
(5410, 5689, 2021655645L, '?GetProperty@COleDispatchDriver@@QBEXJGPAX@Z')
(5411, 5690, 2021704675L, '?GetProperty@CPropertySection@@QAEPAVCProperty@@K@Z')
(5412, 5691, 2021707494L, '?GetProperty@CPropertySet@@QAEPAVCProperty@@U_GUID@@K@Z')
(5413, 5692, 2021920372L, '?GetProperty@CWnd@@QBEXJGPAX@Z')
(5414, 5693, 2021013336L, '?GetPropertyGridGroupColor@CMFCVisualManager@@UAEKPAVCMFCPropertyGridCtrl@@@Z')
(5415, 5694, 2021049374L, '?GetPropertyGridGroupColor@CMFCVisualManagerOffice2003@@UAEKPAVCMFCPropertyGridCtrl@@@Z')
(5416, 5695, 2021150101L, '?GetPropertyGridGroupColor@CMFCVisualManagerOfficeXP@@MAEKPAVCMFCPropertyGridCtrl@@@Z')
(5417, 5696, 2021159474L, '?GetPropertyGridGroupColor@CMFCVisualManagerVS2005@@UAEKPAVCMFCPropertyGridCtrl@@@Z')
(5418, 5697, 2021013372L, '?GetPropertyGridGroupTextColor@CMFCVisualManager@@UAEKPAVCMFCPropertyGridCtrl@@@Z')
(5419, 5698, 2021049390L, '?GetPropertyGridGroupTextColor@CMFCVisualManagerOffice2003@@UAEKPAVCMFCPropertyGridCtrl@@@Z')
(5420, 5699, 2021150160L, '?GetPropertyGridGroupTextColor@CMFCVisualManagerOfficeXP@@MAEKPAVCMFCPropertyGridCtrl@@@Z')
(5421, 5700, 2021316454L, '?GetPropIndex@COlePropertyPage@@QAEHPB_WPAH@Z')
(5422, 5701, 2021281542L, '?GetPropPageIDs@COleControl@@MAEPAU_GUID@@AAK@Z')
(5423, 5702, 2021316108L, '?GetPropRadio@COlePropertyPage@@QAEHPB_WPAH@Z')
(5424, 5703, 2021330544L, '?GetPropsetData@COleControl@@IAEHPAUtagFORMATETC@@PAUtagSTGMEDIUM@@ABU_GUID@@@Z')
(5425, 5704, 2021310661L, '?GetPropText@COlePropertyPage@@QAEHPB_WPAE@Z')
(5426, 5705, 2021311279L, '?GetPropText@COlePropertyPage@@QAEHPB_WPAF@Z')
(5427, 5706, 2021311612L, '?GetPropText@COlePropertyPage@@QAEHPB_WPAH@Z')
(5428, 5707, 2021311941L, '?GetPropText@COlePropertyPage@@QAEHPB_WPAI@Z')
(5429, 5708, 2021312557L, '?GetPropText@COlePropertyPage@@QAEHPB_WPAJ@Z')
(5430, 5709, 2021312886L, '?GetPropText@COlePropertyPage@@QAEHPB_WPAK@Z')
(5431, 5710, 2021313507L, '?GetPropText@COlePropertyPage@@QAEHPB_WPAM@Z')
(5432, 5711, 2021314134L, '?GetPropText@COlePropertyPage@@QAEHPB_WPAN@Z')
(5433, 5712, 2021314756L, '?GetPropText@COlePropertyPage@@QAEHPB_WPAV?$CStringT@_WV?$StrTraitMFC_DLL@_WV?$ChTraitsCRT@_W@ATL@@@@@ATL@@@Z')
(5434, 5713, 2019846159L, '?GetPSP@CPropertyPage@@QAEAAU_PROPSHEETPAGEW@@XZ')
(5435, 5714, 2019846159L, '?GetPSP@CPropertyPage@@QBEABU_PROPSHEETPAGEW@@XZ')
(5436, 5715, 2021356898L, '?GetQueryDefCount@CDaoDatabase@@QAEFXZ')
(5437, 5716, 2021356974L, '?GetQueryDefInfo@CDaoDatabase@@QAEXHAAUCDaoQueryDefInfo@@K@Z')
(5438, 5717, 2021357173L, '?GetQueryDefInfo@CDaoDatabase@@QAEXPB_WAAUCDaoQueryDefInfo@@K@Z')
(5439, 5718, 2021354245L, '?GetQueryTimeout@CDaoDatabase@@QAEFXZ')
(5440, 5719, 2020484909L, '?GetQuickAccessCommands@CMFCRibbonBar@@QAEXAAV?$CList@II@@@Z')
(5441, 5720, 2021871919L, '?GetRange@CDateTimeCtrl@@QBEKPAVCOleDateTime@ATL@@0@Z')
(5442, 5721, 2021871765L, '?GetRange@CDateTimeCtrl@@QBEKPAVCTime@ATL@@0@Z')
(5443, 5722, 2020980582L, '?GetRange@CMFCToolBarSpinEditBoxButton@@QAEXAAH0@Z')
(5444, 5723, 2021874554L, '?GetRange@CMonthCalCtrl@@QBEKPAU_SYSTEMTIME@@0@Z')
(5445, 5724, 2021874367L, '?GetRange@CMonthCalCtrl@@QBEKPAVCOleDateTime@ATL@@0@Z')
(5446, 5725, 2021874788L, '?GetRange@CMonthCalCtrl@@QBEKPAVCTime@ATL@@0@Z')
(5447, 5726, 2021878640L, '?GetRange@CProgressCtrl@@QBEXAAH0@Z')
(5448, 5727, 2021859275L, '?GetRange@CSliderCtrl@@QBEXAAH0@Z')
(5449, 5728, 2021859053L, '?GetRange@CSpinButtonCtrl@@QBEXAAH0@Z')
(5450, 5729, 2020052624L, '?GetRawValue@CProperty@@QAEPAXXZ')
(5451, 5730, 2021779404L, '?GetReadyState@CHtmlView@@QBE?AW4tagREADYSTATE@@XZ')
(5452, 5731, 2021322114L, '?GetReadyState@COleControl@@QAEJXZ')
(5453, 5732, 2021946421L, '?GetReBarCtrl@CMFCReBar@@QBEAAVCReBarCtrl@@XZ')
(5454, 5733, 2020465298L, '?GetRecentDefaultPaneDivider@CRecentDockSiteInfo@@QAEPAVCPaneDivider@@XZ')
(5455, 5734, 2020465162L, '?GetRecentDockedPercent@CRecentDockSiteInfo@@QAEHH@Z')
(5456, 5735, 2020465136L, '?GetRecentDockedRect@CRecentDockSiteInfo@@QAEAAVCRect@@H@Z')
(5457, 5736, 2020465269L, '?GetRecentListOfPanes@CRecentDockSiteInfo@@QAEAAV?$CList@PAUHWND__@@PAU1@@@H@Z')
(5458, 5737, 2020465074L, '?GetRecentPaneContainer@CRecentDockSiteInfo@@QAEPAVCPaneContainer@@H@Z')
(5459, 5738, 2019845999L, '?GetRecentSiblingPaneInfo@CDockablePane@@QAEXAAV?$CList@IAAI@@@Z')
(5460, 5739, 2020465105L, '?GetRecentTabContainer@CRecentDockSiteInfo@@QAEPAVCPaneContainer@@H@Z')
(5461, 5740, 2021372766L, '?GetRecordCount@CDaoRecordset@@QAEJXZ')
(5462, 5741, 2021361748L, '?GetRecordCount@CDaoTableDef@@QAEJXZ')
(5463, 5742, 2021354362L, '?GetRecordsAffected@CDaoDatabase@@QAEJXZ')
(5464, 5743, 2021366164L, '?GetRecordsAffected@CDaoQueryDef@@QAEJXZ')
(5465, 5744, 2019986349L, '?GetRecoveredDocumentTitle@CDataRecoveryHandler@@UBE?AV?$CStringT@_WV?$StrTraitMFC_DLL@_WV?$ChTraitsCRT@_W@ATL@@@@@ATL@@ABV23@@Z')
(5466, 5745, 2021677132L, '?GetRect@XOleDocumentView@CDocObjectServer@@UAGJPAUtagRECT@@@Z')
(5467, 5746, 2021345322L, '?GetRect@XViewObject@COleControl@@UAGJKPAU_RECTL@@@Z')
(5468, 5747, 2021281488L, '?GetRectInContainer@COleControl@@QAEHPAUtagRECT@@@Z')
(5469, 5748, 2021780426L, '?GetRegisterAsBrowser@CHtmlView@@QBEHXZ')
(5470, 5749, 2021780470L, '?GetRegisterAsDropTarget@CHtmlView@@QBEHXZ')
(5471, 5750, 2021209314L, '?GetRegSectionPath@CWinAppEx@@QAE?AV?$CStringT@_WV?$StrTraitMFC_DLL@_WV?$ChTraitsCRT@_W@ATL@@@@@ATL@@PB_W@Z')
(5472, 5751, 2020510588L, '?GetRegularSize@CMFCRibbonButton@@UAE?AVCSize@@PAVCDC@@@Z')
(5473, 5752, 2020521442L, '?GetRegularSize@CMFCRibbonButtonsGroup@@UAE?AVCSize@@PAVCDC@@@Z')
(5474, 5753, 2020467225L, '?GetRegularSize@CMFCRibbonCaptionButton@@MAE?AVCSize@@PAVCDC@@@Z')
(5475, 5754, 2020639027L, '?GetRegularSize@CMFCRibbonGallery@@UAE?AVCSize@@PAVCDC@@@Z')
(5476, 5755, 2020635630L, '?GetRegularSize@CMFCRibbonGalleryIcon@@MAE?AVCSize@@PAVCDC@@@Z')
(5477, 5757, 2020626552L, '?GetRegularSize@CMFCRibbonLinkCtrl@@UAE?AVCSize@@PAVCDC@@@Z')
(5478, 5758, 2020684276L, '?GetRegularSize@CMFCRibbonProgressBar@@UAE?AVCSize@@PAVCDC@@@Z')
(5479, 5759, 2020687767L, '?GetRegularSize@CMFCRibbonQuickAccessToolBar@@MAE?AVCSize@@PAVCDC@@@Z')
(5480, 5760, 2020627628L, '?GetRegularSize@CMFCRibbonRecentFilesList@@MAE?AVCSize@@PAVCDC@@@Z')
(5481, 5761, 2019863914L, '?GetRegularSize@CMFCRibbonSeparator@@MAE?AVCSize@@PAVCDC@@@Z')
(5482, 5762, 2020689789L, '?GetRegularSize@CMFCRibbonSlider@@UAE?AVCSize@@PAVCDC@@@Z')
(5483, 5764, 2020718080L, '?GetRelatedList@CMFCShellTreeCtrl@@QBEPAVCMFCShellListCtrl@@XZ')
(5484, 5765, 2020715615L, '?GetRelatedTree@CMFCShellListCtrl@@IBEPAVCMFCShellTreeCtrl@@XZ')
(5485, 5766, 2021356427L, '?GetRelationCount@CDaoDatabase@@QAEFXZ')
(5486, 5767, 2021356503L, '?GetRelationInfo@CDaoDatabase@@QAEXHAAUCDaoRelationInfo@@K@Z')
(5487, 5768, 2021356702L, '?GetRelationInfo@CDaoDatabase@@QAEXPB_WAAUCDaoRelationInfo@@K@Z')
(5488, 5769, 2020317151L, '?GetResizeStep@CPaneContainer@@UBEHXZ')
(5489, 5770, 2019961402L, '?GetResourceID@CMFCControlRendererInfo@@QBEPB_WXZ')
(5490, 5771, 2021376482L, '?GetReturnsRecords@CDaoQueryDef@@QAEHXZ')
(5491, 5772, 2021098200L, '?GetRibbonBar@CMFCVisualManagerOffice2007@@QBEPAVCMFCRibbonBar@@PAVCWnd@@@Z')
(5492, 5773, 2021023514L, '?GetRibbonEditBackgroundColor@CMFCVisualManager@@UAEKPAVCMFCRibbonRichEditCtrl@@HHH@Z')
(5493, 5774, 2021130066L, '?GetRibbonEditBackgroundColor@CMFCVisualManagerOffice2007@@UAEKPAVCMFCRibbonRichEditCtrl@@HHH@Z')
(5494, 5775, 2021023447L, '?GetRibbonHyperlinkTextColor@CMFCVisualManager@@UAEKPAVCMFCRibbonLinkCtrl@@@Z')
(5495, 5776, 2021129904L, '?GetRibbonHyperlinkTextColor@CMFCVisualManagerOffice2007@@UAEKPAVCMFCRibbonLinkCtrl@@@Z')
(5496, 5777, 2021129258L, '?GetRibbonPopupBorderSize@CMFCVisualManagerOffice2007@@UBEHPBVCMFCRibbonPanelMenu@@@Z')
(5497, 5778, 2021119135L, '?GetRibbonQuickAccessToolBarRightMargin@CMFCVisualManagerOffice2007@@UAEHXZ')
(5498, 5779, 2021021212L, '?GetRibbonSliderColors@CMFCVisualManager@@UAEXPAVCMFCRibbonSlider@@HHHAAK1@Z')
(5499, 5780, 2021152815L, '?GetRibbonSliderColors@CMFCVisualManagerOfficeXP@@MAEXPAVCMFCRibbonSlider@@HHHAAK1@Z')
(5500, 5781, 2021012215L, '?GetRibbonStatusBarTextColor@CMFCVisualManager@@UAEKPAVCMFCRibbonStatusBar@@@Z')
(5501, 5782, 2021130147L, '?GetRibbonStatusBarTextColor@CMFCVisualManagerOffice2007@@UAEKPAVCMFCRibbonStatusBar@@@Z')
(5502, 5783, 2021537986L, '?GetRoot@CFileFind@@UBE?AV?$CStringT@_WV?$StrTraitMFC_DLL@_WV?$ChTraitsCRT@_W@ATL@@@@@ATL@@XZ')
(5503, 5784, 2021542370L, '?GetRoot@CGopherFileFind@@UBE?AV?$CStringT@_WV?$StrTraitMFC_DLL@_WV?$ChTraitsCRT@_W@ATL@@@@@ATL@@XZ')
(5504, 5785, 2020346927L, '?GetRootContainerRect@CPaneDivider@@QAE?AVCRect@@XZ')
(5505, 5786, 2020718194L, '?GetRootItems@CMFCShellTreeCtrl@@IAEHXZ')
(5506, 5787, 2021273400L, '?GetRoutingFrame@CCmdTarget@@IAEPAVCFrameWnd@@XZ')
(5507, 5788, 2021227753L, '?GetRoutingFrame_@CCmdTarget@@KGPAVCFrameWnd@@XZ')
(5508, 5789, 2021273390L, '?GetRoutingView@CCmdTarget@@IAEPAVCView@@XZ')
(5509, 5790, 2021227736L, '?GetRoutingView_@CCmdTarget@@KGPAVCView@@XZ')
(5510, 5791, 2021923479L, '?GetRowInfo@CSplitterWnd@@QBEXHAAH0@Z')
(5511, 5792, 2021861955L, '?GetRuntimeClass@CAnimateCtrl@@UBEPAUCRuntimeClass@@XZ')
(5512, 5793, 2021238411L, '?GetRuntimeClass@CArchiveException@@UBEPAUCRuntimeClass@@XZ')
(5513, 5794, 2021325978L, '?GetRuntimeClass@CAsyncMonikerFile@@UBEPAUCRuntimeClass@@XZ')
(5514, 5795, 2021752457L, '?GetRuntimeClass@CAsyncSocket@@UBEPAUCRuntimeClass@@XZ')
(5515, 5796, 2019853419L, '?GetRuntimeClass@CAutoHideDockSite@@UBEPAUCRuntimeClass@@XZ')
(5516, 5797, 2019854842L, '?GetRuntimeClass@CBasePane@@UBEPAUCRuntimeClass@@XZ')
(5517, 5798, 2019871683L, '?GetRuntimeClass@CBaseTabbedPane@@UBEPAUCRuntimeClass@@XZ')
(5518, 5799, 2021902962L, '?GetRuntimeClass@CBitmap@@UBEPAUCRuntimeClass@@XZ')
(5519, 5800, 2021824060L, '?GetRuntimeClass@CBitmapButton@@UBEPAUCRuntimeClass@@XZ')
(5520, 5801, 2021902940L, '?GetRuntimeClass@CBrush@@UBEPAUCRuntimeClass@@XZ')
(5521, 5802, 2019897201L, '?GetRuntimeClass@CButton@@UBEPAUCRuntimeClass@@XZ')
(5522, 5803, 2021239985L, '?GetRuntimeClass@CByteArray@@UBEPAUCRuntimeClass@@XZ')
(5523, 5804, 2021326000L, '?GetRuntimeClass@CCachedDataPathProperty@@UBEPAUCRuntimeClass@@XZ')
(5524, 5805, 2021869845L, '?GetRuntimeClass@CCheckListBox@@UBEPAUCRuntimeClass@@XZ')
(5525, 5806, 2021902854L, '?GetRuntimeClass@CClientDC@@UBEPAUCRuntimeClass@@XZ')
(5526, 5807, 2021504386L, '?GetRuntimeClass@CCmdTarget@@UBEPAUCRuntimeClass@@XZ')
(5527, 5808, 2021441461L, '?GetRuntimeClass@CColorDialog@@UBEPAUCRuntimeClass@@XZ')
(5528, 5809, 2021861922L, '?GetRuntimeClass@CComboBox@@UBEPAUCRuntimeClass@@XZ')
(5529, 5810, 2021861933L, '?GetRuntimeClass@CComboBoxEx@@UBEPAUCRuntimeClass@@XZ')
(5530, 5811, 2021462807L, '?GetRuntimeClass@CCommonDialog@@UBEPAUCRuntimeClass@@XZ')
(5531, 5812, 2021271942L, '?GetRuntimeClass@CControlBar@@UBEPAUCRuntimeClass@@XZ')
(5532, 5813, 2021568372L, '?GetRuntimeClass@CCriticalSection@@UBEPAUCRuntimeClass@@XZ')
(5533, 5814, 2021768625L, '?GetRuntimeClass@CCtrlView@@UBEPAUCRuntimeClass@@XZ')
(5534, 5815, 2021352458L, '?GetRuntimeClass@CDaoDatabase@@UBEPAUCRuntimeClass@@XZ')
(5535, 5816, 2021346149L, '?GetRuntimeClass@CDaoException@@UBEPAUCRuntimeClass@@XZ')
(5536, 5817, 2021364060L, '?GetRuntimeClass@CDaoQueryDef@@UBEPAUCRuntimeClass@@XZ')
(5537, 5818, 2021368574L, '?GetRuntimeClass@CDaoRecordset@@UBEPAUCRuntimeClass@@XZ')
(5538, 5819, 2021390318L, '?GetRuntimeClass@CDaoRecordView@@UBEPAUCRuntimeClass@@XZ')
(5539, 5820, 2021359341L, '?GetRuntimeClass@CDaoTableDef@@UBEPAUCRuntimeClass@@XZ')
(5540, 5821, 2021347201L, '?GetRuntimeClass@CDaoWorkspace@@UBEPAUCRuntimeClass@@XZ')
(5541, 5822, 2021413059L, '?GetRuntimeClass@CDatabase@@UBEPAUCRuntimeClass@@XZ')
(5542, 5823, 2021325989L, '?GetRuntimeClass@CDataPathProperty@@UBEPAUCRuntimeClass@@XZ')
(5543, 5824, 2021877086L, '?GetRuntimeClass@CDateTimeCtrl@@UBEPAUCRuntimeClass@@XZ')
(5544, 5825, 2021413048L, '?GetRuntimeClass@CDBException@@UBEPAUCRuntimeClass@@XZ')
(5545, 5826, 2021296321L, '?GetRuntimeClass@CDC@@UBEPAUCRuntimeClass@@XZ')
(5546, 5827, 2021463219L, '?GetRuntimeClass@CDHtmlDialog@@UBEPAUCRuntimeClass@@XZ')
(5547, 5828, 2021318548L, '?GetRuntimeClass@CDialog@@UBEPAUCRuntimeClass@@XZ')
(5548, 5829, 2021252039L, '?GetRuntimeClass@CDialogBar@@UBEPAUCRuntimeClass@@XZ')
(5549, 5830, 2020001465L, '?GetRuntimeClass@CDialogEx@@UBEPAUCRuntimeClass@@XZ')
(5550, 5831, 2021664337L, '?GetRuntimeClass@CDocItem@@UBEPAUCRuntimeClass@@XZ')
(5551, 5832, 2020026154L, '?GetRuntimeClass@CDockablePane@@UBEPAUCRuntimeClass@@XZ')
(5552, 5833, 2020026165L, '?GetRuntimeClass@CDockablePaneAdapter@@UBEPAUCRuntimeClass@@XZ')
(5553, 5834, 2021258360L, '?GetRuntimeClass@CDockBar@@UBEPAUCRuntimeClass@@XZ')
(5554, 5835, 2020052633L, '?GetRuntimeClass@CDockingPanesRow@@UBEPAUCRuntimeClass@@XZ')
(5555, 5836, 2020066672L, '?GetRuntimeClass@CDockSite@@UBEPAUCRuntimeClass@@XZ')
(5556, 5837, 2021516768L, '?GetRuntimeClass@CDockState@@UBEPAUCRuntimeClass@@XZ')
(5557, 5838, 2021525989L, '?GetRuntimeClass@CDocManager@@UBEPAUCRuntimeClass@@XZ')
(5558, 5839, 2021668326L, '?GetRuntimeClass@CDocObjectServer@@UBEPAUCRuntimeClass@@XZ')
(5559, 5840, 2021673420L, '?GetRuntimeClass@CDocObjectServerItem@@UBEPAUCRuntimeClass@@XZ')
(5560, 5841, 2021529567L, '?GetRuntimeClass@CDocTemplate@@UBEPAUCRuntimeClass@@XZ')
(5561, 5842, 2021504397L, '?GetRuntimeClass@CDocument@@UBEPAUCRuntimeClass@@XZ')
(5562, 5843, 2021861878L, '?GetRuntimeClass@CDragListBox@@UBEPAUCRuntimeClass@@XZ')
(5563, 5844, 2021240665L, '?GetRuntimeClass@CDWordArray@@UBEPAUCRuntimeClass@@XZ')
(5564, 5845, 2021936102L, '?GetRuntimeClass@CDynLinkLibrary@@UBEPAUCRuntimeClass@@XZ')
(5565, 5846, 2021853782L, '?GetRuntimeClass@CEdit@@UBEPAUCRuntimeClass@@XZ')
(5566, 5847, 2021774783L, '?GetRuntimeClass@CEditView@@UBEPAUCRuntimeClass@@XZ')
(5567, 5848, 2021569417L, '?GetRuntimeClass@CEvent@@UBEPAUCRuntimeClass@@XZ')
(5568, 5849, 2021560456L, '?GetRuntimeClass@CException@@UBEPAUCRuntimeClass@@XZ')
(5569, 5850, 2021536352L, '?GetRuntimeClass@CFile@@UBEPAUCRuntimeClass@@XZ')
(5570, 5851, 2021459533L, '?GetRuntimeClass@CFileDialog@@UBEPAUCRuntimeClass@@XZ')
(5571, 5852, 2021548364L, '?GetRuntimeClass@CFileException@@UBEPAUCRuntimeClass@@XZ')
(5572, 5853, 2021538419L, '?GetRuntimeClass@CFileFind@@UBEPAUCRuntimeClass@@XZ')
(5573, 5854, 2021462818L, '?GetRuntimeClass@CFindReplaceDialog@@UBEPAUCRuntimeClass@@XZ')
(5574, 5855, 2021902951L, '?GetRuntimeClass@CFont@@UBEPAUCRuntimeClass@@XZ')
(5575, 5856, 2021462183L, '?GetRuntimeClass@CFontDialog@@UBEPAUCRuntimeClass@@XZ')
(5576, 5857, 2021791316L, '?GetRuntimeClass@CFormView@@UBEPAUCRuntimeClass@@XZ')
(5577, 5858, 2021914621L, '?GetRuntimeClass@CFrameWnd@@UBEPAUCRuntimeClass@@XZ')
(5578, 5859, 2020132372L, '?GetRuntimeClass@CFrameWndEx@@UBEPAUCRuntimeClass@@XZ')
(5579, 5860, 2021560533L, '?GetRuntimeClass@CFtpConnection@@UBEPAUCRuntimeClass@@XZ')
(5580, 5861, 2021560566L, '?GetRuntimeClass@CFtpFileFind@@UBEPAUCRuntimeClass@@XZ')
(5581, 5862, 2021902918L, '?GetRuntimeClass@CGdiObject@@UBEPAUCRuntimeClass@@XZ')
(5582, 5863, 2021560555L, '?GetRuntimeClass@CGopherConnection@@UBEPAUCRuntimeClass@@XZ')
(5583, 5864, 2021560500L, '?GetRuntimeClass@CGopherFile@@UBEPAUCRuntimeClass@@XZ')
(5584, 5865, 2021560577L, '?GetRuntimeClass@CGopherFileFind@@UBEPAUCRuntimeClass@@XZ')
(5585, 5866, 2020156091L, '?GetRuntimeClass@CHeaderCtrl@@UBEPAUCRuntimeClass@@XZ')
(5586, 5867, 2020237247L, '?GetRuntimeClass@CHelpComboBoxButton@@UBEPAUCRuntimeClass@@XZ')
(5587, 5868, 2021861944L, '?GetRuntimeClass@CHotKeyCtrl@@UBEPAUCRuntimeClass@@XZ')
(5588, 5869, 2021785819L, '?GetRuntimeClass@CHtmlEditDoc@@UBEPAUCRuntimeClass@@XZ')
(5589, 5870, 2021785808L, '?GetRuntimeClass@CHtmlEditView@@UBEPAUCRuntimeClass@@XZ')
(5590, 5871, 2021785797L, '?GetRuntimeClass@CHtmlView@@UBEPAUCRuntimeClass@@XZ')
(5591, 5872, 2021560544L, '?GetRuntimeClass@CHttpConnection@@UBEPAUCRuntimeClass@@XZ')
(5592, 5873, 2021560489L, '?GetRuntimeClass@CHttpFile@@UBEPAUCRuntimeClass@@XZ')
(5593, 5874, 2021862052L, '?GetRuntimeClass@CImageList@@UBEPAUCRuntimeClass@@XZ')
(5594, 5875, 2021560522L, '?GetRuntimeClass@CInternetConnection@@UBEPAUCRuntimeClass@@XZ')
(5595, 5876, 2021560467L, '?GetRuntimeClass@CInternetException@@UBEPAUCRuntimeClass@@XZ')
(5596, 5877, 2021560478L, '?GetRuntimeClass@CInternetFile@@UBEPAUCRuntimeClass@@XZ')
(5597, 5878, 2021560511L, '?GetRuntimeClass@CInternetSession@@UBEPAUCRuntimeClass@@XZ')
(5598, 5879, 2021531638L, '?GetRuntimeClass@CInvalidArgException@@UBEPAUCRuntimeClass@@XZ')
(5599, 5880, 2021879073L, '?GetRuntimeClass@CIPAddressCtrl@@UBEPAUCRuntimeClass@@XZ')
(5600, 5881, 2021879106L, '?GetRuntimeClass@CLinkCtrl@@UBEPAUCRuntimeClass@@XZ')
(5601, 5882, 2021869834L, '?GetRuntimeClass@CListBox@@UBEPAUCRuntimeClass@@XZ')
(5602, 5883, 2021861988L, '?GetRuntimeClass@CListCtrl@@UBEPAUCRuntimeClass@@XZ')
(5603, 5884, 2021766366L, '?GetRuntimeClass@CListView@@UBEPAUCRuntimeClass@@XZ')
(5604, 5885, 2021415254L, '?GetRuntimeClass@CLongBinary@@UBEPAUCRuntimeClass@@XZ')
(5605, 5886, 2021563924L, '?GetRuntimeClass@CMapPtrToPtr@@UBEPAUCRuntimeClass@@XZ')
(5606, 5887, 2021564431L, '?GetRuntimeClass@CMapPtrToWord@@UBEPAUCRuntimeClass@@XZ')
(5607, 5888, 2021565364L, '?GetRuntimeClass@CMapStringToOb@@UBEPAUCRuntimeClass@@XZ')
(5608, 5889, 2021565743L, '?GetRuntimeClass@CMapStringToPtr@@UBEPAUCRuntimeClass@@XZ')
(5609, 5890, 2021567150L, '?GetRuntimeClass@CMapStringToString@@UBEPAUCRuntimeClass@@XZ')
(5610, 5891, 2021567714L, '?GetRuntimeClass@CMapWordToOb@@UBEPAUCRuntimeClass@@XZ')
(5611, 5892, 2021568222L, '?GetRuntimeClass@CMapWordToPtr@@UBEPAUCRuntimeClass@@XZ')
(5612, 5893, 2021914632L, '?GetRuntimeClass@CMDIChildWnd@@UBEPAUCRuntimeClass@@XZ')
(5613, 5894, 2020215494L, '?GetRuntimeClass@CMDIChildWndEx@@UBEPAUCRuntimeClass@@XZ')
(5614, 5895, 2020194409L, '?GetRuntimeClass@CMDIClientAreaWnd@@UBEPAUCRuntimeClass@@XZ')
(5615, 5896, 2021914557L, '?GetRuntimeClass@CMDIFrameWnd@@UBEPAUCRuntimeClass@@XZ')
(5616, 5897, 2020227179L, '?GetRuntimeClass@CMDIFrameWndEx@@UBEPAUCRuntimeClass@@XZ')
(5617, 5898, 2021542595L, '?GetRuntimeClass@CMemFile@@UBEPAUCRuntimeClass@@XZ')
(5618, 5899, 2021531616L, '?GetRuntimeClass@CMemoryException@@UBEPAUCRuntimeClass@@XZ')
(5619, 5900, 2021917371L, '?GetRuntimeClass@CMenu@@UBEPAUCRuntimeClass@@XZ')
(5620, 5901, 2021436133L, '?GetRuntimeClass@CMetaFileDC@@UBEPAUCRuntimeClass@@XZ')
(5621, 5902, 2019846569L, '?GetRuntimeClass@CMFCAutoHideBar@@UBEPAUCRuntimeClass@@XZ')
(5622, 5903, 2019850721L, '?GetRuntimeClass@CMFCAutoHideButton@@UBEPAUCRuntimeClass@@XZ')
(5623, 5904, 2019878447L, '?GetRuntimeClass@CMFCBaseTabCtrl@@UBEPAUCRuntimeClass@@XZ')
(5624, 5905, 2019896871L, '?GetRuntimeClass@CMFCBaseToolBar@@UBEPAUCRuntimeClass@@XZ')
(5625, 5906, 2020248112L, '?GetRuntimeClass@CMFCButton@@UBEPAUCRuntimeClass@@XZ')
(5626, 5907, 2019907555L, '?GetRuntimeClass@CMFCCaptionBar@@UBEPAUCRuntimeClass@@XZ')
(5627, 5908, 2019921791L, '?GetRuntimeClass@CMFCColorBar@@UBEPAUCRuntimeClass@@XZ')
(5628, 5909, 2019932850L, '?GetRuntimeClass@CMFCColorButton@@UBEPAUCRuntimeClass@@XZ')
(5629, 5910, 2019939728L, '?GetRuntimeClass@CMFCColorMenuButton@@UBEPAUCRuntimeClass@@XZ')
(5630, 5911, 2019951841L, '?GetRuntimeClass@CMFCColorPopupMenu@@UBEPAUCRuntimeClass@@XZ')
(5631, 5912, 2019952383L, '?GetRuntimeClass@CMFCColorPropertySheet@@UBEPAUCRuntimeClass@@XZ')
(5632, 5913, 2019965680L, '?GetRuntimeClass@CMFCControlRenderer@@UBEPAUCRuntimeClass@@XZ')
(5633, 5914, 2019970117L, '?GetRuntimeClass@CMFCCustomColorsPropertyPage@@UBEPAUCRuntimeClass@@XZ')
(5634, 5915, 2020291225L, '?GetRuntimeClass@CMFCCustomizeButton@@UBEPAUCRuntimeClass@@XZ')
(5635, 5916, 2019976989L, '?GetRuntimeClass@CMFCCustomizeMenuButton@@UBEPAUCRuntimeClass@@XZ')
(5636, 5917, 2019990598L, '?GetRuntimeClass@CMFCDesktopAlertDialog@@UBEPAUCRuntimeClass@@XZ')
(5637, 5918, 2019994051L, '?GetRuntimeClass@CMFCDesktopAlertWnd@@UBEPAUCRuntimeClass@@XZ')
(5638, 5919, 2020102472L, '?GetRuntimeClass@CMFCDropDownFrame@@UBEPAUCRuntimeClass@@XZ')
(5639, 5920, 2020099097L, '?GetRuntimeClass@CMFCDropDownListBox@@UBEPAUCRuntimeClass@@XZ')
(5640, 5921, 2020101381L, '?GetRuntimeClass@CMFCDropDownToolBar@@UBEPAUCRuntimeClass@@XZ')
(5641, 5922, 2020104818L, '?GetRuntimeClass@CMFCDropDownToolbarButton@@UBEPAUCRuntimeClass@@XZ')
(5642, 5923, 2020156102L, '?GetRuntimeClass@CMFCHeaderCtrl@@UBEPAUCRuntimeClass@@XZ')
(5643, 5924, 2020182503L, '?GetRuntimeClass@CMFCLinkCtrl@@UBEPAUCRuntimeClass@@XZ')
(5644, 5925, 2020180956L, '?GetRuntimeClass@CMFCListCtrl@@UBEPAUCRuntimeClass@@XZ')
(5645, 5926, 2020184576L, '?GetRuntimeClass@CMFCMaskedEdit@@UBEPAUCRuntimeClass@@XZ')
(5646, 5927, 2020237357L, '?GetRuntimeClass@CMFCMenuBar@@UBEPAUCRuntimeClass@@XZ')
(5647, 5928, 2020248123L, '?GetRuntimeClass@CMFCMenuButton@@UBEPAUCRuntimeClass@@XZ')
(5648, 5929, 2020257438L, '?GetRuntimeClass@CMFCMousePropertyPage@@UBEPAUCRuntimeClass@@XZ')
(5649, 5930, 2020276984L, '?GetRuntimeClass@CMFCOutlookBar@@UBEPAUCRuntimeClass@@XZ')
(5650, 5931, 2020280411L, '?GetRuntimeClass@CMFCOutlookBarPane@@UBEPAUCRuntimeClass@@XZ')
(5651, 5932, 2020288941L, '?GetRuntimeClass@CMFCOutlookBarPaneAdapter@@UBEPAUCRuntimeClass@@XZ')
(5652, 5933, 2020289109L, '?GetRuntimeClass@CMFCOutlookBarPaneButton@@UBEPAUCRuntimeClass@@XZ')
(5653, 5934, 2020293236L, '?GetRuntimeClass@CMFCOutlookBarTabCtrl@@UBEPAUCRuntimeClass@@XZ')
(5654, 5935, 2020291974L, '?GetRuntimeClass@CMFCOutlookBarToolBar@@UBEPAUCRuntimeClass@@XZ')
(5655, 5936, 2020682472L, '?GetRuntimeClass@CMFCPopupMenu@@UBEPAUCRuntimeClass@@XZ')
(5656, 5937, 2020396113L, '?GetRuntimeClass@CMFCPopupMenuBar@@UBEPAUCRuntimeClass@@XZ')
(5657, 5938, 2020409278L, '?GetRuntimeClass@CMFCPrintPreviewToolBar@@UBEPAUCRuntimeClass@@XZ')
(5658, 5939, 2020422721L, '?GetRuntimeClass@CMFCPropertyGridColorProperty@@UBEPAUCRuntimeClass@@XZ')
(5659, 5940, 2020426457L, '?GetRuntimeClass@CMFCPropertyGridCtrl@@UBEPAUCRuntimeClass@@XZ')
(5660, 5941, 2020424737L, '?GetRuntimeClass@CMFCPropertyGridFileProperty@@UBEPAUCRuntimeClass@@XZ')
(5661, 5942, 2020425652L, '?GetRuntimeClass@CMFCPropertyGridFontProperty@@UBEPAUCRuntimeClass@@XZ')
(5662, 5943, 2020411540L, '?GetRuntimeClass@CMFCPropertyGridProperty@@UBEPAUCRuntimeClass@@XZ')
(5663, 5944, 2020447685L, '?GetRuntimeClass@CMFCPropertyGridToolTipCtrl@@UBEPAUCRuntimeClass@@XZ')
(5664, 5945, 2020449793L, '?GetRuntimeClass@CMFCPropertyPage@@UBEPAUCRuntimeClass@@XZ')
(5665, 5946, 2020568897L, '?GetRuntimeClass@CMFCPropertySheet@@UBEPAUCRuntimeClass@@XZ')
(5666, 5947, 2020452751L, '?GetRuntimeClass@CMFCPropertySheetCategoryInfo@@UBEPAUCRuntimeClass@@XZ')
(5667, 5948, 2020462451L, '?GetRuntimeClass@CMFCReBar@@UBEPAUCRuntimeClass@@XZ')
(5668, 5949, 2020467865L, '?GetRuntimeClass@CMFCRibbonApplicationButton@@UBEPAUCRuntimeClass@@XZ')
(5669, 5950, 2020469705L, '?GetRuntimeClass@CMFCRibbonBar@@UBEPAUCRuntimeClass@@XZ')
(5670, 5951, 2020504627L, '?GetRuntimeClass@CMFCRibbonBaseElement@@UBEPAUCRuntimeClass@@XZ')
(5671, 5952, 2020573149L, '?GetRuntimeClass@CMFCRibbonButton@@UBEPAUCRuntimeClass@@XZ')
(5672, 5953, 2020627343L, '?GetRuntimeClass@CMFCRibbonButtonsGroup@@UBEPAUCRuntimeClass@@XZ')
(5673, 5954, 2020467033L, '?GetRuntimeClass@CMFCRibbonCaptionButton@@UBEPAUCRuntimeClass@@XZ')
(5674, 5955, 2020526957L, '?GetRuntimeClass@CMFCRibbonCategory@@UBEPAUCRuntimeClass@@XZ')
(5675, 5956, 2020537471L, '?GetRuntimeClass@CMFCRibbonCheckBox@@UBEPAUCRuntimeClass@@XZ')
(5676, 5957, 2020551757L, '?GetRuntimeClass@CMFCRibbonColorButton@@UBEPAUCRuntimeClass@@XZ')
(5677, 5958, 2020551693L, '?GetRuntimeClass@CMFCRibbonColorMenuButton@@UBEPAUCRuntimeClass@@XZ')
(5678, 5959, 2020557302L, '?GetRuntimeClass@CMFCRibbonComboBox@@UBEPAUCRuntimeClass@@XZ')
(5679, 5960, 2020467299L, '?GetRuntimeClass@CMFCRibbonContextCaption@@UBEPAUCRuntimeClass@@XZ')
(5680, 5961, 2020568886L, '?GetRuntimeClass@CMFCRibbonCustomizeCategory@@UBEPAUCRuntimeClass@@XZ')
(5681, 5962, 2020568908L, '?GetRuntimeClass@CMFCRibbonCustomizeDialog@@UBEPAUCRuntimeClass@@XZ')
(5682, 5963, 2020569196L, '?GetRuntimeClass@CMFCRibbonCustomizePropertyPage@@UBEPAUCRuntimeClass@@XZ')
(5683, 5964, 2020646300L, '?GetRuntimeClass@CMFCRibbonDefaultPanelButton@@UBEPAUCRuntimeClass@@XZ')
(5684, 5965, 2020557291L, '?GetRuntimeClass@CMFCRibbonEdit@@UBEPAUCRuntimeClass@@XZ')
(5685, 5966, 2020560822L, '?GetRuntimeClass@CMFCRibbonFontComboBox@@UBEPAUCRuntimeClass@@XZ')
(5686, 5967, 2020636180L, '?GetRuntimeClass@CMFCRibbonGallery@@UBEPAUCRuntimeClass@@XZ')
(5687, 5968, 2020634482L, '?GetRuntimeClass@CMFCRibbonGalleryIcon@@UBEPAUCRuntimeClass@@XZ')
(5688, 5969, 2020644994L, '?GetRuntimeClass@CMFCRibbonGalleryMenuButton@@UBEPAUCRuntimeClass@@XZ')
(5689, 5970, 2020625055L, '?GetRuntimeClass@CMFCRibbonLabel@@UBEPAUCRuntimeClass@@XZ')
(5690, 5972, 2020626309L, '?GetRuntimeClass@CMFCRibbonLinkCtrl@@UBEPAUCRuntimeClass@@XZ')
(5691, 5973, 2020628762L, '?GetRuntimeClass@CMFCRibbonMainPanel@@UBEPAUCRuntimeClass@@XZ')
(5692, 5974, 2020632255L, '?GetRuntimeClass@CMFCRibbonMainPanelButton@@UBEPAUCRuntimeClass@@XZ')
(5693, 5975, 2020632668L, '?GetRuntimeClass@CMFCRibbonMiniToolBar@@UBEPAUCRuntimeClass@@XZ')
(5694, 5976, 2020628751L, '?GetRuntimeClass@CMFCRibbonPanel@@UBEPAUCRuntimeClass@@XZ')
(5695, 5977, 2020682483L, '?GetRuntimeClass@CMFCRibbonPanelMenu@@UBEPAUCRuntimeClass@@XZ')
(5696, 5978, 2020671453L, '?GetRuntimeClass@CMFCRibbonPanelMenuBar@@UBEPAUCRuntimeClass@@XZ')
(5697, 5979, 2020683715L, '?GetRuntimeClass@CMFCRibbonProgressBar@@UBEPAUCRuntimeClass@@XZ')
(5698, 5980, 2020686502L, '?GetRuntimeClass@CMFCRibbonQuickAccessCustomizeButton@@UBEPAUCRuntimeClass@@XZ')
(5699, 5981, 2020686566L, '?GetRuntimeClass@CMFCRibbonQuickAccessToolBar@@UBEPAUCRuntimeClass@@XZ')
(5700, 5982, 2020627354L, '?GetRuntimeClass@CMFCRibbonRecentFilesList@@UBEPAUCRuntimeClass@@XZ')
(5701, 5983, 2019863863L, '?GetRuntimeClass@CMFCRibbonSeparator@@UBEPAUCRuntimeClass@@XZ')
(5702, 5984, 2020688784L, '?GetRuntimeClass@CMFCRibbonSlider@@UBEPAUCRuntimeClass@@XZ')
(5703, 5985, 2020692443L, '?GetRuntimeClass@CMFCRibbonStatusBar@@UBEPAUCRuntimeClass@@XZ')
(5704, 5986, 2020692432L, '?GetRuntimeClass@CMFCRibbonStatusBarCustomizeButton@@UBEPAUCRuntimeClass@@XZ')
(5705, 5987, 2020701037L, '?GetRuntimeClass@CMFCRibbonStatusBarPane@@UBEPAUCRuntimeClass@@XZ')
(5706, 5988, 2020704208L, '?GetRuntimeClass@CMFCRibbonUndoButton@@UBEPAUCRuntimeClass@@XZ')
(5707, 5989, 2019965691L, '?GetRuntimeClass@CMFCShadowRenderer@@UBEPAUCRuntimeClass@@XZ')
(5708, 5990, 2020710115L, '?GetRuntimeClass@CMFCShellListCtrl@@UBEPAUCRuntimeClass@@XZ')
(5709, 5991, 2020717856L, '?GetRuntimeClass@CMFCShellTreeCtrl@@UBEPAUCRuntimeClass@@XZ')
(5710, 5992, 2020722908L, '?GetRuntimeClass@CMFCShowAllButton@@UBEPAUCRuntimeClass@@XZ')
(5711, 5993, 2020737284L, '?GetRuntimeClass@CMFCStandardColorsPropertyPage@@UBEPAUCRuntimeClass@@XZ')
(5712, 5994, 2020749559L, '?GetRuntimeClass@CMFCStatusBar@@UBEPAUCRuntimeClass@@XZ')
(5713, 5995, 2020751295L, '?GetRuntimeClass@CMFCTabCtrl@@UBEPAUCRuntimeClass@@XZ')
(5714, 5996, 2020794619L, '?GetRuntimeClass@CMFCTasksPane@@UBEPAUCRuntimeClass@@XZ')
(5715, 5997, 2020818957L, '?GetRuntimeClass@CMFCTasksPaneFrameWnd@@UBEPAUCRuntimeClass@@XZ')
(5716, 5998, 2020793750L, '?GetRuntimeClass@CMFCTasksPaneToolBar@@UBEPAUCRuntimeClass@@XZ')
(5717, 5999, 2020237346L, '?GetRuntimeClass@CMFCToolBar@@UBEPAUCRuntimeClass@@XZ')
(5718, 6000, 2020896561L, '?GetRuntimeClass@CMFCToolBarButton@@UBEPAUCRuntimeClass@@XZ')
(5719, 6001, 2019920495L, '?GetRuntimeClass@CMFCToolBarColorButton@@UBEPAUCRuntimeClass@@XZ')
(5720, 6002, 2020237236L, '?GetRuntimeClass@CMFCToolBarComboBoxButton@@UBEPAUCRuntimeClass@@XZ')
(5721, 6003, 2020896572L, '?GetRuntimeClass@CMFCToolBarDateTimeCtrl@@UBEPAUCRuntimeClass@@XZ')
(5722, 6004, 2020901143L, '?GetRuntimeClass@CMFCToolBarEditBoxButton@@UBEPAUCRuntimeClass@@XZ')
(5723, 6005, 2020905559L, '?GetRuntimeClass@CMFCToolBarFontComboBox@@UBEPAUCRuntimeClass@@XZ')
(5724, 6006, 2020907755L, '?GetRuntimeClass@CMFCToolBarFontSizeComboBox@@UBEPAUCRuntimeClass@@XZ')
(5725, 6007, 2019976978L, '?GetRuntimeClass@CMFCToolBarMenuButton@@UBEPAUCRuntimeClass@@XZ')
(5726, 6008, 2020952194L, '?GetRuntimeClass@CMFCToolBarMenuButtonsButton@@UBEPAUCRuntimeClass@@XZ')
(5727, 6009, 2020968396L, '?GetRuntimeClass@CMFCToolBarsCommandsPropertyPage@@UBEPAUCRuntimeClass@@XZ')
(5728, 6010, 2020953832L, '?GetRuntimeClass@CMFCToolBarsCustomizeDialog@@UBEPAUCRuntimeClass@@XZ')
(5729, 6011, 2020963100L, '?GetRuntimeClass@CMFCToolBarsKeyboardPropertyPage@@UBEPAUCRuntimeClass@@XZ')
(5730, 6012, 2020968461L, '?GetRuntimeClass@CMFCToolBarsListPropertyPage@@UBEPAUCRuntimeClass@@XZ')
(5731, 6013, 2020973066L, '?GetRuntimeClass@CMFCToolBarsMenuPropertyPage@@UBEPAUCRuntimeClass@@XZ')
(5732, 6014, 2020978351L, '?GetRuntimeClass@CMFCToolBarsOptionsPropertyPage@@UBEPAUCRuntimeClass@@XZ')
(5733, 6015, 2020979642L, '?GetRuntimeClass@CMFCToolBarSpinEditBoxButton@@UBEPAUCRuntimeClass@@XZ')
(5734, 6016, 2020980904L, '?GetRuntimeClass@CMFCToolBarSystemMenuButton@@UBEPAUCRuntimeClass@@XZ')
(5735, 6017, 2020984899L, '?GetRuntimeClass@CMFCToolTipCtrl@@UBEPAUCRuntimeClass@@XZ')
(5736, 6018, 2020994379L, '?GetRuntimeClass@CMFCVisualManager@@UBEPAUCRuntimeClass@@XZ')
(5737, 6019, 2021028518L, '?GetRuntimeClass@CMFCVisualManagerOffice2003@@UBEPAUCRuntimeClass@@XZ')
(5738, 6020, 2021054883L, '?GetRuntimeClass@CMFCVisualManagerOffice2007@@UBEPAUCRuntimeClass@@XZ')
(5739, 6021, 2021166286L, '?GetRuntimeClass@CMFCVisualManagerOfficeXP@@UBEPAUCRuntimeClass@@XZ')
(5740, 6022, 2021154355L, '?GetRuntimeClass@CMFCVisualManagerVS2005@@UBEPAUCRuntimeClass@@XZ')
(5741, 6023, 2021166297L, '?GetRuntimeClass@CMFCVisualManagerWindows@@UBEPAUCRuntimeClass@@XZ')
(5742, 6024, 2021258435L, '?GetRuntimeClass@CMiniDockFrameWnd@@UBEPAUCRuntimeClass@@XZ')
(5743, 6025, 2021258424L, '?GetRuntimeClass@CMiniFrameWnd@@UBEPAUCRuntimeClass@@XZ')
(5744, 6026, 2021700092L, '?GetRuntimeClass@CMonikerFile@@UBEPAUCRuntimeClass@@XZ')
(5745, 6027, 2021877097L, '?GetRuntimeClass@CMonthCalCtrl@@UBEPAUCRuntimeClass@@XZ')
(5746, 6028, 2020254670L, '?GetRuntimeClass@CMouseManager@@UBEPAUCRuntimeClass@@XZ')
(5747, 6029, 2021526869L, '?GetRuntimeClass@CMultiDocTemplate@@UBEPAUCRuntimeClass@@XZ')
(5748, 6030, 2021463230L, '?GetRuntimeClass@CMultiPageDHtmlDialog@@UBEPAUCRuntimeClass@@XZ')
(5749, 6031, 2020259817L, '?GetRuntimeClass@CMultiPaneFrameWnd@@UBEPAUCRuntimeClass@@XZ')
(5750, 6032, 2021569439L, '?GetRuntimeClass@CMutex@@UBEPAUCRuntimeClass@@XZ')
(5751, 6033, 2021879117L, '?GetRuntimeClass@CNetAddressCtrl@@UBEPAUCRuntimeClass@@XZ')
(5752, 6034, 2021531627L, '?GetRuntimeClass@CNotSupportedException@@UBEPAUCRuntimeClass@@XZ')
(5753, 6035, 2021241420L, '?GetRuntimeClass@CObArray@@UBEPAUCRuntimeClass@@XZ')
(5754, 6036, 2021243429L, '?GetRuntimeClass@CObject@@UBEPAUCRuntimeClass@@XZ')
(5755, 6037, 2021561311L, '?GetRuntimeClass@CObList@@UBEPAUCRuntimeClass@@XZ')
(5756, 6038, 2021644753L, '?GetRuntimeClass@COleBusyDialog@@UBEPAUCRuntimeClass@@XZ')
(5757, 6039, 2021644275L, '?GetRuntimeClass@COleChangeIconDialog@@UBEPAUCRuntimeClass@@XZ')
(5758, 6040, 2021647074L, '?GetRuntimeClass@COleChangeSourceDialog@@UBEPAUCRuntimeClass@@XZ')
(5759, 6041, 2021664383L, '?GetRuntimeClass@COleClientItem@@UBEPAUCRuntimeClass@@XZ')
(5760, 6042, 2020268193L, '?GetRuntimeClass@COleCntrFrameWndEx@@UBEPAUCRuntimeClass@@XZ')
(5761, 6043, 2021286223L, '?GetRuntimeClass@COleControl@@UBEPAUCRuntimeClass@@XZ')
(5762, 6044, 2021296273L, '?GetRuntimeClass@COleControlModule@@UBEPAUCRuntimeClass@@XZ')
(5763, 6045, 2021644264L, '?GetRuntimeClass@COleConvertDialog@@UBEPAUCRuntimeClass@@XZ')
(5764, 6046, 2021791327L, '?GetRuntimeClass@COleDBRecordView@@UBEPAUCRuntimeClass@@XZ')
(5765, 6047, 2021647063L, '?GetRuntimeClass@COleDialog@@UBEPAUCRuntimeClass@@XZ')
(5766, 6048, 2021652410L, '?GetRuntimeClass@COleDispatchException@@UBEPAUCRuntimeClass@@XZ')
(5767, 6049, 2021667590L, '?GetRuntimeClass@COleDocIPFrameWnd@@UBEPAUCRuntimeClass@@XZ')
(5768, 6050, 2020269681L, '?GetRuntimeClass@COleDocIPFrameWndEx@@UBEPAUCRuntimeClass@@XZ')
(5769, 6051, 2021664553L, '?GetRuntimeClass@COleDocObjectItem@@UBEPAUCRuntimeClass@@XZ')
(5770, 6052, 2021624953L, '?GetRuntimeClass@COleDocument@@UBEPAUCRuntimeClass@@XZ')
(5771, 6053, 2021698145L, '?GetRuntimeClass@COleException@@UBEPAUCRuntimeClass@@XZ')
(5772, 6054, 2021644253L, '?GetRuntimeClass@COleInsertDialog@@UBEPAUCRuntimeClass@@XZ')
(5773, 6055, 2020272551L, '?GetRuntimeClass@COleIPFrameWnd@@UBEPAUCRuntimeClass@@XZ')
(5774, 6056, 2020272562L, '?GetRuntimeClass@COleIPFrameWndEx@@UBEPAUCRuntimeClass@@XZ')
(5775, 6057, 2021727120L, '?GetRuntimeClass@COleLinkingDoc@@UBEPAUCRuntimeClass@@XZ')
(5776, 6058, 2021644286L, '?GetRuntimeClass@COleLinksDialog@@UBEPAUCRuntimeClass@@XZ')
(5777, 6059, 2021685348L, '?GetRuntimeClass@COleObjectFactory@@UBEPAUCRuntimeClass@@XZ')
(5778, 6060, 2021644308L, '?GetRuntimeClass@COlePasteSpecialDialog@@UBEPAUCRuntimeClass@@XZ')
(5779, 6061, 2021647052L, '?GetRuntimeClass@COlePropertiesDialog@@UBEPAUCRuntimeClass@@XZ')
(5780, 6062, 2021318559L, '?GetRuntimeClass@COlePropertyPage@@UBEPAUCRuntimeClass@@XZ')
(5781, 6063, 2021615669L, '?GetRuntimeClass@COleResizeBar@@UBEPAUCRuntimeClass@@XZ')
(5782, 6064, 2021727131L, '?GetRuntimeClass@COleServerDoc@@UBEPAUCRuntimeClass@@XZ')
(5783, 6065, 2020275350L, '?GetRuntimeClass@COleServerDocEx@@UBEPAUCRuntimeClass@@XZ')
(5784, 6066, 2021673409L, '?GetRuntimeClass@COleServerItem@@UBEPAUCRuntimeClass@@XZ')
(5785, 6067, 2021713356L, '?GetRuntimeClass@COleStreamFile@@UBEPAUCRuntimeClass@@XZ')
(5786, 6068, 2021644297L, '?GetRuntimeClass@COleUpdateDialog@@UBEPAUCRuntimeClass@@XZ')
(5787, 6069, 2020291236L, '?GetRuntimeClass@COutlookCustomizeButton@@UBEPAUCRuntimeClass@@XZ')
(5788, 6070, 2021879095L, '?GetRuntimeClass@CPagerCtrl@@UBEPAUCRuntimeClass@@XZ')
(5789, 6071, 2021491202L, '?GetRuntimeClass@CPageSetupDialog@@UBEPAUCRuntimeClass@@XZ')
(5790, 6072, 2021902876L, '?GetRuntimeClass@CPaintDC@@UBEPAUCRuntimeClass@@XZ')
(5791, 6073, 2021902973L, '?GetRuntimeClass@CPalette@@UBEPAUCRuntimeClass@@XZ')
(5792, 6074, 2020749548L, '?GetRuntimeClass@CPane@@UBEPAUCRuntimeClass@@XZ')
(5793, 6075, 2020316770L, '?GetRuntimeClass@CPaneContainer@@UBEPAUCRuntimeClass@@XZ')
(5794, 6076, 2020330996L, '?GetRuntimeClass@CPaneContainerManager@@UBEPAUCRuntimeClass@@XZ')
(5795, 6077, 2020340269L, '?GetRuntimeClass@CPaneDialog@@UBEPAUCRuntimeClass@@XZ')
(5796, 6078, 2020341268L, '?GetRuntimeClass@CPaneDivider@@UBEPAUCRuntimeClass@@XZ')
(5797, 6079, 2020818946L, '?GetRuntimeClass@CPaneFrameWnd@@UBEPAUCRuntimeClass@@XZ')
(5798, 6080, 2021902929L, '?GetRuntimeClass@CPen@@UBEPAUCRuntimeClass@@XZ')
(5799, 6081, 2021440960L, '?GetRuntimeClass@CPreviewDC@@UBEPAUCRuntimeClass@@XZ')
(5800, 6082, 2020409256L, '?GetRuntimeClass@CPreviewView@@UBEPAUCRuntimeClass@@XZ')
(5801, 6083, 2020409267L, '?GetRuntimeClass@CPreviewViewEx@@UBEPAUCRuntimeClass@@XZ')
(5802, 6084, 2021491191L, '?GetRuntimeClass@CPrintDialog@@UBEPAUCRuntimeClass@@XZ')
(5803, 6085, 2021492861L, '?GetRuntimeClass@CPrintDialogEx@@UBEPAUCRuntimeClass@@XZ')
(5804, 6086, 2021861911L, '?GetRuntimeClass@CProgressCtrl@@UBEPAUCRuntimeClass@@XZ')
(5805, 6087, 2020968385L, '?GetRuntimeClass@CPropertyPage@@UBEPAUCRuntimeClass@@XZ')
(5806, 6088, 2020453179L, '?GetRuntimeClass@CPropertySheet@@UBEPAUCRuntimeClass@@XZ')
(5807, 6089, 2021240839L, '?GetRuntimeClass@CPtrArray@@UBEPAUCRuntimeClass@@XZ')
(5808, 6090, 2021561758L, '?GetRuntimeClass@CPtrList@@UBEPAUCRuntimeClass@@XZ')
(5809, 6091, 2021271953L, '?GetRuntimeClass@CReBar@@UBEPAUCRuntimeClass@@XZ')
(5810, 6092, 2021879084L, '?GetRuntimeClass@CReBarCtrl@@UBEPAUCRuntimeClass@@XZ')
(5811, 6093, 2021413070L, '?GetRuntimeClass@CRecordset@@UBEPAUCRuntimeClass@@XZ')
(5812, 6094, 2021434354L, '?GetRuntimeClass@CRecordView@@UBEPAUCRuntimeClass@@XZ')
(5813, 6095, 2021902783L, '?GetRuntimeClass@CResourceException@@UBEPAUCRuntimeClass@@XZ')
(5814, 6096, 2021902984L, '?GetRuntimeClass@CRgn@@UBEPAUCRuntimeClass@@XZ')
(5815, 6097, 2020704144L, '?GetRuntimeClass@CRibbonUndoLabel@@UBEPAUCRuntimeClass@@XZ')
(5816, 6098, 2021815846L, '?GetRuntimeClass@CRichEditCntrItem@@UBEPAUCRuntimeClass@@XZ')
(5817, 6099, 2021862063L, '?GetRuntimeClass@CRichEditCtrl@@UBEPAUCRuntimeClass@@XZ')
(5818, 6100, 2021815892L, '?GetRuntimeClass@CRichEditDoc@@UBEPAUCRuntimeClass@@XZ')
(5819, 6101, 2021815956L, '?GetRuntimeClass@CRichEditView@@UBEPAUCRuntimeClass@@XZ')
(5820, 6102, 2021853793L, '?GetRuntimeClass@CScrollBar@@UBEPAUCRuntimeClass@@XZ')
(5821, 6103, 2021823212L, '?GetRuntimeClass@CScrollView@@UBEPAUCRuntimeClass@@XZ')
(5822, 6104, 2021569428L, '?GetRuntimeClass@CSemaphore@@UBEPAUCRuntimeClass@@XZ')
(5823, 6105, 2020707395L, '?GetRuntimeClass@CSettingsStore@@UBEPAUCRuntimeClass@@XZ')
(5824, 6106, 2021542960L, '?GetRuntimeClass@CSharedFile@@UBEPAUCRuntimeClass@@XZ')
(5825, 6107, 2021902794L, '?GetRuntimeClass@CSimpleException@@UBEPAUCRuntimeClass@@XZ')
(5826, 6108, 2021527706L, '?GetRuntimeClass@CSingleDocTemplate@@UBEPAUCRuntimeClass@@XZ')
(5827, 6109, 2021861900L, '?GetRuntimeClass@CSliderCtrl@@UBEPAUCRuntimeClass@@XZ')
(5828, 6110, 2020723723L, '?GetRuntimeClass@CSmartDockingGroupGuidesManager@@UBEPAUCRuntimeClass@@XZ')
(5829, 6111, 2020723659L, '?GetRuntimeClass@CSmartDockingStandaloneGuide@@UBEPAUCRuntimeClass@@XZ')
(5830, 6112, 2021752468L, '?GetRuntimeClass@CSocket@@UBEPAUCRuntimeClass@@XZ')
(5831, 6113, 2021752479L, '?GetRuntimeClass@CSocketFile@@UBEPAUCRuntimeClass@@XZ')
(5832, 6114, 2021861889L, '?GetRuntimeClass@CSpinButtonCtrl@@UBEPAUCRuntimeClass@@XZ')
(5833, 6115, 2021853771L, '?GetRuntimeClass@CSplitButton@@UBEPAUCRuntimeClass@@XZ')
(5834, 6116, 2021768603L, '?GetRuntimeClass@CSplitterWnd@@UBEPAUCRuntimeClass@@XZ')
(5835, 6117, 2021853760L, '?GetRuntimeClass@CStatic@@UBEPAUCRuntimeClass@@XZ')
(5836, 6118, 2021261669L, '?GetRuntimeClass@CStatusBar@@UBEPAUCRuntimeClass@@XZ')
(5837, 6119, 2021862010L, '?GetRuntimeClass@CStatusBarCtrl@@UBEPAUCRuntimeClass@@XZ')
(5838, 6120, 2021547220L, '?GetRuntimeClass@CStdioFile@@UBEPAUCRuntimeClass@@XZ')
(5839, 6121, 2021243196L, '?GetRuntimeClass@CStringArray@@UBEPAUCRuntimeClass@@XZ')
(5840, 6122, 2021563310L, '?GetRuntimeClass@CStringList@@UBEPAUCRuntimeClass@@XZ')
(5841, 6123, 2021568383L, '?GetRuntimeClass@CSyncObject@@UBEPAUCRuntimeClass@@XZ')
(5842, 6124, 2020749844L, '?GetRuntimeClass@CTabbedPane@@UBEPAUCRuntimeClass@@XZ')
(5843, 6125, 2021861966L, '?GetRuntimeClass@CTabCtrl@@UBEPAUCRuntimeClass@@XZ')
(5844, 6126, 2020773319L, '?GetRuntimeClass@CTabView@@UBEPAUCRuntimeClass@@XZ')
(5845, 6127, 2020785626L, '?GetRuntimeClass@CTaskDialog@@UBEPAUCRuntimeClass@@XZ')
(5846, 6128, 2020793449L, '?GetRuntimeClass@CTasksPaneHistoryButton@@UBEPAUCRuntimeClass@@XZ')
(5847, 6129, 2020793624L, '?GetRuntimeClass@CTasksPaneMenuButton@@UBEPAUCRuntimeClass@@XZ')
(5848, 6130, 2020792850L, '?GetRuntimeClass@CTasksPaneNavigateButton@@UBEPAUCRuntimeClass@@XZ')
(5849, 6131, 2021269901L, '?GetRuntimeClass@CToolBar@@UBEPAUCRuntimeClass@@XZ')
(5850, 6132, 2021861999L, '?GetRuntimeClass@CToolBarCtrl@@UBEPAUCRuntimeClass@@XZ')
(5851, 6133, 2021761721L, '?GetRuntimeClass@CToolTipCtrl@@UBEPAUCRuntimeClass@@XZ')
(5852, 6134, 2021861977L, '?GetRuntimeClass@CTreeCtrl@@UBEPAUCRuntimeClass@@XZ')
(5853, 6135, 2021766450L, '?GetRuntimeClass@CTreeView@@UBEPAUCRuntimeClass@@XZ')
(5854, 6136, 2021243440L, '?GetRuntimeClass@CUIntArray@@UBEPAUCRuntimeClass@@XZ')
(5855, 6137, 2021902805L, '?GetRuntimeClass@CUserException@@UBEPAUCRuntimeClass@@XZ')
(5856, 6138, 2020991285L, '?GetRuntimeClass@CUserTool@@UBEPAUCRuntimeClass@@XZ')
(5857, 6139, 2021768614L, '?GetRuntimeClass@CView@@UBEPAUCRuntimeClass@@XZ')
(5858, 6140, 2021223444L, '?GetRuntimeClass@CWinApp@@UBEPAUCRuntimeClass@@XZ')
(5859, 6141, 2021207970L, '?GetRuntimeClass@CWinAppEx@@UBEPAUCRuntimeClass@@XZ')
(5860, 6142, 2021902865L, '?GetRuntimeClass@CWindowDC@@UBEPAUCRuntimeClass@@XZ')
(5861, 6143, 2021296332L, '?GetRuntimeClass@CWindowlessDC@@UBEPAUCRuntimeClass@@XZ')
(5862, 6144, 2021223433L, '?GetRuntimeClass@CWinThread@@UBEPAUCRuntimeClass@@XZ')
(5863, 6145, 2021877075L, '?GetRuntimeClass@CWnd@@UBEPAUCRuntimeClass@@XZ')
(5864, 6146, 2021244642L, '?GetRuntimeClass@CWordArray@@UBEPAUCRuntimeClass@@XZ')
(5865, 6147, 2021836522L, '?GetSafeOwner@CWnd@@SGPAV1@PAV1@PAPAUHWND__@@@Z')
(5866, 6148, 2021227571L, '?GetSafeOwner_@CWnd@@SGPAUHWND__@@PAU2@PAPAU2@@Z')
(5867, 6149, 2021441428L, '?GetSavedCustomColors@CColorDialog@@SGPAKXZ')
(5868, 6150, 2021559783L, '?GetScreenName@CGopherFileFind@@QBE?AV?$CStringT@_WV?$StrTraitMFC_DLL@_WV?$ChTraitsCRT@_W@ATL@@@@@ATL@@XZ')
(5869, 6151, 2021514565L, '?GetScreenSize@CDockState@@QAE?AVCSize@@XZ')
(5870, 6152, 2020439875L, '?GetScrollBarCtrl@CMFCPropertyGridCtrl@@UBEPAVCScrollBar@@H@Z')
(5871, 6153, 2020807766L, '?GetScrollBarCtrl@CMFCTasksPane@@UBEPAVCScrollBar@@H@Z')
(5872, 6154, 2020883323L, '?GetScrollBarCtrl@CMFCToolBarButtonsListButton@@UBEPAVCScrollBar@@H@Z')
(5873, 6155, 2021767783L, '?GetScrollBarCtrl@CView@@UBEPAVCScrollBar@@H@Z')
(5874, 6156, 2020790482L, '?GetScrollBarCtrl@CWnd@@UBEPAVCScrollBar@@H@Z')
(5875, 6157, 2021820932L, '?GetScrollBarSizes@CScrollView@@IAEXAAVCSize@@@Z')
(5876, 6158, 2021821203L, '?GetScrollBarState@CScrollView@@IAEXVCSize@@AAV2@1AAVCPoint@@H@Z')
(5877, 6159, 2021837263L, '?GetScrollInfo@CWnd@@QAEHHPAUtagSCROLLINFO@@I@Z')
(5878, 6160, 2021837335L, '?GetScrollLimit@CWnd@@QAEHH@Z')
(5879, 6161, 2021836942L, '?GetScrollPos@CWnd@@QBEHH@Z')
(5880, 6162, 2021818447L, '?GetScrollPosition@CScrollView@@QBE?AVCPoint@@XZ')
(5881, 6163, 2021837055L, '?GetScrollRange@CWnd@@QBEXHPAH0@Z')
(5882, 6164, 2021923675L, '?GetScrollStyle@CSplitterWnd@@QBEKXZ')
(5883, 6165, 2021707260L, '?GetSection@CPropertySet@@QAEPAVCPropertySection@@U_GUID@@@Z')
(5884, 6166, 2021213084L, '?GetSectionBinary@CWinAppEx@@QAEHPB_W0PAPAEPAI@Z')
(5885, 6167, 2021212731L, '?GetSectionInt@CWinAppEx@@QAEHPB_W0H@Z')
(5886, 6169, 2021706500L, '?GetSectionName@CPropertySection@@QAEPB_WXZ')
(5887, 6170, 2021213287L, '?GetSectionObject@CWinAppEx@@QAEHPB_W0AAVCObject@@@Z')
(5888, 6171, 2021212892L, '?GetSectionString@CWinAppEx@@QAE?AV?$CStringT@_WV?$StrTraitMFC_DLL@_WV?$ChTraitsCRT@_W@ATL@@@@@ATL@@PB_W00@Z')
(5889, 6172, 2021870745L, '?GetSel@CRichEditCtrl@@QBEXAAJ0@Z')
(5890, 6173, 2020564135L, '?GetSelected@CMFCRibbonCommandsListBox@@QBEPAVCMFCRibbonBaseElement@@XZ')
(5891, 6174, 2019846073L, '?GetSelectedCommandControlID@CTaskDialog@@QBEHXZ')
(5892, 6175, 2021809235L, '?GetSelectedItem@CRichEditView@@QBEPAVCRichEditCntrItem@@XZ')
(5893, 6176, 2020788459L, '?GetSelectedRadioButtonID@CTaskDialog@@QBEHXZ')
(5894, 6177, 2021772798L, '?GetSelectedText@CEditView@@QBEXAAV?$CStringT@_WV?$StrTraitMFC_DLL@_WV?$ChTraitsCRT@_W@ATL@@@@@ATL@@@Z')
(5895, 6178, 2021859397L, '?GetSelection@CSliderCtrl@@QBEXAAH0@Z')
(5896, 6179, 2021871469L, '?GetSelectionCharFormat@CRichEditCtrl@@QBEKAAU_charformatw@@@Z')
(5897, 6180, 2021871509L, '?GetSelectionCharFormat@CRichEditCtrl@@QBEKAAUCHARFORMAT2W@@@Z')
(5898, 6181, 2021641899L, '?GetSelectionType@COleConvertDialog@@QBEIXZ')
(5899, 6182, 2021641003L, '?GetSelectionType@COleInsertDialog@@QBEIXZ')
(5900, 6183, 2021643296L, '?GetSelectionType@COlePasteSpecialDialog@@QBEIXZ')
(5901, 6184, 2020115840L, '?GetSelFont@CMFCFontComboBox@@QBEPAVCMFCFontInfo@@XZ')
(5902, 6185, 2020381216L, '?GetSelItem@CMFCPopupMenu@@QAEPAVCMFCToolBarMenuButton@@XZ')
(5903, 6186, 2021205524L, '?GetSelItem@CVSListBox@@UBEHXZ')
(5904, 6187, 2021875631L, '?GetSelRange@CMonthCalCtrl@@QBEHAAVCOleDateTime@ATL@@0@Z')
(5905, 6188, 2021875909L, '?GetSelRange@CMonthCalCtrl@@QBEHAAVCTime@ATL@@0@Z')
(5906, 6189, 2021875336L, '?GetSelRange@CMonthCalCtrl@@QBEHPAU_SYSTEMTIME@@0@Z')
(5907, 6190, 2021870797L, '?GetSelText@CRichEditCtrl@@QBE?AV?$CStringT@_WV?$StrTraitMFC_DLL@_WV?$ChTraitsCRT@_W@ATL@@@@@ATL@@XZ')
(5908, 6191, 2020710385L, '?GetShellImageList@CMFCShellListCtrl@@IAEPAU_IMAGELIST@@H@Z')
(5909, 6192, 2021209203L, '?GetShellManager@CWinAppEx@@QAEPAVCShellManager@@XZ')
(5910, 6193, 2021011749L, '?GetShowAllMenuItemsHeight@CMFCVisualManager@@UAEHPAVCDC@@ABVCSize@@@Z')
(5911, 6194, 2021037674L, '?GetShowAllMenuItemsHeight@CMFCVisualManagerOffice2003@@UAEHPAVCDC@@ABVCSize@@@Z')
(5912, 6195, 2021110782L, '?GetShowAllMenuItemsHeight@CMFCVisualManagerOffice2007@@UAEHPAVCDC@@ABVCSize@@@Z')
(5913, 6196, 2021779492L, '?GetSilent@CHtmlView@@QBEHXZ')
(5914, 6197, 2021492523L, '?GetSite@CPrintDialogEx@@UAGJABU_GUID@@PAPAX@Z')
(5915, 6198, 2019850977L, '?GetSize@CMFCAutoHideButton@@QBE?AVCSize@@XZ')
(5916, 6199, 2021505503L, '?GetSize@CPropertySection@@QAEKXZ')
(5917, 6200, 2021494869L, '?GetSizeInDialogUnits@CDialogTemplate@@QBEXPAUtagSIZE@@@Z')
(5918, 6201, 2021494942L, '?GetSizeInPixels@CDialogTemplate@@QBEXPAUtagSIZE@@@Z')
(5919, 6202, 2021301953L, '?GetSizeMax@CBlobProperty@@UAGJPAT_ULARGE_INTEGER@@@Z')
(5920, 6203, 2021478652L, '?GetSizeMax@XPersistMemory@COleControl@@UAGJPAK@Z')
(5921, 6204, 2021478652L, '?GetSizeMax@XPersistStreamInit@COleControl@@UAGJPAT_ULARGE_INTEGER@@@Z')
(5922, 6205, 2021929040L, '?GetSizingParent@CSplitterWnd@@IAEPAVCWnd@@XZ')
(5923, 6206, 2021012488L, '?GetSmartDockingBaseGuideColors@CMFCVisualManager@@UAEXAAK0@Z')
(5924, 6207, 2021047998L, '?GetSmartDockingBaseGuideColors@CMFCVisualManagerOffice2003@@UAEXAAK0@Z')
(5925, 6208, 2021149501L, '?GetSmartDockingBaseGuideColors@CMFCVisualManagerOfficeXP@@MAEXAAK0@Z')
(5926, 6209, 2021012524L, '?GetSmartDockingHighlightToneColor@CMFCVisualManager@@UAEKXZ')
(5927, 6210, 2021048077L, '?GetSmartDockingHighlightToneColor@CMFCVisualManagerOffice2003@@UAEKXZ')
(5928, 6211, 2021747587L, '?GetSockName@CAsyncSocket@@QAEHAAV?$CStringT@_WV?$StrTraitMFC_DLL@_WV?$ChTraitsCRT@_W@ATL@@@@@ATL@@AAI@Z')
(5929, 6212, 2020158566L, '?GetSortColumn@CMFCHeaderCtrl@@QBEHXZ')
(5930, 6214, 2021372460L, '?GetSourceTableName@CDaoTableDef@@QAE?AV?$CStringT@_WV?$StrTraitMFC_DLL@_WV?$ChTraitsCRT@_W@ATL@@@@@ATL@@XZ')
(5931, 6215, 2021354083L, '?GetSQL@CDaoQueryDef@@QAE?AV?$CStringT@_WV?$StrTraitMFC_DLL@_WV?$ChTraitsCRT@_W@ATL@@@@@ATL@@XZ')
(5932, 6216, 2021371710L, '?GetSQL@CDaoRecordset@@QBE?AV?$CStringT@_WV?$StrTraitMFC_DLL@_WV?$ChTraitsCRT@_W@ATL@@@@@ATL@@XZ')
(5933, 6217, 2021648255L, '?GetStackSize@CCmdTarget@@KGIPBEG@Z')
(5934, 6218, 2021647085L, '?GetStandardProp@CCmdTarget@@IAEXPBUAFX_DISPMAP_ENTRY@@PAUtagVARIANT@@PAI@Z')
(5935, 6219, 2021027210L, '?GetStandardWindowsTheme@CMFCBaseVisualManager@@UAE?AW4WinXpTheme@1@XZ')
(5936, 6220, 2021784356L, '?GetStartDocument@CHtmlEditCtrl@@UAEPB_WXZ')
(5937, 6221, 2021784356L, '?GetStartDocument@CHtmlEditView@@UAEPB_WXZ')
(5938, 6222, 2021634629L, '?GetStartPosition@CConnectionPoint@@QBEPAU__POSITION@@XZ')
(5939, 6223, 2021660558L, '?GetStartPosition@COleDocument@@UBEPAU__POSITION@@XZ')
(5940, 6224, 2021814269L, '?GetStartPosition@CRichEditDoc@@UBEPAU__POSITION@@XZ')
(5941, 6225, 2021543406L, '?GetStatus@CFile@@QBEHAAUCFileStatus@@@Z')
(5942, 6227, 2021544976L, '?GetStatus@CMemFile@@QBEHAAUCFileStatus@@@Z')
(5943, 6228, 2021711738L, '?GetStatus@COleStreamFile@@QBEHAAUCFileStatus@@@Z')
(5944, 6229, 2021779817L, '?GetStatusBar@CHtmlView@@QBEHXZ')
(5945, 6230, 2021013461L, '?GetStatusBarPaneTextColor@CMFCVisualManager@@UAEKPAVCMFCStatusBar@@PAVCMFCStatusBarPaneInfo@@@Z')
(5946, 6231, 2021111768L, '?GetStatusBarPaneTextColor@CMFCVisualManagerOffice2007@@UAEKPAVCMFCStatusBar@@PAVCMFCStatusBarPaneInfo@@@Z')
(5947, 6232, 2021203564L, '?GetStdButtonNum@CVSListBoxBase@@IBEHI@Z')
(5948, 6233, 2021322363L, '?GetStockTextMetrics@COleControl@@QAEXPAUtagTEXTMETRICW@@@Z')
(5949, 6234, 2021712172L, '?GetStorageName@COleStreamFile@@UBE?BV?$CStringT@_WV?$StrTraitMFC_DLL@_WV?$ChTraitsCRT@_W@ATL@@@@@ATL@@XZ')
(5950, 6235, 2021713347L, '?GetStream@COleStreamFile@@QBEPAUIStream@@XZ')
(5951, 6236, 2021702797L, '?GetString@?$CSimpleStringT@_W$00@ATL@@QBEPB_WXZ')
(5952, 6237, 2021702797L, '?GetString@?$CSimpleStringT@D$00@ATL@@QBEPBDXZ')
(5953, 6238, 2021855436L, '?GetString@CToolBarCtrl@@QBEHHAAV?$CStringT@_WV?$StrTraitMFC_DLL@_WV?$ChTraitsCRT@_W@ATL@@@@@ATL@@@Z')
(5954, 6239, 2021212504L, '?GetString@CWinAppEx@@QAE?AV?$CStringT@_WV?$StrTraitMFC_DLL@_WV?$ChTraitsCRT@_W@ATL@@@@@ATL@@PB_W0@Z')
(5955, 6240, 2021059352L, '?GetStyle@CMFCVisualManagerOffice2007@@SG?AW4Style@1@XZ')
(5956, 6241, 2021589005L, '?GetStyle@COleControlSite@@UBEKXZ')
(5957, 6242, 2021920651L, '?GetStyle@COleControlSiteOrWnd@@QBEKXZ')
(5958, 6243, 2021919434L, '?GetStyle@CWnd@@QBEKXZ')
(5959, 6244, 2021059044L, '?GetStyleResourceID@CMFCVisualManagerOffice2007@@KG?AV?$CStringT@_WV?$StrTraitMFC_DLL@_WV?$ChTraitsCRT@_W@ATL@@@@@ATL@@W4Style@1@@Z')
(5960, 6245, 2020414120L, '?GetSubItem@CMFCPropertyGridProperty@@QBEPAV1@H@Z')
(5961, 6246, 2021856453L, '?GetSubItemRect@CListCtrl@@QBEHHHHAAVCRect@@@Z')
(5962, 6247, 2021829479L, '?GetSuperWndProcAddr@CWnd@@MAEPAP6GJPAUHWND__@@IIJ@ZXZ')
(5963, 6248, 2020130609L, '?GetSysButton@CFrameImpl@@IAEPAVCMFCCaptionButtonEx@@I@Z')
(5964, 6249, 2021219300L, '?GetSysPolicyValue@CWinApp@@QAEHKPAH@Z')
(5965, 6250, 2021130182L, '?GetSystemBorders@CMFCVisualManagerOffice2007@@IBE?AVCSize@@H@Z')
(5966, 6251, 2020245810L, '?GetSystemButton@CMFCMenuBar@@QBEPAVCMFCToolBarMenuButtonsButton@@IH@Z')
(5967, 6252, 2020245762L, '?GetSystemMenu@CMFCMenuBar@@QBEPAVCMFCToolBarSystemMenuButton@@XZ')
(5968, 6253, 2020459544L, '?GetTab@CMFCPropertySheet@@QBEAAVCMFCTabCtrl@@XZ')
(5969, 6254, 2020277268L, '?GetTabArea@CMFCOutlookBar@@UBEXAAVCRect@@0@Z')
(5970, 6255, 2020299734L, '?GetTabArea@CMFCOutlookBarTabCtrl@@UBEXAAVCRect@@0@Z')
(5971, 6256, 2020750447L, '?GetTabArea@CTabbedPane@@UBEXAAVCRect@@0@Z')
(5972, 6257, 2019890576L, '?GetTabBkColor@CMFCBaseTabCtrl@@UBEKH@Z')
(5973, 6258, 2019883232L, '?GetTabByID@CMFCBaseTabCtrl@@UBEHH@Z')
(5974, 6259, 2021011780L, '?GetTabFrameColors@CMFCVisualManager@@UAEXPBVCMFCBaseTabCtrl@@AAK11111AAPAVCBrush@@2@Z')
(5975, 6260, 2021043050L, '?GetTabFrameColors@CMFCVisualManagerOffice2003@@UAEXPBVCMFCBaseTabCtrl@@AAK11111AAPAVCBrush@@2@Z')
(5976, 6261, 2021112179L, '?GetTabFrameColors@CMFCVisualManagerOffice2007@@UAEXPBVCMFCBaseTabCtrl@@AAK11111AAPAVCBrush@@2@Z')
(5977, 6262, 2021158894L, '?GetTabFrameColors@CMFCVisualManagerVS2005@@UAEXPBVCMFCBaseTabCtrl@@AAK11111AAPAVCBrush@@2@Z')
(5978, 6263, 2019883105L, '?GetTabFromHwnd@CMFCBaseTabCtrl@@UBEHPAUHWND__@@@Z')
(5979, 6264, 2019882996L, '?GetTabFromPoint@CMFCBaseTabCtrl@@UBEHAAVCPoint@@@Z')
(5980, 6265, 2020770844L, '?GetTabFromPoint@CMFCTabCtrl@@UBEHAAVCPoint@@@Z')
(5981, 6266, 2019890990L, '?GetTabFullWidth@CMFCBaseTabCtrl@@UBEHH@Z')
(5982, 6267, 2019882459L, '?GetTabHicon@CMFCBaseTabCtrl@@UBEPAUHICON__@@H@Z')
(5983, 6268, 2021114089L, '?GetTabHorzMargin@CMFCVisualManagerOffice2007@@UAEHPBVCMFCBaseTabCtrl@@@Z')
(5984, 6269, 2019882316L, '?GetTabIcon@CMFCBaseTabCtrl@@UBEIH@Z')
(5985, 6270, 2019881780L, '?GetTabID@CMFCBaseTabCtrl@@QBEHH@Z')
(5986, 6271, 2019881839L, '?GetTabLabel@CMFCBaseTabCtrl@@UBEHHAAV?$CStringT@_WV?$StrTraitMFC_DLL@_WV?$ChTraitsCRT@_W@ATL@@@@@ATL@@@Z')
(5987, 6272, 2021355956L, '?GetTableDefCount@CDaoDatabase@@QAEFXZ')
(5988, 6273, 2021356032L, '?GetTableDefInfo@CDaoDatabase@@QAEXHAAUCDaoTableDefInfo@@K@Z')
(5989, 6274, 2021356231L, '?GetTableDefInfo@CDaoDatabase@@QAEXPB_WAAUCDaoTableDefInfo@@K@Z')
(5990, 6275, 2019883361L, '?GetTabNumberToDetach@CMFCBaseTabCtrl@@MBEHH@Z')
(5991, 6276, 2020300101L, '?GetTabNumberToDetach@CMFCOutlookBarTabCtrl@@MBEHH@Z')
(5992, 6277, 2019881692L, '?GetTabRect@CMFCBaseTabCtrl@@UBEHHAAVCRect@@@Z')
(5993, 6278, 2019890867L, '?GetTabTextColor@CMFCBaseTabCtrl@@UBEKH@Z')
(5994, 6279, 2021113990L, '?GetTabTextColor@CMFCVisualManagerOffice2007@@UAEKPBVCMFCBaseTabCtrl@@HH@Z')
(5995, 6280, 2019881543L, '?GetTabWnd@CMFCBaseTabCtrl@@UBEPAVCWnd@@H@Z')
(5996, 6281, 2019881601L, '?GetTabWndNoWrapper@CMFCBaseTabCtrl@@UBEPAVCWnd@@H@Z')
(5997, 6282, 2020803653L, '?GetTask@CMFCTasksPane@@QBEPAVCMFCTasksPaneTask@@HH@Z')
(5998, 6283, 2020802617L, '?GetTaskGroup@CMFCTasksPane@@QBEPAVCMFCTasksPaneTaskGroup@@H@Z')
(5999, 6284, 2020803451L, '?GetTaskLocation@CMFCTasksPane@@QBEHIAAH0@Z')
(6000, 6285, 2020803552L, '?GetTaskLocation@CMFCTasksPane@@QBEHPAUHWND__@@AAH1@Z')
(6001, 6286, 2020803693L, '?GetTaskLocation@CMFCTasksPane@@QBEHPAVCMFCTasksPaneTask@@AAH1@Z')
(6002, 6287, 2020818303L, '?GetTasksGroupBorders@CMFCTasksPane@@MBE?AVCSize@@XZ')
(6003, 6288, 2021494027L, '?GetTemplateSize@CDialogTemplate@@KAIPBUDLGTEMPLATE@@@Z')
(6004, 6289, 2021853168L, '?GetText@CListBox@@QBEXHAAV?$CStringT@_WV?$StrTraitMFC_DLL@_WV?$ChTraitsCRT@_W@ATL@@@@@ATL@@@Z')
(6005, 6290, 2020100140L, '?GetText@CMFCDropDownListBox@@QBEXHAAV?$CStringT@_WV?$StrTraitMFC_DLL@_WV?$ChTraitsCRT@_W@ATL@@@@@ATL@@@Z')
(6006, 6291, 2021321211L, '?GetText@COleControl@@QAEPA_WXZ')
(6007, 6292, 2021855761L, '?GetText@CStatusBarCtrl@@QBE?AV?$CStringT@_WV?$StrTraitMFC_DLL@_WV?$ChTraitsCRT@_W@ATL@@@@@ATL@@HPAH@Z')
(6008, 6293, 2021855710L, '?GetText@CStatusBarCtrl@@QBEHPA_WHPAH@Z')
(6009, 6294, 2021759234L, '?GetText@CToolTipCtrl@@QBEXAAV?$CStringT@_WV?$StrTraitMFC_DLL@_WV?$ChTraitsCRT@_W@ATL@@@@@ATL@@PAVCWnd@@I@Z')
(6010, 6295, 2020893542L, '?GetTextAll@CMFCToolBarComboBoxButton@@SGPB_WI@Z')
(6011, 6296, 2020951283L, '?GetTextHorzOffsets@CMFCToolBarMenuButton@@KGXAAH0@Z')
(6012, 6297, 2021412492L, '?GetTextLen@CRecordset@@SGJFK@Z')
(6013, 6298, 2021855894L, '?GetTextLength@CStatusBarCtrl@@QBEHHPAH@Z')
(6014, 6299, 2021871008L, '?GetTextLengthEx@CRichEditCtrl@@QBEJKI@Z')
(6015, 6300, 2021871068L, '?GetTextRange@CRichEditCtrl@@QBEHHHAAV?$CStringT@_WV?$StrTraitMFC_DLL@_WV?$ChTraitsCRT@_W@ATL@@@@@ATL@@@Z')
(6016, 6301, 2019852805L, '?GetTextSize@CMFCAutoHideButton@@UBE?AVCSize@@XZ')
(6017, 6302, 2019917223L, '?GetTextSize@CMFCCaptionBar@@MAE?AVCSize@@PAVCDC@@ABV?$CStringT@_WV?$StrTraitMFC_DLL@_WV?$ChTraitsCRT@_W@ATL@@@@@ATL@@@Z')
(6018, 6303, 2020534702L, '?GetTextTopLine@CMFCRibbonCategory@@QBEHXZ')
(6019, 6304, 2021780514L, '?GetTheaterMode@CHtmlView@@QBEHXZ')
(6020, 6305, 2021038769L, '?GetThemeColor@CMFCVisualManagerOffice2003@@IBEKPAXH@Z')
(6021, 6306, 2021754474L, '?GetThemePartSize@CThemeHelper@@SAJPAXPAUHDC__@@HHPAUtagRECT@@W4THEMESIZE@@PAUtagSIZE@@@Z')
(6022, 6307, 2021754136L, '?GetThemePartSizeFail@CThemeHelper@@CAJPAXPAUHDC__@@HHPAUtagRECT@@W4THEMESIZE@@PAUtagSIZE@@@Z')
(6023, 6308, 2021861955L, '?GetThisClass@CAnimateCtrl@@SGPAUCRuntimeClass@@XZ')
(6024, 6309, 2021238411L, '?GetThisClass@CArchiveException@@SGPAUCRuntimeClass@@XZ')
(6025, 6310, 2021325978L, '?GetThisClass@CAsyncMonikerFile@@SGPAUCRuntimeClass@@XZ')
(6026, 6311, 2021752457L, '?GetThisClass@CAsyncSocket@@SGPAUCRuntimeClass@@XZ')
(6027, 6312, 2019853419L, '?GetThisClass@CAutoHideDockSite@@SGPAUCRuntimeClass@@XZ')
(6028, 6313, 2019854842L, '?GetThisClass@CBasePane@@SGPAUCRuntimeClass@@XZ')
(6029, 6314, 2019871683L, '?GetThisClass@CBaseTabbedPane@@SGPAUCRuntimeClass@@XZ')
(6030, 6315, 2021902962L, '?GetThisClass@CBitmap@@SGPAUCRuntimeClass@@XZ')
(6031, 6316, 2021824060L, '?GetThisClass@CBitmapButton@@SGPAUCRuntimeClass@@XZ')
(6032, 6317, 2021902940L, '?GetThisClass@CBrush@@SGPAUCRuntimeClass@@XZ')
(6033, 6318, 2019897201L, '?GetThisClass@CButton@@SGPAUCRuntimeClass@@XZ')
(6034, 6319, 2021239985L, '?GetThisClass@CByteArray@@SGPAUCRuntimeClass@@XZ')
(6035, 6320, 2021326000L, '?GetThisClass@CCachedDataPathProperty@@SGPAUCRuntimeClass@@XZ')
(6036, 6321, 2021869845L, '?GetThisClass@CCheckListBox@@SGPAUCRuntimeClass@@XZ')
(6037, 6322, 2021902854L, '?GetThisClass@CClientDC@@SGPAUCRuntimeClass@@XZ')
(6038, 6323, 2021504386L, '?GetThisClass@CCmdTarget@@SGPAUCRuntimeClass@@XZ')
(6039, 6324, 2021441461L, '?GetThisClass@CColorDialog@@SGPAUCRuntimeClass@@XZ')
(6040, 6325, 2021861922L, '?GetThisClass@CComboBox@@SGPAUCRuntimeClass@@XZ')
(6041, 6326, 2021861933L, '?GetThisClass@CComboBoxEx@@SGPAUCRuntimeClass@@XZ')
(6042, 6327, 2021462807L, '?GetThisClass@CCommonDialog@@SGPAUCRuntimeClass@@XZ')
(6043, 6328, 2021271942L, '?GetThisClass@CControlBar@@SGPAUCRuntimeClass@@XZ')
(6044, 6329, 2021568372L, '?GetThisClass@CCriticalSection@@SGPAUCRuntimeClass@@XZ')
(6045, 6330, 2021768625L, '?GetThisClass@CCtrlView@@SGPAUCRuntimeClass@@XZ')
(6046, 6331, 2021352458L, '?GetThisClass@CDaoDatabase@@SGPAUCRuntimeClass@@XZ')
(6047, 6332, 2021346149L, '?GetThisClass@CDaoException@@SGPAUCRuntimeClass@@XZ')
(6048, 6333, 2021364060L, '?GetThisClass@CDaoQueryDef@@SGPAUCRuntimeClass@@XZ')
(6049, 6334, 2021368574L, '?GetThisClass@CDaoRecordset@@SGPAUCRuntimeClass@@XZ')
(6050, 6335, 2021390318L, '?GetThisClass@CDaoRecordView@@SGPAUCRuntimeClass@@XZ')
(6051, 6336, 2021359341L, '?GetThisClass@CDaoTableDef@@SGPAUCRuntimeClass@@XZ')
(6052, 6337, 2021347201L, '?GetThisClass@CDaoWorkspace@@SGPAUCRuntimeClass@@XZ')
(6053, 6338, 2021413059L, '?GetThisClass@CDatabase@@SGPAUCRuntimeClass@@XZ')
(6054, 6339, 2021325989L, '?GetThisClass@CDataPathProperty@@SGPAUCRuntimeClass@@XZ')
(6055, 6340, 2021877086L, '?GetThisClass@CDateTimeCtrl@@SGPAUCRuntimeClass@@XZ')
(6056, 6341, 2021413048L, '?GetThisClass@CDBException@@SGPAUCRuntimeClass@@XZ')
(6057, 6342, 2021296321L, '?GetThisClass@CDC@@SGPAUCRuntimeClass@@XZ')
(6058, 6343, 2021463219L, '?GetThisClass@CDHtmlDialog@@SGPAUCRuntimeClass@@XZ')
(6059, 6344, 2021318548L, '?GetThisClass@CDialog@@SGPAUCRuntimeClass@@XZ')
(6060, 6345, 2021252039L, '?GetThisClass@CDialogBar@@SGPAUCRuntimeClass@@XZ')
(6061, 6346, 2020001465L, '?GetThisClass@CDialogEx@@SGPAUCRuntimeClass@@XZ')
(6062, 6347, 2021664337L, '?GetThisClass@CDocItem@@SGPAUCRuntimeClass@@XZ')
(6063, 6348, 2020026154L, '?GetThisClass@CDockablePane@@SGPAUCRuntimeClass@@XZ')
(6064, 6349, 2020026165L, '?GetThisClass@CDockablePaneAdapter@@SGPAUCRuntimeClass@@XZ')
(6065, 6350, 2021258360L, '?GetThisClass@CDockBar@@SGPAUCRuntimeClass@@XZ')
(6066, 6351, 2020052633L, '?GetThisClass@CDockingPanesRow@@SGPAUCRuntimeClass@@XZ')
(6067, 6352, 2020066672L, '?GetThisClass@CDockSite@@SGPAUCRuntimeClass@@XZ')
(6068, 6353, 2021516768L, '?GetThisClass@CDockState@@SGPAUCRuntimeClass@@XZ')
(6069, 6354, 2021525989L, '?GetThisClass@CDocManager@@SGPAUCRuntimeClass@@XZ')
(6070, 6355, 2021668326L, '?GetThisClass@CDocObjectServer@@SGPAUCRuntimeClass@@XZ')
(6071, 6356, 2021673420L, '?GetThisClass@CDocObjectServerItem@@SGPAUCRuntimeClass@@XZ')
(6072, 6357, 2021529567L, '?GetThisClass@CDocTemplate@@SGPAUCRuntimeClass@@XZ')
(6073, 6358, 2021504397L, '?GetThisClass@CDocument@@SGPAUCRuntimeClass@@XZ')
(6074, 6359, 2021861878L, '?GetThisClass@CDragListBox@@SGPAUCRuntimeClass@@XZ')
(6075, 6360, 2021240665L, '?GetThisClass@CDWordArray@@SGPAUCRuntimeClass@@XZ')
(6076, 6361, 2021936102L, '?GetThisClass@CDynLinkLibrary@@SGPAUCRuntimeClass@@XZ')
(6077, 6362, 2021853782L, '?GetThisClass@CEdit@@SGPAUCRuntimeClass@@XZ')
(6078, 6363, 2021774783L, '?GetThisClass@CEditView@@SGPAUCRuntimeClass@@XZ')
(6079, 6364, 2021569417L, '?GetThisClass@CEvent@@SGPAUCRuntimeClass@@XZ')
(6080, 6365, 2021560456L, '?GetThisClass@CException@@SGPAUCRuntimeClass@@XZ')
(6081, 6366, 2021536352L, '?GetThisClass@CFile@@SGPAUCRuntimeClass@@XZ')
(6082, 6367, 2021459533L, '?GetThisClass@CFileDialog@@SGPAUCRuntimeClass@@XZ')
(6083, 6368, 2021548364L, '?GetThisClass@CFileException@@SGPAUCRuntimeClass@@XZ')
(6084, 6369, 2021538419L, '?GetThisClass@CFileFind@@SGPAUCRuntimeClass@@XZ')
(6085, 6370, 2021462818L, '?GetThisClass@CFindReplaceDialog@@SGPAUCRuntimeClass@@XZ')
(6086, 6371, 2021902951L, '?GetThisClass@CFont@@SGPAUCRuntimeClass@@XZ')
(6087, 6372, 2021462183L, '?GetThisClass@CFontDialog@@SGPAUCRuntimeClass@@XZ')
(6088, 6373, 2021791316L, '?GetThisClass@CFormView@@SGPAUCRuntimeClass@@XZ')
(6089, 6374, 2021914621L, '?GetThisClass@CFrameWnd@@SGPAUCRuntimeClass@@XZ')
(6090, 6375, 2020132372L, '?GetThisClass@CFrameWndEx@@SGPAUCRuntimeClass@@XZ')
(6091, 6376, 2021560533L, '?GetThisClass@CFtpConnection@@SGPAUCRuntimeClass@@XZ')
(6092, 6377, 2021560566L, '?GetThisClass@CFtpFileFind@@SGPAUCRuntimeClass@@XZ')
(6093, 6378, 2021902918L, '?GetThisClass@CGdiObject@@SGPAUCRuntimeClass@@XZ')
(6094, 6379, 2021560555L, '?GetThisClass@CGopherConnection@@SGPAUCRuntimeClass@@XZ')
(6095, 6380, 2021560500L, '?GetThisClass@CGopherFile@@SGPAUCRuntimeClass@@XZ')
(6096, 6381, 2021560577L, '?GetThisClass@CGopherFileFind@@SGPAUCRuntimeClass@@XZ')
(6097, 6382, 2020156091L, '?GetThisClass@CHeaderCtrl@@SGPAUCRuntimeClass@@XZ')
(6098, 6383, 2020237247L, '?GetThisClass@CHelpComboBoxButton@@SGPAUCRuntimeClass@@XZ')
(6099, 6384, 2021861944L, '?GetThisClass@CHotKeyCtrl@@SGPAUCRuntimeClass@@XZ')
(6100, 6385, 2021785819L, '?GetThisClass@CHtmlEditDoc@@SGPAUCRuntimeClass@@XZ')
(6101, 6386, 2021785808L, '?GetThisClass@CHtmlEditView@@SGPAUCRuntimeClass@@XZ')
(6102, 6387, 2021785797L, '?GetThisClass@CHtmlView@@SGPAUCRuntimeClass@@XZ')
(6103, 6388, 2021560544L, '?GetThisClass@CHttpConnection@@SGPAUCRuntimeClass@@XZ')
(6104, 6389, 2021560489L, '?GetThisClass@CHttpFile@@SGPAUCRuntimeClass@@XZ')
(6105, 6390, 2021862052L, '?GetThisClass@CImageList@@SGPAUCRuntimeClass@@XZ')
(6106, 6391, 2021560522L, '?GetThisClass@CInternetConnection@@SGPAUCRuntimeClass@@XZ')
(6107, 6392, 2021560467L, '?GetThisClass@CInternetException@@SGPAUCRuntimeClass@@XZ')
(6108, 6393, 2021560478L, '?GetThisClass@CInternetFile@@SGPAUCRuntimeClass@@XZ')
(6109, 6394, 2021560511L, '?GetThisClass@CInternetSession@@SGPAUCRuntimeClass@@XZ')
(6110, 6395, 2021531638L, '?GetThisClass@CInvalidArgException@@SGPAUCRuntimeClass@@XZ')
(6111, 6396, 2021879073L, '?GetThisClass@CIPAddressCtrl@@SGPAUCRuntimeClass@@XZ')
(6112, 6397, 2021879106L, '?GetThisClass@CLinkCtrl@@SGPAUCRuntimeClass@@XZ')
(6113, 6398, 2021869834L, '?GetThisClass@CListBox@@SGPAUCRuntimeClass@@XZ')
(6114, 6399, 2021861988L, '?GetThisClass@CListCtrl@@SGPAUCRuntimeClass@@XZ')
(6115, 6400, 2021766366L, '?GetThisClass@CListView@@SGPAUCRuntimeClass@@XZ')
(6116, 6401, 2021415254L, '?GetThisClass@CLongBinary@@SGPAUCRuntimeClass@@XZ')
(6117, 6402, 2021563924L, '?GetThisClass@CMapPtrToPtr@@SGPAUCRuntimeClass@@XZ')
(6118, 6403, 2021564431L, '?GetThisClass@CMapPtrToWord@@SGPAUCRuntimeClass@@XZ')
(6119, 6404, 2021565364L, '?GetThisClass@CMapStringToOb@@SGPAUCRuntimeClass@@XZ')
(6120, 6405, 2021565743L, '?GetThisClass@CMapStringToPtr@@SGPAUCRuntimeClass@@XZ')
(6121, 6406, 2021567150L, '?GetThisClass@CMapStringToString@@SGPAUCRuntimeClass@@XZ')
(6122, 6407, 2021567714L, '?GetThisClass@CMapWordToOb@@SGPAUCRuntimeClass@@XZ')
(6123, 6408, 2021568222L, '?GetThisClass@CMapWordToPtr@@SGPAUCRuntimeClass@@XZ')
(6124, 6409, 2021914632L, '?GetThisClass@CMDIChildWnd@@SGPAUCRuntimeClass@@XZ')
(6125, 6410, 2020215494L, '?GetThisClass@CMDIChildWndEx@@SGPAUCRuntimeClass@@XZ')
(6126, 6411, 2020194409L, '?GetThisClass@CMDIClientAreaWnd@@SGPAUCRuntimeClass@@XZ')
(6127, 6412, 2021914557L, '?GetThisClass@CMDIFrameWnd@@SGPAUCRuntimeClass@@XZ')
(6128, 6413, 2020227179L, '?GetThisClass@CMDIFrameWndEx@@SGPAUCRuntimeClass@@XZ')
(6129, 6414, 2021542595L, '?GetThisClass@CMemFile@@SGPAUCRuntimeClass@@XZ')
(6130, 6415, 2021531616L, '?GetThisClass@CMemoryException@@SGPAUCRuntimeClass@@XZ')
(6131, 6416, 2021917371L, '?GetThisClass@CMenu@@SGPAUCRuntimeClass@@XZ')
(6132, 6417, 2021436133L, '?GetThisClass@CMetaFileDC@@SGPAUCRuntimeClass@@XZ')
(6133, 6418, 2019846569L, '?GetThisClass@CMFCAutoHideBar@@SGPAUCRuntimeClass@@XZ')
(6134, 6419, 2019850721L, '?GetThisClass@CMFCAutoHideButton@@SGPAUCRuntimeClass@@XZ')
(6135, 6420, 2019878447L, '?GetThisClass@CMFCBaseTabCtrl@@SGPAUCRuntimeClass@@XZ')
(6136, 6421, 2019896871L, '?GetThisClass@CMFCBaseToolBar@@SGPAUCRuntimeClass@@XZ')
(6137, 6422, 2020248112L, '?GetThisClass@CMFCButton@@SGPAUCRuntimeClass@@XZ')
(6138, 6423, 2019907555L, '?GetThisClass@CMFCCaptionBar@@SGPAUCRuntimeClass@@XZ')
(6139, 6424, 2019921791L, '?GetThisClass@CMFCColorBar@@SGPAUCRuntimeClass@@XZ')
(6140, 6425, 2019932850L, '?GetThisClass@CMFCColorButton@@SGPAUCRuntimeClass@@XZ')
(6141, 6426, 2019939728L, '?GetThisClass@CMFCColorMenuButton@@SGPAUCRuntimeClass@@XZ')
(6142, 6427, 2019951841L, '?GetThisClass@CMFCColorPopupMenu@@SGPAUCRuntimeClass@@XZ')
(6143, 6428, 2019952383L, '?GetThisClass@CMFCColorPropertySheet@@SGPAUCRuntimeClass@@XZ')
(6144, 6429, 2019965680L, '?GetThisClass@CMFCControlRenderer@@SGPAUCRuntimeClass@@XZ')
(6145, 6430, 2019970117L, '?GetThisClass@CMFCCustomColorsPropertyPage@@SGPAUCRuntimeClass@@XZ')
(6146, 6431, 2020291225L, '?GetThisClass@CMFCCustomizeButton@@SGPAUCRuntimeClass@@XZ')
(6147, 6432, 2019976989L, '?GetThisClass@CMFCCustomizeMenuButton@@SGPAUCRuntimeClass@@XZ')
(6148, 6433, 2019990598L, '?GetThisClass@CMFCDesktopAlertDialog@@SGPAUCRuntimeClass@@XZ')
(6149, 6434, 2019994051L, '?GetThisClass@CMFCDesktopAlertWnd@@SGPAUCRuntimeClass@@XZ')
(6150, 6435, 2020102472L, '?GetThisClass@CMFCDropDownFrame@@SGPAUCRuntimeClass@@XZ')
(6151, 6436, 2020099097L, '?GetThisClass@CMFCDropDownListBox@@SGPAUCRuntimeClass@@XZ')
(6152, 6437, 2020101381L, '?GetThisClass@CMFCDropDownToolBar@@SGPAUCRuntimeClass@@XZ')
(6153, 6438, 2020104818L, '?GetThisClass@CMFCDropDownToolbarButton@@SGPAUCRuntimeClass@@XZ')
(6154, 6439, 2020156102L, '?GetThisClass@CMFCHeaderCtrl@@SGPAUCRuntimeClass@@XZ')
(6155, 6440, 2020182503L, '?GetThisClass@CMFCLinkCtrl@@SGPAUCRuntimeClass@@XZ')
(6156, 6441, 2020180956L, '?GetThisClass@CMFCListCtrl@@SGPAUCRuntimeClass@@XZ')
(6157, 6442, 2020184576L, '?GetThisClass@CMFCMaskedEdit@@SGPAUCRuntimeClass@@XZ')
(6158, 6443, 2020237357L, '?GetThisClass@CMFCMenuBar@@SGPAUCRuntimeClass@@XZ')
(6159, 6444, 2020248123L, '?GetThisClass@CMFCMenuButton@@SGPAUCRuntimeClass@@XZ')
(6160, 6445, 2020257438L, '?GetThisClass@CMFCMousePropertyPage@@SGPAUCRuntimeClass@@XZ')
(6161, 6446, 2020276984L, '?GetThisClass@CMFCOutlookBar@@SGPAUCRuntimeClass@@XZ')
(6162, 6447, 2020280411L, '?GetThisClass@CMFCOutlookBarPane@@SGPAUCRuntimeClass@@XZ')
(6163, 6448, 2020288941L, '?GetThisClass@CMFCOutlookBarPaneAdapter@@SGPAUCRuntimeClass@@XZ')
(6164, 6449, 2020289109L, '?GetThisClass@CMFCOutlookBarPaneButton@@SGPAUCRuntimeClass@@XZ')
(6165, 6450, 2020293236L, '?GetThisClass@CMFCOutlookBarTabCtrl@@SGPAUCRuntimeClass@@XZ')
(6166, 6451, 2020291974L, '?GetThisClass@CMFCOutlookBarToolBar@@SGPAUCRuntimeClass@@XZ')
(6167, 6452, 2020682472L, '?GetThisClass@CMFCPopupMenu@@SGPAUCRuntimeClass@@XZ')
(6168, 6453, 2020396113L, '?GetThisClass@CMFCPopupMenuBar@@SGPAUCRuntimeClass@@XZ')
(6169, 6454, 2020409278L, '?GetThisClass@CMFCPrintPreviewToolBar@@SGPAUCRuntimeClass@@XZ')
(6170, 6455, 2020422721L, '?GetThisClass@CMFCPropertyGridColorProperty@@SGPAUCRuntimeClass@@XZ')
(6171, 6456, 2020426457L, '?GetThisClass@CMFCPropertyGridCtrl@@SGPAUCRuntimeClass@@XZ')
(6172, 6457, 2020424737L, '?GetThisClass@CMFCPropertyGridFileProperty@@SGPAUCRuntimeClass@@XZ')
(6173, 6458, 2020425652L, '?GetThisClass@CMFCPropertyGridFontProperty@@SGPAUCRuntimeClass@@XZ')
(6174, 6459, 2020411540L, '?GetThisClass@CMFCPropertyGridProperty@@SGPAUCRuntimeClass@@XZ')
(6175, 6460, 2020447685L, '?GetThisClass@CMFCPropertyGridToolTipCtrl@@SGPAUCRuntimeClass@@XZ')
(6176, 6461, 2020449793L, '?GetThisClass@CMFCPropertyPage@@SGPAUCRuntimeClass@@XZ')
(6177, 6462, 2020568897L, '?GetThisClass@CMFCPropertySheet@@SGPAUCRuntimeClass@@XZ')
(6178, 6463, 2020452751L, '?GetThisClass@CMFCPropertySheetCategoryInfo@@SGPAUCRuntimeClass@@XZ')
(6179, 6464, 2020462451L, '?GetThisClass@CMFCReBar@@SGPAUCRuntimeClass@@XZ')
(6180, 6465, 2020467865L, '?GetThisClass@CMFCRibbonApplicationButton@@SGPAUCRuntimeClass@@XZ')
(6181, 6466, 2020469705L, '?GetThisClass@CMFCRibbonBar@@SGPAUCRuntimeClass@@XZ')
(6182, 6467, 2020504627L, '?GetThisClass@CMFCRibbonBaseElement@@SGPAUCRuntimeClass@@XZ')
(6183, 6468, 2020573149L, '?GetThisClass@CMFCRibbonButton@@SGPAUCRuntimeClass@@XZ')
(6184, 6469, 2020627343L, '?GetThisClass@CMFCRibbonButtonsGroup@@SGPAUCRuntimeClass@@XZ')
(6185, 6470, 2020467033L, '?GetThisClass@CMFCRibbonCaptionButton@@SGPAUCRuntimeClass@@XZ')
(6186, 6471, 2020526957L, '?GetThisClass@CMFCRibbonCategory@@SGPAUCRuntimeClass@@XZ')
(6187, 6472, 2020537471L, '?GetThisClass@CMFCRibbonCheckBox@@SGPAUCRuntimeClass@@XZ')
(6188, 6473, 2020551757L, '?GetThisClass@CMFCRibbonColorButton@@SGPAUCRuntimeClass@@XZ')
(6189, 6474, 2020551693L, '?GetThisClass@CMFCRibbonColorMenuButton@@SGPAUCRuntimeClass@@XZ')
(6190, 6475, 2020557302L, '?GetThisClass@CMFCRibbonComboBox@@SGPAUCRuntimeClass@@XZ')
(6191, 6476, 2020467299L, '?GetThisClass@CMFCRibbonContextCaption@@SGPAUCRuntimeClass@@XZ')
(6192, 6477, 2020568886L, '?GetThisClass@CMFCRibbonCustomizeCategory@@SGPAUCRuntimeClass@@XZ')
(6193, 6478, 2020568908L, '?GetThisClass@CMFCRibbonCustomizeDialog@@SGPAUCRuntimeClass@@XZ')
(6194, 6479, 2020569196L, '?GetThisClass@CMFCRibbonCustomizePropertyPage@@SGPAUCRuntimeClass@@XZ')
(6195, 6480, 2020646300L, '?GetThisClass@CMFCRibbonDefaultPanelButton@@SGPAUCRuntimeClass@@XZ')
(6196, 6481, 2020557291L, '?GetThisClass@CMFCRibbonEdit@@SGPAUCRuntimeClass@@XZ')
(6197, 6482, 2020560822L, '?GetThisClass@CMFCRibbonFontComboBox@@SGPAUCRuntimeClass@@XZ')
(6198, 6483, 2020636180L, '?GetThisClass@CMFCRibbonGallery@@SGPAUCRuntimeClass@@XZ')
(6199, 6484, 2020634482L, '?GetThisClass@CMFCRibbonGalleryIcon@@SGPAUCRuntimeClass@@XZ')
(6200, 6485, 2020644994L, '?GetThisClass@CMFCRibbonGalleryMenuButton@@SGPAUCRuntimeClass@@XZ')
(6201, 6486, 2020625055L, '?GetThisClass@CMFCRibbonLabel@@SGPAUCRuntimeClass@@XZ')
(6202, 6488, 2020626309L, '?GetThisClass@CMFCRibbonLinkCtrl@@SGPAUCRuntimeClass@@XZ')
(6203, 6489, 2020628762L, '?GetThisClass@CMFCRibbonMainPanel@@SGPAUCRuntimeClass@@XZ')
(6204, 6490, 2020632255L, '?GetThisClass@CMFCRibbonMainPanelButton@@SGPAUCRuntimeClass@@XZ')
(6205, 6491, 2020632668L, '?GetThisClass@CMFCRibbonMiniToolBar@@SGPAUCRuntimeClass@@XZ')
